 node_expat

 Timestamp is 5c246fc8 (Thu Dec 27 13:23:04 2018)

 Preferred load address is 0000000180000000

 Start         Length     Name                   Class
 0001:00000000 00030010H .text$mn                CODE
 0001:00030010 00000020H .text$mn$00             CODE
 0001:00030030 00000270H .text$x                 CODE
 0002:00000000 00000270H .idata$5                DATA
 0002:00000270 00000010H .00cfg                  DATA
 0002:00000280 00000008H .CRT$XCA                DATA
 0002:00000288 00000008H .CRT$XCU                DATA
 0002:00000290 00000008H .CRT$XCZ                DATA
 0002:00000298 00000008H .CRT$XIA                DATA
 0002:000002a0 00000018H .CRT$XIC                DATA
 0002:000002b8 00000008H .CRT$XIZ                DATA
 0002:000002c0 00000008H .CRT$XPA                DATA
 0002:000002c8 00000010H .CRT$XPX                DATA
 0002:000002d8 00000008H .CRT$XPXA               DATA
 0002:000002e0 00000008H .CRT$XPZ                DATA
 0002:000002e8 00000008H .CRT$XTA                DATA
 0002:000002f0 00000010H .CRT$XTZ                DATA
 0002:000002f8 00000000H .gfids$y                DATA
 0002:00000300 0000b9f0H .rdata                  DATA
 0002:0000bcf0 000001f4H .rdata$r                DATA
 0002:0000bee4 000003ecH .rdata$zzzdbg           DATA
 0002:0000c2d0 00000008H .rtc$IAA                DATA
 0002:0000c2d8 00000008H .rtc$IZZ                DATA
 0002:0000c2e0 00000008H .rtc$TAA                DATA
 0002:0000c2e8 00000008H .rtc$TZZ                DATA
 0002:0000c2f0 000021b8H .xdata                  DATA
 0002:0000e4a8 000000ecH .xdata$x                DATA
 0002:0000e594 00000020H .didat$2                DATA
 0002:0000e5b4 00000024H .didat$3                DATA
 0002:0000e5d8 000001d8H .didat$4                DATA
 0002:0000e7b0 00000ef0H .didat$6                DATA
 0002:0000f6a0 000001e0H .didat$7                DATA
 0002:0000f880 00000058H .edata                  DATA
 0002:0000f8d8 00000014H .idata$2                DATA
 0002:0000f8ec 00000014H .idata$3                DATA
 0002:0000f900 00000270H .idata$4                DATA
 0002:0000fb70 000005b0H .idata$6                DATA
 0003:00000000 00000a80H .data                   DATA
 0003:00000a80 000000a0H .data$r                 DATA
 0003:00000b20 000001e0H .didat$5                DATA
 0003:00000d00 00001220H .bss                    DATA
 0004:00000000 00002718H .pdata                  DATA
 0005:00000000 00000060H .rsrc$01                DATA
 0005:00000060 00000180H .rsrc$02                DATA

  Address         Publics by Value              Rva+Base               Lib:Object

 0000:00000000       __guard_fids_count         0000000000000000     <absolute>
 0000:00000000       __guard_iat_count          0000000000000000     <absolute>
 0000:00000000       __guard_longjmp_count      0000000000000000     <absolute>
 0000:00000000       __guard_longjmp_table      0000000000000000     <absolute>
 0000:00000000       __volatile_metadata        0000000000000000     <absolute>
 0000:00000000       __hybrid_code_map_count    0000000000000000     <absolute>
 0000:00000000       __guard_iat_table          0000000000000000     <absolute>
 0000:00000000       __hybrid_code_map          0000000000000000     <absolute>
 0000:00000000       ___safe_se_handler_count   0000000000000000     <absolute>
 0000:00000000       __enclave_config           0000000000000000     <absolute>
 0000:00000000       ___safe_se_handler_table   0000000000000000     <absolute>
 0000:00000000       __guard_fids_table         0000000000000000     <absolute>
 0000:00000000       __hybrid_auxiliary_iat     0000000000000000     <absolute>
 0000:00000000       __dynamic_value_reloc_table 0000000000000000     <absolute>
 0000:00000100       __guard_flags              0000000000000100     <absolute>
 0000:00000000       __ImageBase                0000000180000000     <linker-defined>
 0001:000000e0       ?New@?$Factory@VFunctionTemplate@v8@@@imp@Nan@@SA?AV?$Local@VFunctionTemplate@v8@@@v8@@P6AXAEBV?$FunctionCallbackInfo@VValue@v8@@@3@@ZV?$Local@VValue@v8@@@5@V?$Local@VSignature@v8@@@5@@Z 00000001800010e0 f i node-expat.obj
 0001:000002b0       ?ThrowTypeError@Nan@@YAXPEBD@Z 00000001800012b0 f i node-expat.obj
 0001:00000340       ??0Utf8String@Nan@@QEAA@V?$Local@VValue@v8@@@v8@@@Z 0000000180001340 f i node-expat.obj
 0001:00000480       ?SetPrototypeMethod@Nan@@YAXV?$Local@VFunctionTemplate@v8@@@v8@@PEBDP6AXAEBV?$FunctionCallbackInfo@VValue@v8@@@1@@Z@Z 0000000180001480 f i node-expat.obj
 0001:00000560       ?Ref@ObjectWrap@Nan@@MEAAXXZ 0000000180001560 f i node-expat.obj
 0001:000005a0       ?Unref@ObjectWrap@Nan@@MEAAXXZ 00000001800015a0 f i node-expat.obj
 0001:00000650       ?WeakCallback@ObjectWrap@Nan@@CAXAEBV?$WeakCallbackInfo@VObjectWrap@Nan@@@v8@@@Z 0000000180001650 f i node-expat.obj
 0001:000006e0       ??_GObjectWrap@Nan@@UEAAPEAXI@Z 00000001800016e0 f i node-expat.obj
 0001:000006e0       ??_EObjectWrap@Nan@@UEAAPEAXI@Z 00000001800016e0 f i * CIL library *:* CIL module *
 0001:00000770       ?Initialize@Parser@@SAXV?$Local@VObject@v8@@@v8@@@Z 0000000180001770 f i node-expat.obj
 0001:000009c0       ?New@Parser@@KAXAEBV?$FunctionCallbackInfo@VValue@v8@@@Nan@@@Z 00000001800019c0 f i node-expat.obj
 0001:00000c10       ?attachHandlers@Parser@@IEAAXXZ 0000000180001c10 f i node-expat.obj
 0001:00000d10       ?Parse@Parser@@KAXAEBV?$FunctionCallbackInfo@VValue@v8@@@Nan@@@Z 0000000180001d10 f i node-expat.obj
 0001:00000f60       ?parseBuffer@Parser@@IEAA_NV?$Local@VObject@v8@@@v8@@H@Z 0000000180001f60 f i node-expat.obj
 0001:00001130       ?SetEncoding@Parser@@KAXAEBV?$FunctionCallbackInfo@VValue@v8@@@Nan@@@Z 0000000180002130 f i node-expat.obj
 0001:000012b0       ?GetError@Parser@@KAXAEBV?$FunctionCallbackInfo@VValue@v8@@@Nan@@@Z 00000001800022b0 f i node-expat.obj
 0001:000013a0       ?Stop@Parser@@KAXAEBV?$FunctionCallbackInfo@VValue@v8@@@Nan@@@Z 00000001800023a0 f i node-expat.obj
 0001:00001460       ?Resume@Parser@@KAXAEBV?$FunctionCallbackInfo@VValue@v8@@@Nan@@@Z 0000000180002460 f i node-expat.obj
 0001:000015b0       ?Reset@Parser@@KAXAEBV?$FunctionCallbackInfo@VValue@v8@@@Nan@@@Z 00000001800025b0 f i node-expat.obj
 0001:00001850       ?GetCurrentLineNumber@Parser@@KAXAEBV?$FunctionCallbackInfo@VValue@v8@@@Nan@@@Z 0000000180002850 f i node-expat.obj
 0001:00001980       ?GetCurrentColumnNumber@Parser@@KAXAEBV?$FunctionCallbackInfo@VValue@v8@@@Nan@@@Z 0000000180002980 f i node-expat.obj
 0001:00001ab0       ?GetCurrentByteIndex@Parser@@KAXAEBV?$FunctionCallbackInfo@VValue@v8@@@Nan@@@Z 0000000180002ab0 f i node-expat.obj
 0001:00001bb0       ?StartElement@Parser@@CAXPEAXPEBDPEAPEBD@Z 0000000180002bb0 f i node-expat.obj
 0001:00001e10       ?EndElement@Parser@@CAXPEAXPEBD@Z 0000000180002e10 f i node-expat.obj
 0001:00001ee0       ?StartCdata@Parser@@CAXPEAX@Z 0000000180002ee0 f i node-expat.obj
 0001:00001f60       ?EndCdata@Parser@@CAXPEAX@Z 0000000180002f60 f i node-expat.obj
 0001:00001fe0       ?Text@Parser@@CAXPEAXPEBDH@Z 0000000180002fe0 f i node-expat.obj
 0001:000020c0       ?ProcessingInstruction@Parser@@CAXPEAXPEBD1@Z 00000001800030c0 f i node-expat.obj
 0001:000021e0       ?Comment@Parser@@CAXPEAXPEBD@Z 00000001800031e0 f i node-expat.obj
 0001:000022b0       ?XmlDecl@Parser@@CAXPEAXPEBD1H@Z 00000001800032b0 f i node-expat.obj
 0001:00002420       ?EntityDecl@Parser@@CAXPEAXPEBDH1H1111@Z 0000000180003420 f i node-expat.obj
 0001:000026b0       ?UnknownEncoding@Parser@@CAHPEAXPEBDPEAUXML_Encoding@@@Z 00000001800036b0 f i node-expat.obj
 0001:000027b0       ?SetUnknownEncoding@Parser@@CAXAEBV?$FunctionCallbackInfo@VValue@v8@@@Nan@@@Z 00000001800037b0 f i node-expat.obj
 0001:000029f0       ?Emit@Parser@@AEAAXHQEAV?$Local@VValue@v8@@@v8@@@Z 00000001800039f0 f i node-expat.obj
 0001:00002ac0       ??_EParser@@MEAAPEAXI@Z    0000000180003ac0 f i * CIL library *:* CIL module *
 0001:00002ac0       ??_GParser@@MEAAPEAXI@Z    0000000180003ac0 f i node-expat.obj
 0001:00002b80       ??$Unwrap@VParser@@@ObjectWrap@Nan@@SAPEAVParser@@V?$Local@VObject@v8@@@v8@@@Z 0000000180003b80 f i node-expat.obj
 0001:00002c60       __local_stdio_printf_options 0000000180003c60 f i libexpat:xmlparse.obj
 0001:00002c70       fprintf                    0000000180003c70 f i libexpat:xmlparse.obj
 0001:00003750       XML_ParserFree             0000000180004750 f   libexpat:xmlparse.obj
 0001:00003970       XML_ParseBuffer            0000000180004970 f   libexpat:xmlparse.obj
 0001:00003ad0       XML_GetBuffer              0000000180004ad0 f   libexpat:xmlparse.obj
 0001:00017a00       XmlUtf8Encode              0000000180018a00 f   libexpat:xmltok.obj
 0001:00017e60       XmlInitUnknownEncoding     0000000180018e60 f   libexpat:xmltok.obj
 0001:00018530       XmlInitEncoding            0000000180019530 f   libexpat:xmltok.obj
 0001:00018700       XmlParseXmlDecl            0000000180019700 f   libexpat:xmltok.obj
 0001:00018a90       XmlInitEncodingNS          0000000180019a90 f   libexpat:xmltok.obj
 0001:00018c60       XmlParseXmlDeclNS          0000000180019c60 f   libexpat:xmltok.obj
 0001:00018cd0       XmlInitUnknownEncodingNS   0000000180019cd0 f   libexpat:xmltok.obj
 0001:0001a88a       __imp_load_?Value@External@v8@@QEBAPEAXXZ 000000018001b88a f   node:node.exe
 0001:0001a896       __tailMerge_node_exe       000000018001b896     node:node.exe
 0001:0001a90f       __imp_load_?New@External@v8@@SA?AV?$Local@VExternal@v8@@@2@PEAVIsolate@2@PEAX@Z 000000018001b90f f   node:node.exe
 0001:0001a91b       __imp_load_?NewFromUnsigned@Integer@v8@@SA?AV?$Local@VInteger@v8@@@2@PEAVIsolate@2@I@Z 000000018001b91b f   node:node.exe
 0001:0001a927       __imp_load_?New@Integer@v8@@SA?AV?$Local@VInteger@v8@@@2@PEAVIsolate@2@H@Z 000000018001b927 f   node:node.exe
 0001:0001a933       __imp_load_?New@Signature@v8@@SA?AV?$Local@VSignature@v8@@@2@PEAVIsolate@2@V?$Local@VFunctionTemplate@v8@@@2@@Z 000000018001b933 f   node:node.exe
 0001:0001a93f       __imp_load_?ThrowException@Isolate@v8@@QEAA?AV?$Local@VValue@v8@@@2@V32@@Z 000000018001b93f f   node:node.exe
 0001:0001a94b       __imp_load_?GetCurrentContext@Isolate@v8@@QEAA?AV?$Local@VContext@v8@@@2@XZ 000000018001b94b f   node:node.exe
 0001:0001a957       __imp_load_?GetCurrent@Isolate@v8@@SAPEAV12@XZ 000000018001b957 f   node:node.exe
 0001:0001a963       __imp_load_?CreateHandle@HandleScope@v8@@KAPEAPEAVObject@internal@2@PEAVIsolate@42@PEAV342@@Z 000000018001b963 f   node:node.exe
 0001:0001a96f       __imp_load_?CreateHandle@HandleScope@v8@@CAPEAPEAVObject@internal@2@PEAVNeverReadOnlySpaceObject@42@PEAV342@@Z 000000018001b96f f   node:node.exe
 0001:0001a97b       __imp_load_??1HandleScope@v8@@QEAA@XZ 000000018001b97b f   node:node.exe
 0001:0001a987       __imp_load_??0HandleScope@v8@@QEAA@PEAVIsolate@1@@Z 000000018001b987 f   node:node.exe
 0001:0001a993       __imp_load_?Set@Template@v8@@QEAAXV?$Local@VName@v8@@@2@V?$Local@VData@v8@@@2@W4PropertyAttribute@2@@Z 000000018001b993 f   node:node.exe
 0001:0001a99f       __imp_load_?Error@Exception@v8@@SA?AV?$Local@VValue@v8@@@2@V?$Local@VString@v8@@@2@@Z 000000018001b99f f   node:node.exe
 0001:0001a9ab       __imp_load_?TypeError@Exception@v8@@SA?AV?$Local@VValue@v8@@@2@V?$Local@VString@v8@@@2@@Z 000000018001b9ab f   node:node.exe
 0001:0001a9b7       __imp_load_?SetClassName@FunctionTemplate@v8@@QEAAXV?$Local@VString@v8@@@2@@Z 000000018001b9b7 f   node:node.exe
 0001:0001a9c3       __imp_load_?PrototypeTemplate@FunctionTemplate@v8@@QEAA?AV?$Local@VObjectTemplate@v8@@@2@XZ 000000018001b9c3 f   node:node.exe
 0001:0001a9cf       __imp_load_?InstanceTemplate@FunctionTemplate@v8@@QEAA?AV?$Local@VObjectTemplate@v8@@@2@XZ 000000018001b9cf f   node:node.exe
 0001:0001a9db       __imp_load_?GetFunction@FunctionTemplate@v8@@QEAA?AV?$Local@VFunction@v8@@@2@XZ 000000018001b9db f   node:node.exe
 0001:0001a9e7       __imp_load_?New@FunctionTemplate@v8@@SA?AV?$Local@VFunctionTemplate@v8@@@2@PEAVIsolate@2@P6AXAEBV?$FunctionCallbackInfo@VValue@v8@@@2@@ZV?$Local@VValue@v8@@@2@V?$Local@VSignature@v8@@@2@HW4ConstructorBehavior@2@W4SideEffectType@2@@Z 000000018001b9e7 f   node:node.exe
 0001:0001a9f3       __imp_load_?ToLocalEmpty@V8@v8@@CAXXZ 000000018001b9f3 f   node:node.exe
 0001:0001a9ff       __imp_load_?ClearWeak@V8@v8@@CAPEAXPEAPEAVObject@internal@2@@Z 000000018001b9ff f   node:node.exe
 0001:0001aa0b       __imp_load_?MakeWeak@V8@v8@@CAXPEAPEAVObject@internal@2@PEAXP6AXAEBV?$WeakCallbackInfo@X@2@@ZW4WeakCallbackType@2@@Z 000000018001ba0b f   node:node.exe
 0001:0001aa17       __imp_load_?DisposeGlobal@V8@v8@@CAXPEAPEAVObject@internal@2@@Z 000000018001ba17 f   node:node.exe
 0001:0001aa23       __imp_load_?GlobalizeReference@V8@v8@@CAPEAPEAVObject@internal@2@PEAVIsolate@42@PEAPEAV342@@Z 000000018001ba23 f   node:node.exe
 0001:0001aa2f       __imp_load_?Int32Value@Value@v8@@QEBAHXZ 000000018001ba2f f   node:node.exe
 0001:0001aa3b       __imp_load_?ToInt32@Value@v8@@QEBA?AV?$MaybeLocal@VInt32@v8@@@2@V?$Local@VContext@v8@@@2@@Z 000000018001ba3b f   node:node.exe
 0001:0001aa47       __imp_load_?ToUint32@Value@v8@@QEBA?AV?$MaybeLocal@VUint32@v8@@@2@V?$Local@VContext@v8@@@2@@Z 000000018001ba47 f   node:node.exe
 0001:0001aa53       __imp_load_?ToString@Value@v8@@QEBA?AV?$MaybeLocal@VString@v8@@@2@V?$Local@VContext@v8@@@2@@Z 000000018001ba53 f   node:node.exe
 0001:0001aa5f       __imp_load_?IsInt32@Value@v8@@QEBA_NXZ 000000018001ba5f f   node:node.exe
 0001:0001aa6b       __imp_load_?IsObject@Value@v8@@QEBA_NXZ 000000018001ba6b f   node:node.exe
 0001:0001aa77       __imp_load_?IsArray@Value@v8@@QEBA_NXZ 000000018001ba77 f   node:node.exe
 0001:0001aa83       __imp_load_?IsTrue@Value@v8@@QEBA_NXZ 000000018001ba83 f   node:node.exe
 0001:0001aa8f       __imp_load_?Escape@EscapableHandleScope@v8@@AEAAPEAPEAVObject@internal@2@PEAPEAV342@@Z 000000018001ba8f f   node:node.exe
 0001:0001aa9b       __imp_load_??0EscapableHandleScope@v8@@QEAA@PEAVIsolate@1@@Z 000000018001ba9b f   node:node.exe
 0001:0001aaa7       __imp_load_?NewFromUtf8@String@v8@@SA?AV?$MaybeLocal@VString@v8@@@2@PEAVIsolate@2@PEBDW4NewStringType@2@H@Z 000000018001baa7 f   node:node.exe
 0001:0001aab3       __imp_load_?WriteUtf8@String@v8@@QEBAHPEAVIsolate@2@PEADHPEAHH@Z 000000018001bab3 f   node:node.exe
 0001:0001aabf       __imp_load_?WriteUtf8@String@v8@@QEBAHPEADHPEAHH@Z 000000018001babf f   node:node.exe
 0001:0001aacb       __imp_load_?Utf8Length@String@v8@@QEBAHXZ 000000018001bacb f   node:node.exe
 0001:0001aad7       __imp_load_?Length@String@v8@@QEBAHXZ 000000018001bad7 f   node:node.exe
 0001:0001aae3       __imp_load_?SlowGetAlignedPointerFromInternalField@Object@v8@@AEAAPEAXH@Z 000000018001bae3 f   node:node.exe
 0001:0001aaef       __imp_load_?SlowGetInternalField@Object@v8@@AEAA?AV?$Local@VValue@v8@@@2@H@Z 000000018001baef f   node:node.exe
 0001:0001aafb       __imp_load_?New@Object@v8@@SA?AV?$Local@VObject@v8@@@2@PEAVIsolate@2@@Z 000000018001bafb f   node:node.exe
 0001:0001ab07       __imp_load_?SetAlignedPointerInInternalField@Object@v8@@QEAAXHPEAX@Z 000000018001bb07 f   node:node.exe
 0001:0001ab13       __imp_load_?SetInternalField@Object@v8@@QEAAXHV?$Local@VValue@v8@@@2@@Z 000000018001bb13 f   node:node.exe
 0001:0001ab1f       __imp_load_?InternalFieldCount@Object@v8@@QEAAHXZ 000000018001bb1f f   node:node.exe
 0001:0001ab2b       __imp_load_?Get@Object@v8@@QEAA?AV?$Local@VValue@v8@@@2@V32@@Z 000000018001bb2b f   node:node.exe
 0001:0001ab37       __imp_load_?Set@Object@v8@@QEAA_NV?$Local@VValue@v8@@@2@0@Z 000000018001bb37 f   node:node.exe
 0001:0001ab43       __imp_load_?Call@Function@v8@@QEAA?AV?$Local@VValue@v8@@@2@V32@HQEAV32@@Z 000000018001bb43 f   node:node.exe
 0001:0001ab4f       __imp_load_?SetInternalFieldCount@ObjectTemplate@v8@@QEAAXH@Z 000000018001bb4f f   node:node.exe
 0001:0001ab5b       __imp_load_?NewInstance@ObjectTemplate@v8@@QEAA?AV?$MaybeLocal@VObject@v8@@@2@V?$Local@VContext@v8@@@2@@Z 000000018001bb5b f   node:node.exe
 0001:0001ab67       __imp_load_?New@ObjectTemplate@v8@@SA?AV?$Local@VObjectTemplate@v8@@@2@PEAVIsolate@2@V?$Local@VFunctionTemplate@v8@@@2@@Z 000000018001bb67 f   node:node.exe
 0001:0001ab73       __imp_load_node_module_register 000000018001bb73 f   node:node.exe
 0001:0001ab7f       __imp_load_?HasInstance@Buffer@node@@YA_NV?$Local@VObject@v8@@@v8@@@Z 000000018001bb7f f   node:node.exe
 0001:0001ab8b       __imp_load_?Data@Buffer@node@@YAPEADV?$Local@VObject@v8@@@v8@@@Z 000000018001bb8b f   node:node.exe
 0001:0001ab97       __imp_load_?Length@Buffer@node@@YA_KV?$Local@VObject@v8@@@v8@@@Z 000000018001bb97 f   node:node.exe
 0001:0001aba3       __imp_load_?ToObject@Value@v8@@QEBA?AV?$Local@VObject@v8@@@2@XZ 000000018001bba3 f   node:node.exe
 0001:0001abaf       __imp_load_?ToString@Value@v8@@QEBA?AV?$Local@VString@v8@@@2@XZ 000000018001bbaf f   node:node.exe
 0001:0001abd0       __security_check_cookie    000000018001bbd0 f   LIBCMT:amdsecgs.obj
 0001:0001abf4       ??_V@YAXPEAX@Z             000000018001bbf4 f   LIBCMT:delete_array.obj
 0001:0001abf4       ??3@YAXPEAX_K@Z            000000018001bbf4 f   LIBCMT:delete_scalar_size.obj
 0001:0001abfc       ??2@YAPEAX_K@Z             000000018001bbfc f   LIBCMT:new_scalar.obj
 0001:0001ac38       ??_U@YAPEAX_K@Z            000000018001bc38 f   LIBCMT:new_array.obj
 0001:0001af70       _DllMainCRTStartup         000000018001bf70 f   LIBCMT:dll_dllmain.obj
 0001:0001afb0       __raise_securityfailure    000000018001bfb0 f   LIBCMT:gs_report.obj
 0001:0001afe4       __report_gsfailure         000000018001bfe4 f   LIBCMT:gs_report.obj
 0001:0001b0b8       __report_rangecheckfailure 000000018001c0b8 f   LIBCMT:gs_report.obj
 0001:0001b0cc       __report_securityfailure   000000018001c0cc f   LIBCMT:gs_report.obj
 0001:0001b24c       ??3@YAXPEAX@Z              000000018001c24c f   LIBCMT:delete_scalar.obj
 0001:0001b254       ??0bad_alloc@std@@QEAA@AEBV01@@Z 000000018001c254 f i LIBCMT:throw_bad_alloc.obj
 0001:0001b294       ??0bad_alloc@std@@QEAA@XZ  000000018001c294 f i LIBCMT:throw_bad_alloc.obj
 0001:0001b2b4       ??0bad_array_new_length@std@@QEAA@AEBV01@@Z 000000018001c2b4 f i LIBCMT:throw_bad_alloc.obj
 0001:0001b2f4       ??0bad_array_new_length@std@@QEAA@XZ 000000018001c2f4 f i LIBCMT:throw_bad_alloc.obj
 0001:0001b314       ??0exception@std@@QEAA@AEBV01@@Z 000000018001c314 f i LIBCMT:throw_bad_alloc.obj
 0001:0001b34c       ??1bad_alloc@std@@UEAA@XZ  000000018001c34c f i LIBCMT:throw_bad_alloc.obj
 0001:0001b34c       ??1bad_array_new_length@std@@UEAA@XZ 000000018001c34c f i LIBCMT:throw_bad_alloc.obj
 0001:0001b360       ??_Eexception@std@@UEAAPEAXI@Z 000000018001c360 f i LIBCMT:throw_bad_alloc.obj
 0001:0001b360       ??_Ebad_alloc@std@@UEAAPEAXI@Z 000000018001c360 f i LIBCMT:throw_bad_alloc.obj
 0001:0001b360       ??_Gexception@std@@UEAAPEAXI@Z 000000018001c360 f i LIBCMT:throw_bad_alloc.obj
 0001:0001b360       ??_Gbad_array_new_length@std@@UEAAPEAXI@Z 000000018001c360 f i LIBCMT:throw_bad_alloc.obj
 0001:0001b360       ??_Gbad_alloc@std@@UEAAPEAXI@Z 000000018001c360 f i LIBCMT:throw_bad_alloc.obj
 0001:0001b360       ??_Ebad_array_new_length@std@@UEAAPEAXI@Z 000000018001c360 f i LIBCMT:throw_bad_alloc.obj
 0001:0001b3a4       ?__scrt_throw_std_bad_alloc@@YAXXZ 000000018001c3a4 f   LIBCMT:throw_bad_alloc.obj
 0001:0001b3c4       ?__scrt_throw_std_bad_array_new_length@@YAXXZ 000000018001c3c4 f   LIBCMT:throw_bad_alloc.obj
 0001:0001b3e4       ?what@exception@std@@UEBAPEBDXZ 000000018001c3e4 f i LIBCMT:throw_bad_alloc.obj
 0001:0001b3f8       __security_init_cookie     000000018001c3f8 f   LIBCMT:gs_support.obj
 0001:0001b4a4       DllMain                    000000018001c4a4 f   LIBCMT:dll_dllmain_stub.obj
 0001:0001b4a4       _get_startup_argv_mode     000000018001c4a4 f   LIBCMT:argv_mode.obj
 0001:0001b4ac       ?__scrt_initialize_type_info@@YAXXZ 000000018001c4ac f   LIBCMT:tncleanup.obj
 0001:0001b4bc       ?__scrt_uninitialize_type_info@@YAXXZ 000000018001c4bc f   LIBCMT:tncleanup.obj
 0001:0001b4c8       __local_stdio_scanf_options 000000018001c4c8 f i LIBCMT:default_local_stdio_options.obj
 0001:0001b4d0       __scrt_initialize_default_local_stdio_options 000000018001c4d0 f   LIBCMT:default_local_stdio_options.obj
 0001:0001b4ec       __scrt_acquire_startup_lock 000000018001c4ec f   LIBCMT:utility.obj
 0001:0001b528       __scrt_dllmain_after_initialize_c 000000018001c528 f   LIBCMT:utility.obj
 0001:0001b55c       __scrt_dllmain_before_initialize_c 000000018001c55c f   LIBCMT:utility.obj
 0001:0001b574       __scrt_dllmain_crt_thread_attach 000000018001c574 f   LIBCMT:utility.obj
 0001:0001b59c       __scrt_dllmain_crt_thread_detach 000000018001c59c f   LIBCMT:utility.obj
 0001:0001b5b4       __scrt_dllmain_exception_filter 000000018001c5b4 f   LIBCMT:utility.obj
 0001:0001b614       __scrt_dllmain_uninitialize_c 000000018001c614 f   LIBCMT:utility.obj
 0001:0001b644       __scrt_dllmain_uninitialize_critical 000000018001c644 f   LIBCMT:utility.obj
 0001:0001b658       __scrt_initialize_crt      000000018001c658 f   LIBCMT:utility.obj
 0001:0001b6a4       __scrt_initialize_onexit_tables 000000018001c6a4 f   LIBCMT:utility.obj
 0001:0001b77c       __scrt_is_nonwritable_in_current_image 000000018001c77c f   LIBCMT:utility.obj
 0001:0001b818       __scrt_release_startup_lock 000000018001c818 f   LIBCMT:utility.obj
 0001:0001b83c       __scrt_uninitialize_crt    000000018001c83c f   LIBCMT:utility.obj
 0001:0001b868       __scrt_get_dyn_tls_init_callback 000000018001c868 f   LIBCMT:dyn_tls_init.obj
 0001:0001b870       __crt_debugger_hook        000000018001c870 f   LIBCMT:utility_desktop.obj
 0001:0001b878       __scrt_fastfail            000000018001c878 f   LIBCMT:utility_desktop.obj
 0001:0001b9c4       _RTC_Initialize            000000018001c9c4 f   LIBCMT:initsect.obj
 0001:0001ba00       _RTC_Terminate             000000018001ca00 f   LIBCMT:initsect.obj
 0001:0001ba3c       _guard_check_icall_nop     000000018001ca3c f i LIBCMT:guard_support.obj
 0001:0001ba40       ??_Gtype_info@@UEAAPEAXI@Z 000000018001ca40 f i LIBCMT:std_type_info_static.obj
 0001:0001ba40       ??_Etype_info@@UEAAPEAXI@Z 000000018001ca40 f i LIBCMT:std_type_info_static.obj
 0001:0001ba6c       __isa_available_init       000000018001ca6c f   LIBCMT:cpu_disp.obj
 0001:0001bc28       __scrt_is_ucrt_dll_in_use  000000018001cc28 f   LIBCMT:ucrt_detection.obj
 0001:0001bc40       __C_specific_handler       000000018001cc40 f   libvcruntime:riscchandler.obj
 0001:0001be4c       __std_exception_copy       000000018001ce4c f   libvcruntime:std_exception.obj
 0001:0001bedc       __std_exception_destroy    000000018001cedc f   libvcruntime:std_exception.obj
 0001:0001bf04       _CxxThrowException         000000018001cf04 f   libvcruntime:throw.obj
 0001:0001bfc4       __std_type_info_destroy_list 000000018001cfc4 f   libvcruntime:std_type_info.obj
 0001:0001bff0       __vcrt_initialize          000000018001cff0 f   libvcruntime:initialization.obj
 0001:0001c024       __vcrt_thread_attach       000000018001d024 f   libvcruntime:initialization.obj
 0001:0001c038       __vcrt_thread_detach       000000018001d038 f   libvcruntime:initialization.obj
 0001:0001c04c       __vcrt_uninitialize        000000018001d04c f   libvcruntime:initialization.obj
 0001:0001c06c       __vcrt_uninitialize_critical 000000018001d06c f   libvcruntime:initialization.obj
 0001:0001c090       memset_repmovs             000000018001d090 f   libvcruntime:memset.obj
 0001:0001c0b0       memset                     000000018001d0b0 f   libvcruntime:memset.obj
 0001:0001c250       _NLG_Notify                000000018001d250 f   libvcruntime:notify.obj
 0001:0001c270       __NLG_Dispatch2            000000018001d270 f   libvcruntime:notify.obj
 0001:0001c280       __NLG_Return2              000000018001d280 f   libvcruntime:notify.obj
 0001:0001c284       __except_validate_context_record 000000018001d284 f   libvcruntime:jbcxrval.obj
 0001:0001c2bc       __DestructExceptionObject  000000018001d2bc f   libvcruntime:ehhelpers.obj
 0001:0001c330       ?_CallMemberFunction0@@YAXQEAX0@Z 000000018001d330 f i libvcruntime:ehhelpers.obj
 0001:0001c334       __vcrt_freefls             000000018001d334 f   libvcruntime:per_thread_data.obj
 0001:0001c354       __vcrt_freeptd             000000018001d354 f   libvcruntime:per_thread_data.obj
 0001:0001c3a4       __vcrt_getptd_noexit       000000018001d3a4 f   libvcruntime:per_thread_data.obj
 0001:0001c470       __vcrt_initialize_ptd      000000018001d470 f   libvcruntime:per_thread_data.obj
 0001:0001c4c4       __vcrt_uninitialize_ptd    000000018001d4c4 f   libvcruntime:per_thread_data.obj
 0001:0001c4e8       __vcrt_initialize_locks    000000018001d4e8 f   libvcruntime:locks.obj
 0001:0001c530       __vcrt_uninitialize_locks  000000018001d530 f   libvcruntime:locks.obj
 0001:0001c740       __vcrt_FlsAlloc            000000018001d740 f   libvcruntime:winapi_downlevel.obj
 0001:0001c788       __vcrt_FlsFree             000000018001d788 f   libvcruntime:winapi_downlevel.obj
 0001:0001c7d0       __vcrt_FlsGetValue         000000018001d7d0 f   libvcruntime:winapi_downlevel.obj
 0001:0001c818       __vcrt_FlsSetValue         000000018001d818 f   libvcruntime:winapi_downlevel.obj
 0001:0001c86c       __vcrt_InitializeCriticalSectionEx 000000018001d86c f   libvcruntime:winapi_downlevel.obj
 0001:0001c8d0       __vcrt_initialize_winapi_thunks 000000018001d8d0 f   libvcruntime:winapi_downlevel.obj
 0001:0001c900       __vcrt_uninitialize_winapi_thunks 000000018001d900 f   libvcruntime:winapi_downlevel.obj
 0001:0001c940       __vcrt_initialize_pure_virtual_call_handler 000000018001d940 f   libvcruntime:purevirt_data.obj
 0001:0001c960       memcpy_repmovs             000000018001d960 f   libvcruntime:memcpy.obj
 0001:0001c980       memmove                    000000018001d980 f   libvcruntime:memcpy.obj
 0001:0001c980       memcpy                     000000018001d980 f   libvcruntime:memcpy.obj
 0001:0001cdd0       _CallSettingFrame          000000018001ddd0 f   libvcruntime:handlers.obj
 0001:0001ce20       _CallSettingFrameEncoded   000000018001de20 f   libvcruntime:handlers.obj
 0001:0001ce68       free                       000000018001de68 f   libucrt:free.obj
 0001:0001d594       ??$ftprintf@PEAU_iobuf@@PEB_WAEBQEB_WAEBQEB_WAEBI@?$__crt_char_traits@_W@@SAH$$QEAPEAU_iobuf@@$$QEAPEB_WAEBQEB_W2AEBI@Z 000000018001e594 f i libucrt:assert.obj
 0001:0001d5bc       _wassert                   000000018001e5bc f   libucrt:assert.obj
 0001:0001d630       fwprintf                   000000018001e630 f i libucrt:assert.obj
 0001:0001d674       swprintf                   000000018001e674 f i libucrt:assert.obj
 0001:0001d6c8       malloc                     000000018001e6c8 f   libucrt:malloc.obj
 0001:0001d6d0       ??0_LocaleUpdate@@QEAA@QEAU__crt_locale_pointers@@@Z 000000018001e6d0 f i libucrt:stricmp.obj
 0001:0001d76c       __ascii_stricmp            000000018001e76c f   libucrt:stricmp.obj
 0001:0001d7ac       _stricmp                   000000018001e7ac f   libucrt:stricmp.obj
 0001:0001d7f4       _stricmp_l                 000000018001e7f4 f   libucrt:stricmp.obj
 0001:0001d8a8       __acrt_initialize_stdio    000000018001e8a8 f   libucrt:_file.obj
 0001:0001d9c8       __acrt_iob_func            000000018001e9c8 f   libucrt:_file.obj
 0001:0001d9dc       __acrt_uninitialize_stdio  000000018001e9dc f   libucrt:_file.obj
 0001:0001da38       _lock_file                 000000018001ea38 f   libucrt:_file.obj
 0001:0001da44       _unlock_file               000000018001ea44 f   libucrt:_file.obj
 0001:0001da50       realloc                    000000018001ea50 f   libucrt:realloc.obj
 0001:0001dcac       ??$ensure_buffer_is_big_enough@D@formatting_buffer@__crt_stdio_output@@QEAA_N_K@Z 000000018001ecac f i libucrt:output.obj
 0001:0001dd54       ??$ensure_buffer_is_big_enough@_W@formatting_buffer@__crt_stdio_output@@QEAA_N_K@Z 000000018001ed54 f i libucrt:output.obj
 0001:0001de00       ??$is_wide_character_specifier@_W@__crt_stdio_output@@YA_N_K_WW4length_modifier@0@@Z 000000018001ee00 f i libucrt:output.obj
 0001:0001de40       ??$type_case_integer_parse_into_buffer@I@?$output_processor@DV?$stream_output_adapter@D@__crt_stdio_output@@V?$standard_base@DV?$stream_output_adapter@D@__crt_stdio_output@@@2@@__crt_stdio_output@@AEAAXII_N@Z 000000018001ee40 f i libucrt:output.obj
 0001:0001ded0       ??$type_case_integer_parse_into_buffer@I@?$output_processor@_WV?$string_output_adapter@_W@__crt_stdio_output@@V?$standard_base@_WV?$string_output_adapter@_W@__crt_stdio_output@@@2@@__crt_stdio_output@@AEAAXII_N@Z 000000018001eed0 f i libucrt:output.obj
 0001:0001ded0       ??$type_case_integer_parse_into_buffer@I@?$output_processor@_WV?$stream_output_adapter@_W@__crt_stdio_output@@V?$standard_base@_WV?$stream_output_adapter@_W@__crt_stdio_output@@@2@@__crt_stdio_output@@AEAAXII_N@Z 000000018001eed0 f i libucrt:output.obj
 0001:0001df74       ??$type_case_integer_parse_into_buffer@_K@?$output_processor@DV?$stream_output_adapter@D@__crt_stdio_output@@V?$standard_base@DV?$stream_output_adapter@D@__crt_stdio_output@@@2@@__crt_stdio_output@@AEAAX_KI_N@Z 000000018001ef74 f i libucrt:output.obj
 0001:0001e008       ??$type_case_integer_parse_into_buffer@_K@?$output_processor@_WV?$stream_output_adapter@_W@__crt_stdio_output@@V?$standard_base@_WV?$stream_output_adapter@_W@__crt_stdio_output@@@2@@__crt_stdio_output@@AEAAX_KI_N@Z 000000018001f008 f i libucrt:output.obj
 0001:0001e008       ??$type_case_integer_parse_into_buffer@_K@?$output_processor@_WV?$string_output_adapter@_W@__crt_stdio_output@@V?$standard_base@_WV?$string_output_adapter@_W@__crt_stdio_output@@@2@@__crt_stdio_output@@AEAAX_KI_N@Z 000000018001f008 f i libucrt:output.obj
 0001:0001e0ac       ??$write_multiple_characters@V?$stream_output_adapter@D@__crt_stdio_output@@D@__crt_stdio_output@@YAXAEBV?$stream_output_adapter@D@0@DHQEAH@Z 000000018001f0ac f i libucrt:output.obj
 0001:0001e138       ??$write_multiple_characters@V?$stream_output_adapter@_W@__crt_stdio_output@@D@__crt_stdio_output@@YAXAEBV?$stream_output_adapter@_W@0@DHQEAH@Z 000000018001f138 f i libucrt:output.obj
 0001:0001e1cc       ??$write_multiple_characters@V?$string_output_adapter@_W@__crt_stdio_output@@D@__crt_stdio_output@@YAXAEBV?$string_output_adapter@_W@0@DHQEAH@Z 000000018001f1cc f i libucrt:output.obj
 0001:0001e4ac       ?crop_zeroes@__crt_stdio_output@@YAXPEADQEAU__crt_locale_pointers@@@Z 000000018001f4ac f i libucrt:output.obj
 0001:0001e518       ?force_decimal_point@__crt_stdio_output@@YAXPEADQEAU__crt_locale_pointers@@@Z 000000018001f518 f i libucrt:output.obj
 0001:0001e588       ?parse_int_from_format_string@?$output_processor@DV?$stream_output_adapter@D@__crt_stdio_output@@V?$standard_base@DV?$stream_output_adapter@D@__crt_stdio_output@@@2@@__crt_stdio_output@@AEAA_NQEAH@Z 000000018001f588 f i libucrt:output.obj
 0001:0001e62c       ?parse_int_from_format_string@?$output_processor@_WV?$string_output_adapter@_W@__crt_stdio_output@@V?$standard_base@_WV?$string_output_adapter@_W@__crt_stdio_output@@@2@@__crt_stdio_output@@AEAA_NQEAH@Z 000000018001f62c f i libucrt:output.obj
 0001:0001e62c       ?parse_int_from_format_string@?$output_processor@_WV?$stream_output_adapter@_W@__crt_stdio_output@@V?$standard_base@_WV?$stream_output_adapter@_W@__crt_stdio_output@@@2@@__crt_stdio_output@@AEAA_NQEAH@Z 000000018001f62c f i libucrt:output.obj
 0001:0001e6d0       ?process@?$output_processor@DV?$stream_output_adapter@D@__crt_stdio_output@@V?$standard_base@DV?$stream_output_adapter@D@__crt_stdio_output@@@2@@__crt_stdio_output@@QEAAHXZ 000000018001f6d0 f i libucrt:output.obj
 0001:0001e8e8       ?process@?$output_processor@_WV?$stream_output_adapter@_W@__crt_stdio_output@@V?$standard_base@_WV?$stream_output_adapter@_W@__crt_stdio_output@@@2@@__crt_stdio_output@@QEAAHXZ 000000018001f8e8 f i libucrt:output.obj
 0001:0001eb54       ?process@?$output_processor@_WV?$string_output_adapter@_W@__crt_stdio_output@@V?$standard_base@_WV?$string_output_adapter@_W@__crt_stdio_output@@@2@@__crt_stdio_output@@QEAAHXZ 000000018001fb54 f i libucrt:output.obj
 0001:0001edd0       ?state_case_normal@?$output_processor@DV?$stream_output_adapter@D@__crt_stdio_output@@V?$standard_base@DV?$stream_output_adapter@D@__crt_stdio_output@@@2@@__crt_stdio_output@@AEAA_NXZ 000000018001fdd0 f i libucrt:output.obj
 0001:0001ee40       ?state_case_normal_tchar@?$output_processor@DV?$stream_output_adapter@D@__crt_stdio_output@@V?$standard_base@DV?$stream_output_adapter@D@__crt_stdio_output@@@2@@__crt_stdio_output@@AEAA_ND@Z 000000018001fe40 f i libucrt:output.obj
 0001:0001eee4       ?state_case_size@?$output_processor@DV?$stream_output_adapter@D@__crt_stdio_output@@V?$standard_base@DV?$stream_output_adapter@D@__crt_stdio_output@@@2@@__crt_stdio_output@@AEAA_NXZ 000000018001fee4 f i libucrt:output.obj
 0001:0001f058       ?state_case_size@?$output_processor@_WV?$stream_output_adapter@_W@__crt_stdio_output@@V?$standard_base@_WV?$stream_output_adapter@_W@__crt_stdio_output@@@2@@__crt_stdio_output@@AEAA_NXZ 0000000180020058 f i libucrt:output.obj
 0001:0001f1f0       ?state_case_size@?$output_processor@_WV?$string_output_adapter@_W@__crt_stdio_output@@V?$standard_base@_WV?$string_output_adapter@_W@__crt_stdio_output@@@2@@__crt_stdio_output@@AEAA_NXZ 00000001800201f0 f i libucrt:output.obj
 0001:0001f388       ?state_case_type@?$output_processor@DV?$stream_output_adapter@D@__crt_stdio_output@@V?$standard_base@DV?$stream_output_adapter@D@__crt_stdio_output@@@2@@__crt_stdio_output@@AEAA_NXZ 0000000180020388 f i libucrt:output.obj
 0001:0001f60c       ?state_case_type@?$output_processor@_WV?$stream_output_adapter@_W@__crt_stdio_output@@V?$standard_base@_WV?$stream_output_adapter@_W@__crt_stdio_output@@@2@@__crt_stdio_output@@AEAA_NXZ 000000018002060c f i libucrt:output.obj
 0001:0001f8ec       ?state_case_type@?$output_processor@_WV?$string_output_adapter@_W@__crt_stdio_output@@V?$standard_base@_WV?$string_output_adapter@_W@__crt_stdio_output@@@2@@__crt_stdio_output@@AEAA_NXZ 00000001800208ec f i libucrt:output.obj
 0001:0001fbb8       ?type_case_Z@?$output_processor@DV?$stream_output_adapter@D@__crt_stdio_output@@V?$standard_base@DV?$stream_output_adapter@D@__crt_stdio_output@@@2@@__crt_stdio_output@@AEAA_NXZ 0000000180020bb8 f i libucrt:output.obj
 0001:0001fc30       ?type_case_Z@?$output_processor@_WV?$stream_output_adapter@_W@__crt_stdio_output@@V?$standard_base@_WV?$stream_output_adapter@_W@__crt_stdio_output@@@2@@__crt_stdio_output@@AEAA_NXZ 0000000180020c30 f i libucrt:output.obj
 0001:0001fc30       ?type_case_Z@?$output_processor@_WV?$string_output_adapter@_W@__crt_stdio_output@@V?$standard_base@_WV?$string_output_adapter@_W@__crt_stdio_output@@@2@@__crt_stdio_output@@AEAA_NXZ 0000000180020c30 f i libucrt:output.obj
 0001:0001fcac       ?type_case_a@?$output_processor@DV?$stream_output_adapter@D@__crt_stdio_output@@V?$standard_base@DV?$stream_output_adapter@D@__crt_stdio_output@@@2@@__crt_stdio_output@@AEAA_NXZ 0000000180020cac f i libucrt:output.obj
 0001:0001fe68       ?type_case_a@?$output_processor@_WV?$string_output_adapter@_W@__crt_stdio_output@@V?$standard_base@_WV?$string_output_adapter@_W@__crt_stdio_output@@@2@@__crt_stdio_output@@AEAA_NXZ 0000000180020e68 f i libucrt:output.obj
 0001:0001fe68       ?type_case_a@?$output_processor@_WV?$stream_output_adapter@_W@__crt_stdio_output@@V?$standard_base@_WV?$stream_output_adapter@_W@__crt_stdio_output@@@2@@__crt_stdio_output@@AEAA_NXZ 0000000180020e68 f i libucrt:output.obj
 0001:00020048       ?type_case_c_tchar@?$output_processor@DV?$stream_output_adapter@D@__crt_stdio_output@@V?$standard_base@DV?$stream_output_adapter@D@__crt_stdio_output@@@2@@__crt_stdio_output@@AEAA_ND@Z 0000000180021048 f i libucrt:output.obj
 0001:00020104       ?type_case_c_tchar@?$output_processor@_WV?$string_output_adapter@_W@__crt_stdio_output@@V?$standard_base@_WV?$string_output_adapter@_W@__crt_stdio_output@@@2@@__crt_stdio_output@@AEAA_N_W@Z 0000000180021104 f i libucrt:output.obj
 0001:00020104       ?type_case_c_tchar@?$output_processor@_WV?$stream_output_adapter@_W@__crt_stdio_output@@V?$standard_base@_WV?$stream_output_adapter@_W@__crt_stdio_output@@@2@@__crt_stdio_output@@AEAA_N_W@Z 0000000180021104 f i libucrt:output.obj
 0001:000201ac       ?type_case_integer@?$output_processor@DV?$stream_output_adapter@D@__crt_stdio_output@@V?$standard_base@DV?$stream_output_adapter@D@__crt_stdio_output@@@2@@__crt_stdio_output@@AEAA_NI_N@Z 00000001800211ac f i libucrt:output.obj
 0001:00020374       ?type_case_integer@?$output_processor@_WV?$stream_output_adapter@_W@__crt_stdio_output@@V?$standard_base@_WV?$stream_output_adapter@_W@__crt_stdio_output@@@2@@__crt_stdio_output@@AEAA_NI_N@Z 0000000180021374 f i libucrt:output.obj
 0001:00020374       ?type_case_integer@?$output_processor@_WV?$string_output_adapter@_W@__crt_stdio_output@@V?$standard_base@_WV?$string_output_adapter@_W@__crt_stdio_output@@@2@@__crt_stdio_output@@AEAA_NI_N@Z 0000000180021374 f i libucrt:output.obj
 0001:00020540       ?type_case_n@?$output_processor@DV?$stream_output_adapter@D@__crt_stdio_output@@V?$standard_base@DV?$stream_output_adapter@D@__crt_stdio_output@@@2@@__crt_stdio_output@@AEAA_NXZ 0000000180021540 f i libucrt:output.obj
 0001:00020540       ?type_case_n@?$output_processor@_WV?$string_output_adapter@_W@__crt_stdio_output@@V?$standard_base@_WV?$string_output_adapter@_W@__crt_stdio_output@@@2@@__crt_stdio_output@@AEAA_NXZ 0000000180021540 f i libucrt:output.obj
 0001:00020540       ?type_case_n@?$output_processor@_WV?$stream_output_adapter@_W@__crt_stdio_output@@V?$standard_base@_WV?$stream_output_adapter@_W@__crt_stdio_output@@@2@@__crt_stdio_output@@AEAA_NXZ 0000000180021540 f i libucrt:output.obj
 0001:0002061c       ?type_case_s@?$output_processor@DV?$stream_output_adapter@D@__crt_stdio_output@@V?$standard_base@DV?$stream_output_adapter@D@__crt_stdio_output@@@2@@__crt_stdio_output@@AEAA_NXZ 000000018002161c f i libucrt:output.obj
 0001:000206b4       ?type_case_s@?$output_processor@_WV?$stream_output_adapter@_W@__crt_stdio_output@@V?$standard_base@_WV?$stream_output_adapter@_W@__crt_stdio_output@@@2@@__crt_stdio_output@@AEAA_NXZ 00000001800216b4 f i libucrt:output.obj
 0001:000206b4       ?type_case_s@?$output_processor@_WV?$string_output_adapter@_W@__crt_stdio_output@@V?$standard_base@_WV?$string_output_adapter@_W@__crt_stdio_output@@@2@@__crt_stdio_output@@AEAA_NXZ 00000001800216b4 f i libucrt:output.obj
 0001:0002077c       ?validate_stream_is_ansi_if_required@?$__acrt_stdio_char_traits@D@@SA_NQEAU_iobuf@@@Z 000000018002177c f i libucrt:output.obj
 0001:00020818       ?write_stored_string_tchar@?$output_processor@DV?$stream_output_adapter@D@__crt_stdio_output@@V?$standard_base@DV?$stream_output_adapter@D@__crt_stdio_output@@@2@@__crt_stdio_output@@AEAA_ND@Z 0000000180021818 f i libucrt:output.obj
 0001:0002093c       ?write_stored_string_tchar@?$output_processor@_WV?$stream_output_adapter@_W@__crt_stdio_output@@V?$standard_base@_WV?$stream_output_adapter@_W@__crt_stdio_output@@@2@@__crt_stdio_output@@AEAA_N_W@Z 000000018002193c f i libucrt:output.obj
 0001:00020a44       ?write_stored_string_tchar@?$output_processor@_WV?$string_output_adapter@_W@__crt_stdio_output@@V?$standard_base@_WV?$string_output_adapter@_W@__crt_stdio_output@@@2@@__crt_stdio_output@@AEAA_N_W@Z 0000000180021a44 f i libucrt:output.obj
 0001:00020b30       ?write_string@?$string_output_adapter@_W@__crt_stdio_output@@QEBAXQEB_WHQEAHAEAV__crt_deferred_errno_cache@@@Z 0000000180021b30 f i libucrt:output.obj
 0001:00020bd8       ?write_string_impl@?$output_adapter_common@DV?$stream_output_adapter@D@__crt_stdio_output@@@__crt_stdio_output@@IEBAXQEBDHQEAHAEAV__crt_deferred_errno_cache@@@Z 0000000180021bd8 f i libucrt:output.obj
 0001:00020cd0       ?write_string_impl@?$output_adapter_common@_WV?$stream_output_adapter@_W@__crt_stdio_output@@@__crt_stdio_output@@IEBAXQEB_WHQEAHAEAV__crt_deferred_errno_cache@@@Z 0000000180021cd0 f i libucrt:output.obj
 0001:00020dd4       __stdio_common_vfprintf    0000000180021dd4 f   libucrt:output.obj
 0001:00020e60       __stdio_common_vfwprintf   0000000180021e60 f   libucrt:output.obj
 0001:00020eec       __stdio_common_vswprintf   0000000180021eec f   libucrt:output.obj
 0001:00020fe0       getenv                     0000000180021fe0 f   libucrt:getenv.obj
 0001:00020fe8       __acrt_initialize_new_handler 0000000180021fe8 f   libucrt:new_handler.obj
 0001:00020ff0       _callnewh                  0000000180021ff0 f   libucrt:new_handler.obj
 0001:00021020       _query_new_handler         0000000180022020 f   libucrt:new_handler.obj
 0001:00021054       _initterm                  0000000180022054 f   libucrt:initterm.obj
 0001:000210b8       _initterm_e                00000001800220b8 f   libucrt:initterm.obj
 0001:000210f8       _seh_filter_dll            00000001800220f8 f   libucrt:exception_filter.obj
 0001:0002110c       _seh_filter_exe            000000018002210c f   libucrt:exception_filter.obj
 0001:000214fc       __acrt_initialize_thread_local_exit_callback 00000001800224fc f   libucrt:exit.obj
 0001:00021504       _cexit                     0000000180022504 f   libucrt:exit.obj
 0001:00021514       _exit                      0000000180022514 f   libucrt:exit.obj
 0001:00021520       _is_c_termination_complete 0000000180022520 f   libucrt:exit.obj
 0001:000216ec       __acrt_allocate_buffer_for_argv 00000001800226ec f   libucrt:argv_parsing.obj
 0001:0002174c       _configure_narrow_argv     000000018002274c f   libucrt:argv_parsing.obj
 0001:00021b98       __dcrt_get_or_create_narrow_environment_nolock 0000000180022b98 f   libucrt:environment_initialization.obj
 0001:00021bd4       __dcrt_uninitialize_environments_nolock 0000000180022bd4 f   libucrt:environment_initialization.obj
 0001:00021c0c       _initialize_narrow_environment 0000000180022c0c f   libucrt:environment_initialization.obj
 0001:00021d68       _execute_onexit_table      0000000180022d68 f   libucrt:onexit.obj
 0001:00021da4       _initialize_onexit_table   0000000180022da4 f   libucrt:onexit.obj
 0001:00021e04       __acrt_uninitialize_command_line 0000000180022e04 f   libucrt:argv_data.obj
 0001:00021efc       __acrt_initialize          0000000180022efc f   libucrt:initialization.obj
 0001:00021f10       __acrt_thread_attach       0000000180022f10 f   libucrt:initialization.obj
 0001:00021f24       __acrt_thread_detach       0000000180022f24 f   libucrt:initialization.obj
 0001:00021f34       __acrt_uninitialize        0000000180022f34 f   libucrt:initialization.obj
 0001:00021f6c       __acrt_uninitialize_critical 0000000180022f6c f   libucrt:initialization.obj
 0001:00021f7c       terminate                  0000000180022f7c f   libucrt:terminate.obj
 0001:00021f9c       strcpy_s                   0000000180022f9c f   libucrt:strcpy_s.obj
 0001:00021ffc       ??$parse_integer@KV?$c_string_character_source@D@__crt_strtox@@@__crt_strtox@@YAKQEAU__crt_locale_pointers@@V?$c_string_character_source@D@0@H_N@Z 0000000180022ffc f i libucrt:atox.obj
 0001:00022338       ??$parse_integer@KV?$c_string_character_source@_W@__crt_strtox@@@__crt_strtox@@YAKQEAU__crt_locale_pointers@@V?$c_string_character_source@_W@0@H_N@Z 0000000180023338 f i libucrt:atox.obj
 0001:00022a00       strncmp                    0000000180023a00 f   libucrt:strncmp.obj
 0001:00022a80       abort                      0000000180023a80 f   libucrt:abort.obj
 0001:00022ad8       calloc                     0000000180023ad8 f   libucrt:calloc.obj
 0001:00022ae0       wcsncmp                    0000000180023ae0 f   libucrt:wcsncmp.obj
 0001:00022b0c       _free_base                 0000000180023b0c f   libucrt:free_base.obj
 0001:00022b4c       __acrt_call_reportfault    0000000180023b4c f   libucrt:invalid_parameter.obj
 0001:00022ca8       __acrt_initialize_invalid_parameter_handler 0000000180023ca8 f   libucrt:invalid_parameter.obj
 0001:00022cb0       _invalid_parameter         0000000180023cb0 f   libucrt:invalid_parameter.obj
 0001:00022d60       _invalid_parameter_noinfo  0000000180023d60 f   libucrt:invalid_parameter.obj
 0001:00022d80       _invoke_watson             0000000180023d80 f   libucrt:invalid_parameter.obj
 0001:00022dc8       _query_app_type            0000000180023dc8 f   libucrt:report_runtime_error.obj
 0001:00022dd0       __acrt_errno_from_os_error 0000000180023dd0 f   libucrt:errno.obj
 0001:00022e18       __acrt_errno_map_os_error  0000000180023e18 f   libucrt:errno.obj
 0001:00022e68       __doserrno                 0000000180023e68 f   libucrt:errno.obj
 0001:00022e88       _errno                     0000000180023e88 f   libucrt:errno.obj
 0001:00022fe8       _itow_s                    0000000180023fe8 f   libucrt:xtoa.obj
 0001:00023008       _set_error_mode            0000000180024008 f   libucrt:set_error_mode.obj
 0001:00023048       wcscat_s                   0000000180024048 f   libucrt:wcscat_s.obj
 0001:000230c8       wcscpy_s                   00000001800240c8 f   libucrt:wcscpy_s.obj
 0001:00023130       wcsncat_s                  0000000180024130 f   libucrt:wcsncat_s.obj
 0001:00023230       ??$__acrt_wcs_to_mbs_cp@U__crt_win32_buffer_no_resizing@@@@YAHQEB_WAEAV?$__crt_win32_buffer@DU__crt_win32_buffer_no_resizing@@@@I@Z 0000000180024230 f i libucrt:getmodulefilenamea.obj
 0001:00023344       __acrt_GetModuleFileNameA  0000000180024344 f   libucrt:getmodulefilenamea.obj
 0001:00023464       __acrt_show_wide_message_box 0000000180024464 f   libucrt:crtmbox.obj
 0001:00023724       __acrt_stdio_flush_nolock  0000000180024724 f   libucrt:fflush.obj
 0001:000237a0       _fflush_nolock             00000001800247a0 f   libucrt:fflush.obj
 0001:000237ec       _flushall                  00000001800247ec f   libucrt:fflush.obj
 0001:000237f4       fflush                     00000001800247f4 f   libucrt:fflush.obj
 0001:0002397c       setvbuf                    000000018002497c f   libucrt:setvbuf.obj
 0001:00023a60       __acrt_get_sigabrt_handler 0000000180024a60 f   libucrt:signal.obj
 0001:00023a90       __acrt_initialize_signal_handlers 0000000180024a90 f   libucrt:signal.obj
 0001:00023ab0       raise                      0000000180024ab0 f   libucrt:signal.obj
 0001:00023d1c       _malloc_base               0000000180024d1c f   libucrt:malloc_base.obj
 0001:00023ddc       _tolower_l                 0000000180024ddc f   libucrt:tolower_toupper.obj
 0001:00023f1c       tolower                    0000000180024f1c f   libucrt:tolower_toupper.obj
 0001:000242c0       __acrt_freeptd             00000001800252c0 f   libucrt:per_thread_data.obj
 0001:00024304       __acrt_getptd              0000000180025304 f   libucrt:per_thread_data.obj
 0001:000243d8       __acrt_getptd_head         00000001800253d8 f   libucrt:per_thread_data.obj
 0001:00024480       __acrt_getptd_noexit       0000000180025480 f   libucrt:per_thread_data.obj
 0001:0002454c       __acrt_initialize_ptd      000000018002554c f   libucrt:per_thread_data.obj
 0001:00024588       __acrt_uninitialize_ptd    0000000180025588 f   libucrt:per_thread_data.obj
 0001:000245ac       __acrt_update_locale_info  00000001800255ac f   libucrt:locale_update.obj
 0001:000245e0       __acrt_update_multibyte_info 00000001800255e0 f   libucrt:locale_update.obj
 0001:00024684       __acrt_set_locale_changed  0000000180025684 f   libucrt:wsetlocale.obj
 0001:00024690       __acrt_uninitialize_locale 0000000180025690 f   libucrt:wsetlocale.obj
 0001:000246c0       _calloc_base               00000001800256c0 f   libucrt:calloc_base.obj
 0001:00024910       __acrt_AppPolicyGetProcessTerminationMethodInternal 0000000180025910 f   libucrt:winapi_thunks.obj
 0001:00024960       __acrt_AppPolicyGetShowDeveloperDiagnosticInternal 0000000180025960 f   libucrt:winapi_thunks.obj
 0001:000249b0       __acrt_AppPolicyGetWindowingModelInternal 00000001800259b0 f   libucrt:winapi_thunks.obj
 0001:00024a00       __acrt_AreFileApisANSI     0000000180025a00 f   libucrt:winapi_thunks.obj
 0001:00024a3c       __acrt_CompareStringEx     0000000180025a3c f   libucrt:winapi_thunks.obj
 0001:00024b18       __acrt_FlsAlloc            0000000180025b18 f   libucrt:winapi_thunks.obj
 0001:00024b60       __acrt_FlsFree             0000000180025b60 f   libucrt:winapi_thunks.obj
 0001:00024ba8       __acrt_FlsGetValue         0000000180025ba8 f   libucrt:winapi_thunks.obj
 0001:00024bf0       __acrt_FlsSetValue         0000000180025bf0 f   libucrt:winapi_thunks.obj
 0001:00024c44       __acrt_InitializeCriticalSectionEx 0000000180025c44 f   libucrt:winapi_thunks.obj
 0001:00024ca8       __acrt_LCMapStringEx       0000000180025ca8 f   libucrt:winapi_thunks.obj
 0001:00024d84       __acrt_LocaleNameToLCID    0000000180025d84 f   libucrt:winapi_thunks.obj
 0001:00024dd4       __acrt_MessageBoxW         0000000180025dd4 f   libucrt:winapi_thunks.obj
 0001:00024e48       __acrt_can_show_message_box 0000000180025e48 f   libucrt:winapi_thunks.obj
 0001:00024eb8       __acrt_get_parent_window   0000000180025eb8 f   libucrt:winapi_thunks.obj
 0001:00024f30       __acrt_initialize_winapi_thunks 0000000180025f30 f   libucrt:winapi_thunks.obj
 0001:00024f64       __acrt_is_interactive      0000000180025f64 f   libucrt:winapi_thunks.obj
 0001:0002502c       __acrt_uninitialize_winapi_thunks 000000018002602c f   libucrt:winapi_thunks.obj
 0001:00025070       _fcloseall                 0000000180026070 f   libucrt:closeall.obj
 0001:00025124       __acrt_stdio_free_buffer_nolock 0000000180026124 f   libucrt:_freebuf.obj
 0001:00025360       __acrt_initialize_lowio    0000000180026360 f   libucrt:ioinit.obj
 0001:0002539c       __acrt_uninitialize_lowio  000000018002639c f   libucrt:ioinit.obj
 0001:000253dc       _realloc_base              00000001800263dc f   libucrt:realloc_base.obj
 0001:00025458       isdigit                    0000000180026458 f i libucrt:_ctype.obj
 0001:000254ec       strtol                     00000001800264ec f   libucrt:strtox.obj
 0001:00025518       wcstol                     0000000180026518 f   libucrt:strtox.obj
 0001:00025544       _mbtowc_l                  0000000180026544 f   libucrt:mbtowc.obj
 0001:000256c0       mbtowc                     00000001800266c0 f   libucrt:mbtowc.obj
 0001:000256c8       _wctomb_s_l                00000001800266c8 f   libucrt:wctomb.obj
 0001:00025868       wctomb_s                   0000000180026868 f   libucrt:wctomb.obj
 0001:0002587c       strnlen                    000000018002687c f   libucrt:strnlen.obj
 0001:000259cc       wcsnlen                    00000001800269cc f   libucrt:strnlen.obj
 0001:00026578       __acrt_fp_format           0000000180027578 f   libucrt:cvt.obj
 0001:00026800       _fputwc_nolock             0000000180027800 f   libucrt:fputwc.obj
 0001:0002697c       _fileno                    000000018002797c f   libucrt:fileno.obj
 0001:000269a4       _fputc_nolock              00000001800279a4 f   libucrt:fputc.obj
 0001:000269bc       _get_printf_count_output   00000001800279bc f   libucrt:printf_count_output.obj
 0001:000269d4       __acrt_stdio_begin_temporary_buffering_nolock 00000001800279d4 f   libucrt:_sftbuf.obj
 0001:00026aa4       __acrt_stdio_end_temporary_buffering_nolock 0000000180027aa4 f   libucrt:_sftbuf.obj
 0001:00026ae0       _strnicoll                 0000000180027ae0 f   libucrt:strnicol.obj
 0001:00026af8       _strnicoll_l               0000000180027af8 f   libucrt:strnicol.obj
 0001:00026bf8       __acrt_initialize_locks    0000000180027bf8 f   libucrt:locks.obj
 0001:00026c40       __acrt_lock                0000000180027c40 f   libucrt:locks.obj
 0001:00026c5c       __acrt_uninitialize_locks  0000000180027c5c f   libucrt:locks.obj
 0001:00026c94       __acrt_unlock              0000000180027c94 f   libucrt:locks.obj
 0001:00026cb0       __acrt_get_developer_information_policy 0000000180027cb0 f   libucrt:win_policies.obj
 0001:00026d04       __acrt_get_process_end_policy 0000000180027d04 f   libucrt:win_policies.obj
 0001:00026d40       __acrt_get_windowing_model_policy 0000000180027d40 f   libucrt:win_policies.obj
 0001:00026dc0       ??$__acrt_mbs_to_wcs_cp@U__crt_win32_buffer_internal_dynamic_resizing@@@@YAHQEBDAEAV?$__crt_win32_buffer@_WU__crt_win32_buffer_internal_dynamic_resizing@@@@I@Z 0000000180027dc0 f i libucrt:argv_wildcards.obj
 0001:00026f38       ??$__acrt_wcs_to_mbs_cp@U__crt_win32_buffer_internal_dynamic_resizing@@@@YAHQEB_WAEAV?$__crt_win32_buffer@DU__crt_win32_buffer_internal_dynamic_resizing@@@@I@Z 0000000180027f38 f i libucrt:argv_wildcards.obj
 0001:00027768       __acrt_expand_narrow_argv_wildcards 0000000180028768 f   libucrt:argv_wildcards.obj
 0001:00027e9c       __acrt_initialize_multibyte 0000000180028e9c f   libucrt:mbctype.obj
 0001:00027efc       __acrt_update_thread_multibyte_data 0000000180028efc f   libucrt:mbctype.obj
 0001:00027f18       _setmbcp_nolock            0000000180028f18 f   libucrt:mbctype.obj
 0001:0002824c       _ismbblead                 000000018002924c f   libucrt:ismbbyte.obj
 0001:00028260       __acrt_initialize_command_line 0000000180029260 f   libucrt:argv_data.obj
 0001:00028288       __acrt_MultiByteToWideChar 0000000180029288 f   libucrt:multibytetowidechar.obj
 0001:000282e4       __acrt_WideCharToMultiByte 00000001800292e4 f   libucrt:widechartomultibyte.obj
 0001:0002837c       __dcrt_get_narrow_environment_from_os 000000018002937c f   libucrt:get_environment_from_os.obj
 0001:00028888       __dcrt_set_variable_in_narrow_environment_nolock 0000000180029888 f   libucrt:setenv.obj
 0001:00028890       _recalloc_base             0000000180029890 f   libucrt:recalloc.obj
 0001:00028928       __acrt_initialize_heap     0000000180029928 f   libucrt:heap_handle.obj
 0001:00028944       __acrt_uninitialize_heap   0000000180029944 f   libucrt:heap_handle.obj
 0001:00028950       __acrt_execute_initializers 0000000180029950 f   libucrt:shared_initialization.obj
 0001:000289d0       __acrt_execute_uninitializers 00000001800299d0 f   libucrt:shared_initialization.obj
 0001:00028a0c       __acrt_has_user_matherr    0000000180029a0c f   libucrt:matherr.obj
 0001:00028a2c       __acrt_initialize_user_matherr 0000000180029a2c f   libucrt:matherr.obj
 0001:00028a34       __acrt_invoke_user_matherr 0000000180029a34 f   libucrt:matherr.obj
 0001:00028a64       __pctype_func              0000000180029a64 f   libucrt:ctype.obj
 0001:00028a94       iswctype                   0000000180029a94 f   libucrt:iswctype.obj
 0001:00028b04       _isctype_l                 0000000180029b04 f   libucrt:isctype.obj
 0001:00028ca0       _commit                    0000000180029ca0 f   libucrt:commit.obj
 0001:000295a0       _write                     000000018002a5a0 f   libucrt:write.obj
 0001:0002968c       _write_nolock              000000018002a68c f   libucrt:write.obj
 0001:00029968       _query_new_mode            000000018002a968 f   libucrt:new_mode.obj
 0001:00029970       _isleadbyte_l              000000018002a970 f i libucrt:_wctype.obj
 0001:00029cd4       __acrt_LCMapStringA        000000018002acd4 f   libucrt:lcmapstringa.obj
 0001:00029d6c       __acrt_add_locale_ref      000000018002ad6c f   libucrt:locale_refcounting.obj
 0001:00029df8       __acrt_free_locale         000000018002adf8 f   libucrt:locale_refcounting.obj
 0001:00029f70       __acrt_locale_add_lc_time_reference 000000018002af70 f   libucrt:locale_refcounting.obj
 0001:00029f98       __acrt_locale_free_lc_time_if_unreferenced 000000018002af98 f   libucrt:locale_refcounting.obj
 0001:00029fd0       __acrt_locale_release_lc_time_reference 000000018002afd0 f   libucrt:locale_refcounting.obj
 0001:00029ff8       __acrt_release_locale_ref  000000018002aff8 f   libucrt:locale_refcounting.obj
 0001:0002a0a0       __acrt_update_thread_locale_data 000000018002b0a0 f   libucrt:locale_refcounting.obj
 0001:0002a110       _updatetlocinfoEx_nolock   000000018002b110 f   libucrt:locale_refcounting.obj
 0001:0002a178       __acrt_locale_free_monetary 000000018002b178 f   libucrt:initmon.obj
 0001:0002a284       __acrt_locale_free_numeric 000000018002b284 f   libucrt:initnum.obj
 0001:0002a348       __acrt_locale_free_time    000000018002b348 f   libucrt:inittime.obj
 0001:0002a450       __acrt_GetStringTypeA      000000018002b450 f   libucrt:getstringtypea.obj
 0001:0002a6c8       __acrt_DownlevelLocaleNameToLCID 000000018002b6c8 f   libucrt:lcidtoname_downlevel.obj
 0001:0002a6fc       _fclose_nolock             000000018002b6fc f   libucrt:fclose.obj
 0001:0002a780       fclose                     000000018002b780 f   libucrt:fclose.obj
 0001:0002a7e4       __acrt_lowio_create_handle_array 000000018002b7e4 f   libucrt:osfinfo.obj
 0001:0002a88c       __acrt_lowio_destroy_handle_array 000000018002b88c f   libucrt:osfinfo.obj
 0001:0002a8dc       __acrt_lowio_ensure_fh_exists 000000018002b8dc f   libucrt:osfinfo.obj
 0001:0002a984       __acrt_lowio_lock_fh       000000018002b984 f   libucrt:osfinfo.obj
 0001:0002a9ac       __acrt_lowio_unlock_fh     000000018002b9ac f   libucrt:osfinfo.obj
 0001:0002a9d4       _free_osfhnd               000000018002b9d4 f   libucrt:osfinfo.obj
 0001:0002aa90       _get_osfhandle             000000018002ba90 f   libucrt:osfinfo.obj
 0001:0002ab08       ?__mbrtowc_utf8@__crt_mbstring@@YA_KPEA_WPEBD_KPEAU_Mbstatet@@@Z 000000018002bb08 f   libucrt:mbrtowc.obj
 0001:0002ab44       ?__mbsrtowcs_utf8@__crt_mbstring@@YA_KPEA_WPEAPEBD_KPEAU_Mbstatet@@@Z 000000018002bb44 f   libucrt:mbrtowc.obj
 0001:0002acbc       ?__c32rtomb_utf8@__crt_mbstring@@YA_KPEAD_UPEAU_Mbstatet@@@Z 000000018002bcbc f   libucrt:c32rtomb.obj
 0001:0002ad74       __acrt_fp_strflt_to_string 000000018002bd74 f   libucrt:_fptostr.obj
 0001:0002ae60       ?divide@__crt_strtox@@YA_KAEAUbig_integer@1@AEBU21@@Z 000000018002be60 f i libucrt:cfout.obj
 0001:0002b28c       __acrt_fltout              000000018002c28c f   libucrt:cfout.obj
 0001:0002c78c       __acrt_stdio_flush_and_write_narrow_nolock 000000018002d78c f   libucrt:_flsbuf.obj
 0001:0002c878       __acrt_stdio_flush_and_write_wide_nolock 000000018002d878 f   libucrt:_flsbuf.obj
 0001:0002c964       _isatty                    000000018002d964 f   libucrt:isatty.obj
 0001:0002c9c4       __ascii_strnicmp           000000018002d9c4 f   libucrt:strnicmp.obj
 0001:0002ca20       _strnicmp                  000000018002da20 f   libucrt:strnicmp.obj
 0001:0002ca70       _strnicmp_l                000000018002da70 f   libucrt:strnicmp.obj
 0001:0002ceac       __acrt_CompareStringA      000000018002deac f   libucrt:comparestringa.obj
 0001:0002cf40       qsort                      000000018002df40 f   libucrt:qsort.obj
 0001:0002d300       strncpy_s                  000000018002e300 f   libucrt:strncpy_s.obj
 0001:0002d480       strpbrk                    000000018002e480 f   libucrt:strpbrk.obj
 0001:0002d860       _mbsdec                    000000018002e860 f   libucrt:mbsdec.obj
 0001:0002d868       _mbsdec_l                  000000018002e868 f   libucrt:mbsdec.obj
 0001:0002d914       __acrt_SetEnvironmentVariableA 000000018002e914 f   libucrt:setenvironmentvariablea.obj
 0001:0002daac       _msize_base                000000018002eaac f   libucrt:msize.obj
 0001:0002dae8       __acrt_GetStringTypeW      000000018002eae8 f   libucrt:getstringtypew.obj
 0001:0002dc7c       _lseeki64                  000000018002ec7c f   libucrt:lseek.obj
 0001:0002dc84       _lseeki64_nolock           000000018002ec84 f   libucrt:lseek.obj
 0001:0002dc8c       _putwch_nolock             000000018002ec8c f   libucrt:putwch.obj
 0001:0002dcc8       __strncnt                  000000018002ecc8 f   libucrt:strncnt.obj
 0001:0002dd54       _close                     000000018002ed54 f   libucrt:close.obj
 0001:0002ddf8       _close_nolock              000000018002edf8 f   libucrt:close.obj
 0001:0002deb8       ?__acrt_stdio_free_stream@@YAXV__crt_stdio_stream@@@Z 000000018002eeb8 f   libucrt:stream.obj
 0001:0002ded4       ?__mbrtoc32_utf8@__crt_mbstring@@YA_KPEA_UPEBD_KPEAU_Mbstatet@@@Z 000000018002eed4 f   libucrt:mbrtoc32.obj
 0001:0002e0b0       fegetenv                   000000018002f0b0 f   libucrt:fegetenv.obj
 0001:0002e0d0       fesetenv                   000000018002f0d0 f   libucrt:fesetenv.obj
 0001:0002e120       feholdexcept               000000018002f120 f   libucrt:feholdexcept.obj
 0001:0002e170       ceil                       000000018002f170 f   libucrt:ceil.obj
 0001:0002e240       log10                      000000018002f240 f   libucrt:log10.obj
 0001:0002e7ec       __acrt_stdio_allocate_buffer_nolock 000000018002f7ec f   libucrt:_getbuf.obj
 0001:0002e854       __dcrt_lowio_ensure_console_output_initialized 000000018002f854 f   libucrt:initcon.obj
 0001:0002e8a8       __dcrt_terminate_console_output 000000018002f8a8 f   libucrt:initcon.obj
 0001:0002e8c4       __dcrt_write_console       000000018002f8c4 f   libucrt:initcon.obj
 0001:0002e984       __acrt_fenv_get_control    000000018002f984 f   libucrt:_fenvutils.obj
 0001:0002ea78       __acrt_fenv_get_status     000000018002fa78 f   libucrt:_fenvutils.obj
 0001:0002eacc       __acrt_fenv_set_control    000000018002facc f   libucrt:_fenvutils.obj
 0001:0002ec14       __acrt_fenv_set_status     000000018002fc14 f   libucrt:_fenvutils.obj
 0001:0002ec98       _clearfp                   000000018002fc98 f   libucrt:ieee.obj
 0001:0002ee2c       _handle_error              000000018002fe2c f   libucrt:libm_error.obj
 0001:0002ef54       _handle_nan                000000018002ff54 f   libucrt:libm_error.obj
 0001:0002ef70       __acrt_initialize_fma3     000000018002ff70 f   libucrt:fma3_available.obj
 0001:0002efe0       _log10_special             000000018002ffe0 f   libucrt:log_special.obj
 0001:0002f0b0       _get_fpsr                  00000001800300b0 f   libucrt:fpsr.obj
 0001:0002f0c0       _set_fpsr                  00000001800300c0 f   libucrt:fpsr.obj
 0001:0002f0ca       _fclrf                     00000001800300ca f   libucrt:fpsr.obj
 0001:0002f0de       _frnd                      00000001800300de f   libucrt:fpsr.obj
 0001:0002f100       _raise_exc                 0000000180030100 f   libucrt:fpexcept.obj
 0001:0002f128       _raise_exc_ex              0000000180030128 f   libucrt:fpexcept.obj
 0001:0002f438       _set_errno_from_matherr    0000000180030438 f   libucrt:fpexcept.obj
 0001:0002f468       _clrfp                     0000000180030468 f   libucrt:fpctrl.obj
 0001:0002f488       _ctrlfp                    0000000180030488 f   libucrt:fpctrl.obj
 0001:0002f504       _set_statfp                0000000180030504 f   libucrt:fpctrl.obj
 0001:0002f524       _statfp                    0000000180030524 f   libucrt:fpctrl.obj
 0001:0002f535       IsProcessorFeaturePresent  0000000180030535 f   kernel32:KERNEL32.dll
 0001:0002f53c       ?DloadAcquireSectionWriteAccess@@YAXXZ 000000018003053c f i DelayImp:delayhlp.obj
 0001:0002f5e8       ?DloadGetSRWLockFunctionPointers@@YAEXZ 00000001800305e8 f i DelayImp:delayhlp.obj
 0001:0002f684       ?DloadMakePermanentImageCommit@@YAXPEAX_K@Z 0000000180030684 f i DelayImp:delayhlp.obj
 0001:0002f71c       ?DloadObtainSection@@YAPEAXPEAK0@Z 000000018003071c f i DelayImp:delayhlp.obj
 0001:0002f7b8       ?DloadProtectSection@@YAXKPEAK@Z 00000001800307b8 f i DelayImp:delayhlp.obj
 0001:0002f848       ?DloadReleaseSectionWriteAccess@@YAXXZ 0000000180030848 f i DelayImp:delayhlp.obj
 0001:0002f8dc       __delayLoadHelper2         00000001800308dc f   DelayImp:delayhlp.obj
 0001:0002fba0       _FindPESection             0000000180030ba0 f   LIBCMT:pesect.obj
 0001:0002fbf0       _IsNonwritableInCurrentImage 0000000180030bf0 f   LIBCMT:pesect.obj
 0001:0002fc40       _ValidateImageBase         0000000180030c40 f   LIBCMT:pesect.obj
 0001:0002fc70       __GSHandlerCheck           0000000180030c70 f   LIBCMT:gshandler.obj
 0001:0002fc90       __GSHandlerCheckCommon     0000000180030c90 f   LIBCMT:gshandler.obj
 0001:0002fd00       __chkstk                   0000000180030d00 f   LIBCMT:chkstk.obj
 0001:0002fd00       _alloca_probe              0000000180030d00 f   LIBCMT:chkstk.obj
 0001:0002fd70       memcmp                     0000000180030d70 f   libvcruntime:memcmp.obj
 0001:0002fe38       strrchr                    0000000180030e38 f   libvcruntime:strrchr.obj
 0001:0002ff84       strchr                     0000000180030f84 f   libvcruntime:strchr.obj
 0001:00030020       _guard_dispatch_icall_nop  0000000180031020 f   LIBCMT:guard_dispatch.obj
 0002:00000000       __imp_GetModuleHandleA     0000000180032000     kernel32:KERNEL32.dll
 0002:00000008       __imp_LoadLibraryExA       0000000180032008     kernel32:KERNEL32.dll
 0002:00000010       __imp_LoadLibraryA         0000000180032010     kernel32:KERNEL32.dll
 0002:00000018       __imp_GetProcAddress       0000000180032018     kernel32:KERNEL32.dll
 0002:00000020       __imp_GetCurrentProcessId  0000000180032020     kernel32:KERNEL32.dll
 0002:00000028       __imp_FreeLibrary          0000000180032028     kernel32:KERNEL32.dll
 0002:00000030       __imp_GetSystemTimeAsFileTime 0000000180032030     kernel32:KERNEL32.dll
 0002:00000038       __imp_RtlCaptureContext    0000000180032038     kernel32:KERNEL32.dll
 0002:00000040       __imp_RtlLookupFunctionEntry 0000000180032040     kernel32:KERNEL32.dll
 0002:00000048       __imp_RtlVirtualUnwind     0000000180032048     kernel32:KERNEL32.dll
 0002:00000050       __imp_UnhandledExceptionFilter 0000000180032050     kernel32:KERNEL32.dll
 0002:00000058       __imp_SetUnhandledExceptionFilter 0000000180032058     kernel32:KERNEL32.dll
 0002:00000060       __imp_GetCurrentProcess    0000000180032060     kernel32:KERNEL32.dll
 0002:00000068       __imp_TerminateProcess     0000000180032068     kernel32:KERNEL32.dll
 0002:00000070       __imp_IsProcessorFeaturePresent 0000000180032070     kernel32:KERNEL32.dll
 0002:00000078       __imp_QueryPerformanceCounter 0000000180032078     kernel32:KERNEL32.dll
 0002:00000080       __imp_GetCurrentThreadId   0000000180032080     kernel32:KERNEL32.dll
 0002:00000088       __imp_InitializeSListHead  0000000180032088     kernel32:KERNEL32.dll
 0002:00000090       __imp_IsDebuggerPresent    0000000180032090     kernel32:KERNEL32.dll
 0002:00000098       __imp_GetStartupInfoW      0000000180032098     kernel32:KERNEL32.dll
 0002:000000a0       __imp_GetModuleHandleW     00000001800320a0     kernel32:KERNEL32.dll
 0002:000000a8       __imp_RtlUnwindEx          00000001800320a8     kernel32:KERNEL32.dll
 0002:000000b0       __imp_RtlPcToFileHeader    00000001800320b0     kernel32:KERNEL32.dll
 0002:000000b8       __imp_RaiseException       00000001800320b8     kernel32:KERNEL32.dll
 0002:000000c0       __imp_InterlockedFlushSList 00000001800320c0     kernel32:KERNEL32.dll
 0002:000000c8       __imp_GetLastError         00000001800320c8     kernel32:KERNEL32.dll
 0002:000000d0       __imp_SetLastError         00000001800320d0     kernel32:KERNEL32.dll
 0002:000000d8       __imp_EnterCriticalSection 00000001800320d8     kernel32:KERNEL32.dll
 0002:000000e0       __imp_LeaveCriticalSection 00000001800320e0     kernel32:KERNEL32.dll
 0002:000000e8       __imp_DeleteCriticalSection 00000001800320e8     kernel32:KERNEL32.dll
 0002:000000f0       __imp_InitializeCriticalSectionAndSpinCount 00000001800320f0     kernel32:KERNEL32.dll
 0002:000000f8       __imp_TlsAlloc             00000001800320f8     kernel32:KERNEL32.dll
 0002:00000100       __imp_TlsGetValue          0000000180032100     kernel32:KERNEL32.dll
 0002:00000108       __imp_TlsSetValue          0000000180032108     kernel32:KERNEL32.dll
 0002:00000110       __imp_TlsFree              0000000180032110     kernel32:KERNEL32.dll
 0002:00000118       __imp_LoadLibraryExW       0000000180032118     kernel32:KERNEL32.dll
 0002:00000120       __imp_GetStdHandle         0000000180032120     kernel32:KERNEL32.dll
 0002:00000128       __imp_GetFileType          0000000180032128     kernel32:KERNEL32.dll
 0002:00000130       __imp_GetModuleFileNameW   0000000180032130     kernel32:KERNEL32.dll
 0002:00000138       __imp_GetModuleHandleExW   0000000180032138     kernel32:KERNEL32.dll
 0002:00000140       __imp_WriteConsoleW        0000000180032140     kernel32:KERNEL32.dll
 0002:00000148       __imp_ExitProcess          0000000180032148     kernel32:KERNEL32.dll
 0002:00000150       __imp_HeapFree             0000000180032150     kernel32:KERNEL32.dll
 0002:00000158       __imp_WriteFile            0000000180032158     kernel32:KERNEL32.dll
 0002:00000160       __imp_OutputDebugStringW   0000000180032160     kernel32:KERNEL32.dll
 0002:00000168       __imp_HeapAlloc            0000000180032168     kernel32:KERNEL32.dll
 0002:00000170       __imp_CompareStringW       0000000180032170     kernel32:KERNEL32.dll
 0002:00000178       __imp_LCMapStringW         0000000180032178     kernel32:KERNEL32.dll
 0002:00000180       __imp_HeapReAlloc          0000000180032180     kernel32:KERNEL32.dll
 0002:00000188       __imp_FindClose            0000000180032188     kernel32:KERNEL32.dll
 0002:00000190       __imp_FindFirstFileExW     0000000180032190     kernel32:KERNEL32.dll
 0002:00000198       __imp_FindNextFileW        0000000180032198     kernel32:KERNEL32.dll
 0002:000001a0       __imp_IsValidCodePage      00000001800321a0     kernel32:KERNEL32.dll
 0002:000001a8       __imp_GetACP               00000001800321a8     kernel32:KERNEL32.dll
 0002:000001b0       __imp_GetOEMCP             00000001800321b0     kernel32:KERNEL32.dll
 0002:000001b8       __imp_GetCPInfo            00000001800321b8     kernel32:KERNEL32.dll
 0002:000001c0       __imp_GetCommandLineA      00000001800321c0     kernel32:KERNEL32.dll
 0002:000001c8       __imp_GetCommandLineW      00000001800321c8     kernel32:KERNEL32.dll
 0002:000001d0       __imp_MultiByteToWideChar  00000001800321d0     kernel32:KERNEL32.dll
 0002:000001d8       __imp_WideCharToMultiByte  00000001800321d8     kernel32:KERNEL32.dll
 0002:000001e0       __imp_GetEnvironmentStringsW 00000001800321e0     kernel32:KERNEL32.dll
 0002:000001e8       __imp_FreeEnvironmentStringsW 00000001800321e8     kernel32:KERNEL32.dll
 0002:000001f0       __imp_SetEnvironmentVariableW 00000001800321f0     kernel32:KERNEL32.dll
 0002:000001f8       __imp_GetProcessHeap       00000001800321f8     kernel32:KERNEL32.dll
 0002:00000200       __imp_FlushFileBuffers     0000000180032200     kernel32:KERNEL32.dll
 0002:00000208       __imp_GetConsoleCP         0000000180032208     kernel32:KERNEL32.dll
 0002:00000210       __imp_GetConsoleMode       0000000180032210     kernel32:KERNEL32.dll
 0002:00000218       __imp_GetStringTypeW       0000000180032218     kernel32:KERNEL32.dll
 0002:00000220       __imp_SetStdHandle         0000000180032220     kernel32:KERNEL32.dll
 0002:00000228       __imp_GetFileSizeEx        0000000180032228     kernel32:KERNEL32.dll
 0002:00000230       __imp_SetFilePointerEx     0000000180032230     kernel32:KERNEL32.dll
 0002:00000238       __imp_HeapSize             0000000180032238     kernel32:KERNEL32.dll
 0002:00000240       __imp_CloseHandle          0000000180032240     kernel32:KERNEL32.dll
 0002:00000248       __imp_CreateFileW          0000000180032248     kernel32:KERNEL32.dll
 0002:00000250       __imp_GetSystemInfo        0000000180032250     kernel32:KERNEL32.dll
 0002:00000258       __imp_VirtualProtect       0000000180032258     kernel32:KERNEL32.dll
 0002:00000260       __imp_VirtualQuery         0000000180032260     kernel32:KERNEL32.dll
 0002:00000268       \177KERNEL32_NULL_THUNK_DATA 0000000180032268     kernel32:KERNEL32.dll
 0002:00000270       __guard_check_icall_fptr   0000000180032270     LIBCMT:guard_support.obj
 0002:00000278       __guard_dispatch_icall_fptr 0000000180032278     LIBCMT:guard_support.obj
 0002:00000280       __xc_a                     0000000180032280     LIBCMT:initializers.obj
 0002:00000288       _register_node_expat_      0000000180032288     node-expat.obj
 0002:00000290       __xc_z                     0000000180032290     LIBCMT:initializers.obj
 0002:00000298       __xi_a                     0000000180032298     LIBCMT:initializers.obj
 0002:000002a0       __acrt_stdio_initializer   00000001800322a0     libucrt:stdio_initializer.obj
 0002:000002a8       __acrt_multibyte_initializer 00000001800322a8     libucrt:multibyte_initializer.obj
 0002:000002b0       __acrt_tran_fma3_initializer 00000001800322b0     libucrt:fma3_initializer.obj
 0002:000002b8       __xi_z                     00000001800322b8     LIBCMT:initializers.obj
 0002:000002c0       __xp_a                     00000001800322c0     LIBCMT:initializers.obj
 0002:000002c8       __acrt_locale_terminator   00000001800322c8     libucrt:locale_initializer.obj
 0002:000002d0       __dcrt_console_output_terminator 00000001800322d0     libucrt:console_output_initializer.obj
 0002:000002d8       __acrt_stdio_terminator    00000001800322d8     libucrt:stdio_initializer.obj
 0002:000002e0       __xp_z                     00000001800322e0     LIBCMT:initializers.obj
 0002:000002e8       __xt_a                     00000001800322e8     LIBCMT:initializers.obj
 0002:000002f0       __xt_z                     00000001800322f0     LIBCMT:initializers.obj
 0002:00000300       __sz_node_exe              0000000180032300     node:node.exe
 0002:00000310       _pDefaultRawDllMain        0000000180032310     LIBCMT:dll_dllmain.obj
 0002:00000310       _pRawDllMain               0000000180032310     LIBCMT:dll_dllmain.obj
 0002:00000330       ??_7exception@std@@6B@     0000000180032330     LIBCMT:throw_bad_alloc.obj
 0002:00000340       ??_C@_0BC@EOODALEL@Unknown?5exception@ 0000000180032340     LIBCMT:throw_bad_alloc.obj
 0002:00000360       ??_7bad_alloc@std@@6B@     0000000180032360     LIBCMT:throw_bad_alloc.obj
 0002:00000370       ??_C@_0P@GHFPNOJB@bad?5allocation@ 0000000180032370     LIBCMT:throw_bad_alloc.obj
 0002:00000388       ??_7bad_array_new_length@std@@6B@ 0000000180032388     LIBCMT:throw_bad_alloc.obj
 0002:00000398       ??_C@_0BF@KINCDENJ@bad?5array?5new?5length@ 0000000180032398     LIBCMT:throw_bad_alloc.obj
 0002:000003b8       ??_7type_info@@6B@         00000001800323b8     LIBCMT:std_type_info_static.obj
 0002:00000400       _pDestructExceptionObject  0000000180032400     libvcruntime:ehhelpers.obj
 0002:00000748       ??_C@_08EHJDFFNH@__based?$CI@ 0000000180032748     libvcruntime:undname.obj
 0002:00000758       ??_C@_07KOLFKCDI@__cdecl@  0000000180032758     libvcruntime:undname.obj
 0002:00000760       ??_C@_08GHMPAG@__pascal@   0000000180032760     libvcruntime:undname.obj
 0002:00000770       ??_C@_09IFJBGAPI@__stdcall@ 0000000180032770     libvcruntime:undname.obj
 0002:00000780       ??_C@_0L@NPHFGOKO@__thiscall@ 0000000180032780     libvcruntime:undname.obj
 0002:00000790       ??_C@_0L@JMKHOMEK@__fastcall@ 0000000180032790     libvcruntime:undname.obj
 0002:000007a0       ??_C@_0N@BCKKPABJ@__vectorcall@ 00000001800327a0     libvcruntime:undname.obj
 0002:000007b0       ??_C@_09HIJEGCPM@__clrcall@ 00000001800327b0     libvcruntime:undname.obj
 0002:000007bc       ??_C@_06GHPCKEAG@__eabi@   00000001800327bc     libvcruntime:undname.obj
 0002:000007c8       ??_C@_09IOPIDJLG@__swift_1@ 00000001800327c8     libvcruntime:undname.obj
 0002:000007d8       ??_C@_09KFNFGKHF@__swift_2@ 00000001800327d8     libvcruntime:undname.obj
 0002:000007e8       ??_C@_07JOMMBBKO@__ptr64@  00000001800327e8     libvcruntime:undname.obj
 0002:000007f0       ??_C@_0L@PILCLIHE@__restrict@ 00000001800327f0     libvcruntime:undname.obj
 0002:00000800       ??_C@_0M@GFIIJFMG@__unaligned@ 0000000180032800     libvcruntime:undname.obj
 0002:00000810       ??_C@_09DHDLOLLB@restrict?$CI@ 0000000180032810     libvcruntime:undname.obj
 0002:0000081a       ??_C@_00CNPNBAHC@@         000000018003281a     libvcruntime:undname.obj
 0002:0000081c       ??_C@_04NIHEBCM@?5new@     000000018003281c     libvcruntime:undname.obj
 0002:00000828       ??_C@_07FPCDHGMM@?5delete@ 0000000180032828     libvcruntime:undname.obj
 0002:00000830       ??_C@_01NEMOKFLO@?$DN@     0000000180032830     libvcruntime:undname.obj
 0002:00000834       ??_C@_02GPIOPFAK@?$DO?$DO@ 0000000180032834     libvcruntime:undname.obj
 0002:00000838       ??_C@_02FODMEDOG@?$DM?$DM@ 0000000180032838     libvcruntime:undname.obj
 0002:0000083c       ??_C@_01DCLJPIOD@?$CB@     000000018003283c     libvcruntime:undname.obj
 0002:00000840       ??_C@_02EGOFBIJA@?$DN?$DN@ 0000000180032840     libvcruntime:undname.obj
 0002:00000844       ??_C@_02FDNJECIE@?$CB?$DN@ 0000000180032844     libvcruntime:undname.obj
 0002:00000848       ??_C@_02GPECMEKF@?$FL?$FN@ 0000000180032848     libvcruntime:undname.obj
 0002:00000850       ??_C@_08LHJFAFGD@operator@ 0000000180032850     libvcruntime:undname.obj
 0002:0000085c       ??_C@_02HBOOOICD@?9?$DO@   000000018003285c     libvcruntime:undname.obj
 0002:00000860       ??_C@_01NBENCBCI@?$CK@     0000000180032860     libvcruntime:undname.obj
 0002:00000864       ??_C@_02ECNGHCIF@?$CL?$CL@ 0000000180032864     libvcruntime:undname.obj
 0002:00000868       ??_C@_02BAABKJLB@?9?9@     0000000180032868     libvcruntime:undname.obj
 0002:0000086c       ??_C@_01JOAMLHOP@?9@       000000018003286c     libvcruntime:undname.obj
 0002:00000870       ??_C@_01MIFGBAGJ@?$CL@     0000000180032870     libvcruntime:undname.obj
 0002:00000874       ??_C@_01HNPIGOCE@?$CG@     0000000180032874     libvcruntime:undname.obj
 0002:00000878       ??_C@_03MNHNFDLC@?9?$DO?$CK@ 0000000180032878     libvcruntime:undname.obj
 0002:0000087c       ??_C@_01KMDKNFGN@?1@       000000018003287c     libvcruntime:undname.obj
 0002:00000880       ??_C@_01FGNFDNOH@?$CF@     0000000180032880     libvcruntime:undname.obj
 0002:00000884       ??_C@_01MNNFJEPP@?$DM@     0000000180032884     libvcruntime:undname.obj
 0002:00000888       ??_C@_02EHCHHCKH@?$DM?$DN@ 0000000180032888     libvcruntime:undname.obj
 0002:0000088c       ??_C@_01PPODPGHN@?$DO@     000000018003288c     libvcruntime:undname.obj
 0002:00000890       ??_C@_02EEKDKGMJ@?$DO?$DN@ 0000000180032890     libvcruntime:undname.obj
 0002:00000894       ??_C@_01IHBHIGKO@?0@       0000000180032894     libvcruntime:undname.obj
 0002:00000898       ??_C@_02HCKGKOFO@?$CI?$CJ@ 0000000180032898     libvcruntime:undname.obj
 0002:0000089c       ??_C@_01PJKLJHI@?$HO@      000000018003289c     libvcruntime:undname.obj
 0002:000008a0       ??_C@_01JKBOJNNK@?$FO@     00000001800328a0     libvcruntime:undname.obj
 0002:000008a4       ??_C@_01DNKMNLPK@?$HM@     00000001800328a4     libvcruntime:undname.obj
 0002:000008a8       ??_C@_02PPKAJPJL@?$CG?$CG@ 00000001800328a8     libvcruntime:undname.obj
 0002:000008ac       ??_C@_02NONPIBCD@?$HM?$HM@ 00000001800328ac     libvcruntime:undname.obj
 0002:000008b0       ??_C@_02FPIMKNGF@?$CK?$DN@ 00000001800328b0     libvcruntime:undname.obj
 0002:000008b4       ??_C@_02FOEOMHFC@?$CL?$DN@ 00000001800328b4     libvcruntime:undname.obj
 0002:000008b8       ??_C@_02FKMDLLOA@?9?$DN@   00000001800328b8     libvcruntime:undname.obj
 0002:000008bc       ??_C@_02FJEHGPIO@?1?$DN@   00000001800328bc     libvcruntime:undname.obj
 0002:000008c0       ??_C@_02FENAOKFI@?$CF?$DN@ 00000001800328c0     libvcruntime:undname.obj
 0002:000008c4       ??_C@_03IKFCCPFF@?$DO?$DO?$DN@ 00000001800328c4     libvcruntime:undname.obj
 0002:000008c8       ??_C@_03CDNPDDLA@?$DM?$DM?$DN@ 00000001800328c8     libvcruntime:undname.obj
 0002:000008cc       ??_C@_02FGJGFEAB@?$CG?$DN@ 00000001800328cc     libvcruntime:undname.obj
 0002:000008d0       ??_C@_02DHLNPPGH@?$HM?$DN@ 00000001800328d0     libvcruntime:undname.obj
 0002:000008d4       ??_C@_02MHEGNOJ@?$FO?$DN@  00000001800328d4     libvcruntime:undname.obj
 0002:000008d8       ??_C@_09IFPLHPGF@?$GAvftable?8@ 00000001800328d8     libvcruntime:undname.obj
 0002:000008e8       ??_C@_09BLBHBJP@?$GAvbtable?8@ 00000001800328e8     libvcruntime:undname.obj
 0002:000008f8       ??_C@_07FEEIOKP@?$GAvcall?8@ 00000001800328f8     libvcruntime:undname.obj
 0002:00000900       ??_C@_08LLFFHHDJ@?$GAtypeof?8@ 0000000180032900     libvcruntime:undname.obj
 0002:00000910       ??_C@_0BF@KDPPACIK@?$GAlocal?5static?5guard?8@ 0000000180032910     libvcruntime:undname.obj
 0002:00000928       ??_C@_08OBABFOLI@?$GAstring?8@ 0000000180032928     libvcruntime:undname.obj
 0002:00000938       ??_C@_0BD@JDLKDPAB@?$GAvbase?5destructor?8@ 0000000180032938     libvcruntime:undname.obj
 0002:00000950       ??_C@_0BN@DEGPLNFK@?$GAvector?5deleting?5destructor?8@ 0000000180032950     libvcruntime:undname.obj
 0002:00000970       ??_C@_0BO@OBMKPJIG@?$GAdefault?5constructor?5closure?8@ 0000000180032970     libvcruntime:undname.obj
 0002:00000990       ??_C@_0BN@IMDCHIKM@?$GAscalar?5deleting?5destructor?8@ 0000000180032990     libvcruntime:undname.obj
 0002:000009b0       ??_C@_0BO@PFGOCPJJ@?$GAvector?5constructor?5iterator?8@ 00000001800329b0     libvcruntime:undname.obj
 0002:000009d0       ??_C@_0BN@LFPFMEDL@?$GAvector?5destructor?5iterator?8@ 00000001800329d0     libvcruntime:undname.obj
 0002:000009f0       ??_C@_0CE@IKBNEHA@?$GAvector?5vbase?5constructor?5itera@ 00000001800329f0     libvcruntime:undname.obj
 0002:00000a18       ??_C@_0BL@NILFHHPC@?$GAvirtual?5displacement?5map?8@ 0000000180032a18     libvcruntime:undname.obj
 0002:00000a38       ??_C@_0CB@JONCMFFK@?$GAeh?5vector?5constructor?5iterator@ 0000000180032a38     libvcruntime:undname.obj
 0002:00000a60       ??_C@_0CA@GCEOPDGL@?$GAeh?5vector?5destructor?5iterator?8@ 0000000180032a60     libvcruntime:undname.obj
 0002:00000a80       ??_C@_0CH@OOJPLCPH@?$GAeh?5vector?5vbase?5constructor?5it@ 0000000180032a80     libvcruntime:undname.obj
 0002:00000aa8       ??_C@_0BL@LLKPOHJI@?$GAcopy?5constructor?5closure?8@ 0000000180032aa8     libvcruntime:undname.obj
 0002:00000ac8       ??_C@_0BA@KBCDOMBN@?$GAudt?5returning?8@ 0000000180032ac8     libvcruntime:undname.obj
 0002:00000ad8       ??_C@_03KLGMFNMG@?$GAEH@   0000000180032ad8     libvcruntime:undname.obj
 0002:00000adc       ??_C@_05KHLCHHI@?$GARTTI@  0000000180032adc     libvcruntime:undname.obj
 0002:00000ae8       ??_C@_0BA@KKLDJDLB@?$GAlocal?5vftable?8@ 0000000180032ae8     libvcruntime:undname.obj
 0002:00000af8       ??_C@_0CE@IIHCMGGL@?$GAlocal?5vftable?5constructor?5clos@ 0000000180032af8     libvcruntime:undname.obj
 0002:00000b1c       ??_C@_06FHBGPFGH@?5new?$FL?$FN@ 0000000180032b1c     libvcruntime:undname.obj
 0002:00000b28       ??_C@_09LBNFPBCA@?5delete?$FL?$FN@ 0000000180032b28     libvcruntime:undname.obj
 0002:00000b38       ??_C@_0P@HJKNJFNN@?$GAomni?5callsig?8@ 0000000180032b38     libvcruntime:undname.obj
 0002:00000b48       ??_C@_0BL@CNOONJFP@?$GAplacement?5delete?5closure?8@ 0000000180032b48     libvcruntime:undname.obj
 0002:00000b68       ??_C@_0BN@CKNJLHMB@?$GAplacement?5delete?$FL?$FN?5closure?8@ 0000000180032b68     libvcruntime:undname.obj
 0002:00000b88       ??_C@_0CG@CFDHKGGD@?$GAmanaged?5vector?5constructor?5ite@ 0000000180032b88     libvcruntime:undname.obj
 0002:00000bb0       ??_C@_0CF@IMGKMJNO@?$GAmanaged?5vector?5destructor?5iter@ 0000000180032bb0     libvcruntime:undname.obj
 0002:00000bd8       ??_C@_0CG@HLDDJMAG@?$GAeh?5vector?5copy?5constructor?5ite@ 0000000180032bd8     libvcruntime:undname.obj
 0002:00000c00       ??_C@_0CM@FCBBDIGB@?$GAeh?5vector?5vbase?5copy?5construct@ 0000000180032c00     libvcruntime:undname.obj
 0002:00000c30       ??_C@_0BL@CLIPGLGB@?$GAdynamic?5initializer?5for?5?8@ 0000000180032c30     libvcruntime:undname.obj
 0002:00000c50       ??_C@_0CB@PDBIFEP@?$GAdynamic?5atexit?5destructor?5for?5@ 0000000180032c50     libvcruntime:undname.obj
 0002:00000c78       ??_C@_0CD@CGAJBKEJ@?$GAvector?5copy?5constructor?5iterat@ 0000000180032c78     libvcruntime:undname.obj
 0002:00000ca0       ??_C@_0CJ@GJELGAMM@?$GAvector?5vbase?5copy?5constructor?5@ 0000000180032ca0     libvcruntime:undname.obj
 0002:00000cd0       ??_C@_0CL@FGIJHLCE@?$GAmanaged?5vector?5copy?5constructo@ 0000000180032cd0     libvcruntime:undname.obj
 0002:00000d00       ??_C@_0BM@PMGGMLDN@?$GAlocal?5static?5thread?5guard?8@ 0000000180032d00     libvcruntime:undname.obj
 0002:00000d20       ??_C@_0N@BDNMDMOL@operator?5?$CC?$CC?5@ 0000000180032d20     libvcruntime:undname.obj
 0002:00000d30       ??_C@_0BC@GGEBGALA@operator?5co_await@ 0000000180032d30     libvcruntime:undname.obj
 0002:00000d48       ??_C@_0BC@DAFEJGAK@?5Type?5Descriptor?8@ 0000000180032d48     libvcruntime:undname.obj
 0002:00000d60       ??_C@_0BM@LDKODKLH@?5Base?5Class?5Descriptor?5at?5?$CI@ 0000000180032d60     libvcruntime:undname.obj
 0002:00000d80       ??_C@_0BD@LGICGFMM@?5Base?5Class?5Array?8@ 0000000180032d80     libvcruntime:undname.obj
 0002:00000d98       ??_C@_0BN@MECKDCOJ@?5Class?5Hierarchy?5Descriptor?8@ 0000000180032d98     libvcruntime:undname.obj
 0002:00000db8       ??_C@_0BK@CFCOFLF@?5Complete?5Object?5Locator?8@ 0000000180032db8     libvcruntime:undname.obj
 0002:00000df0       ??_C@_1DM@KHCHBNEB@?$AAa?$AAp?$AAi?$AA?9?$AAm?$AAs?$AA?9?$AAw?$AAi?$AAn?$AA?9?$AAc?$AAo?$AAr?$AAe@ 0000000180032df0     libvcruntime:winapi_downlevel.obj
 0002:00000e30       ??_C@_1DK@LPPGFMPP@?$AAa?$AAp?$AAi?$AA?9?$AAm?$AAs?$AA?9?$AAw?$AAi?$AAn?$AA?9?$AAc?$AAo?$AAr?$AAe@ 0000000180032e30     libvcruntime:winapi_downlevel.obj
 0002:00000e70       ??_C@_1BC@GDMECMAK@?$AAk?$AAe?$AAr?$AAn?$AAe?$AAl?$AA3?$AA2@ 0000000180032e70     libvcruntime:winapi_downlevel.obj
 0002:00000e88       ??_C@_1BA@PFFKHIOG@?$AAa?$AAp?$AAi?$AA?9?$AAm?$AAs?$AA?9@ 0000000180032e88     libvcruntime:winapi_downlevel.obj
 0002:00000e98       ??_C@_1BA@IAIFMGEF@?$AAe?$AAx?$AAt?$AA?9?$AAm?$AAs?$AA?9@ 0000000180032e98     libvcruntime:winapi_downlevel.obj
 0002:00000eb0       ??_C@_08KNHFBNJ@FlsAlloc@  0000000180032eb0     libvcruntime:winapi_downlevel.obj
 0002:00000ec8       ??_C@_07PEJMOBNF@FlsFree@  0000000180032ec8     libvcruntime:winapi_downlevel.obj
 0002:00000ed8       ??_C@_0M@GDNOONDI@FlsGetValue@ 0000000180032ed8     libvcruntime:winapi_downlevel.obj
 0002:00000ef0       ??_C@_0M@JCPCPOEF@FlsSetValue@ 0000000180032ef0     libvcruntime:winapi_downlevel.obj
 0002:00000f08       ??_C@_0BM@HCFOFFN@InitializeCriticalSectionEx@ 0000000180032f08     libvcruntime:winapi_downlevel.obj
 0002:00000f30       ??_C@_1FE@LHBLIKM@?$AAA?$AAs?$AAs?$AAe?$AAr?$AAt?$AAi?$AAo?$AAn?$AA?5?$AAf?$AAa?$AAi?$AAl?$AAe?$AAd?$AA?3?$AA?5?$AA?$CF?$AAT?$AAs?$AA?0?$AA?5?$AAf?$AAi?$AAl?$AAe?$AA?5?$AA?$CF?$AAT?$AAs?$AA?0@ 0000000180032f30     libucrt:assert.obj
 0002:00000f90       ??_C@_1EK@MBDPDCGA@?$AAM?$AAi?$AAc?$AAr?$AAo?$AAs?$AAo?$AAf?$AAt?$AA?5?$AAV?$AAi?$AAs?$AAu?$AAa?$AAl?$AA?5?$AAC?$AA?$CL?$AA?$CL?$AA?5?$AAR?$AAu?$AAn?$AAt?$AAi?$AAm?$AAe?$AA?5?$AAL?$AAi?$AAb@ 0000000180032f90     libucrt:assert.obj
 0002:00000fe0       ??_C@_1CE@OJBNHDMO@?$AAA?$AAs?$AAs?$AAe?$AAr?$AAt?$AAi?$AAo?$AAn?$AA?5?$AAf?$AAa?$AAi?$AAl?$AAe?$AAd?$AA?$CB?$AA?$AA@ 0000000180032fe0     libucrt:assert.obj
 0002:00001008       ??_C@_1BE@PHKBBGE@?$AAP?$AAr?$AAo?$AAg?$AAr?$AAa?$AAm?$AA?3?$AA?5?$AA?$AA@ 0000000180033008     libucrt:assert.obj
 0002:00001020       ??_C@_1O@HEMHKNDC@?$AAF?$AAi?$AAl?$AAe?$AA?3?$AA?5?$AA?$AA@ 0000000180033020     libucrt:assert.obj
 0002:00001030       ??_C@_1O@KCAFKHJE@?$AAL?$AAi?$AAn?$AAe?$AA?3?$AA?5?$AA?$AA@ 0000000180033030     libucrt:assert.obj
 0002:00001040       ??_C@_1BK@PEDCIPMA@?$AAE?$AAx?$AAp?$AAr?$AAe?$AAs?$AAs?$AAi?$AAo?$AAn?$AA?3?$AA?5?$AA?$AA@ 0000000180033040     libucrt:assert.obj
 0002:00001060       ??_C@_1OA@EGMLFBHJ@?$AAF?$AAo?$AAr?$AA?5?$AAi?$AAn?$AAf?$AAo?$AAr?$AAm?$AAa?$AAt?$AAi?$AAo?$AAn?$AA?5?$AAo?$AAn?$AA?5?$AAh?$AAo?$AAw?$AA?5?$AAy?$AAo?$AAu?$AAr?$AA?5?$AAp?$AAr?$AAo?$AAg@ 0000000180033060     libucrt:assert.obj
 0002:00001140       ??_C@_1HK@POCJMFGK@?$AA?$CI?$AAP?$AAr?$AAe?$AAs?$AAs?$AA?5?$AAR?$AAe?$AAt?$AAr?$AAy?$AA?5?$AAt?$AAo?$AA?5?$AAd?$AAe?$AAb?$AAu?$AAg?$AA?5?$AAt?$AAh?$AAe?$AA?5?$AAa?$AAp?$AAp?$AAl?$AAi?$AAc@ 0000000180033140     libucrt:assert.obj
 0002:000011c0       ??_C@_17LGKOMLJ@?$AA?4?$AA?4?$AA?4?$AA?$AA@ 00000001800331c0     libucrt:assert.obj
 0002:000011c8       ??_C@_13LBAGMAIH@?$AA?6?$AA?$AA@ 00000001800331c8     libucrt:assert.obj
 0002:000011cc       ??_C@_15IABLJNFO@?$AA?6?$AA?6?$AA?$AA@ 00000001800331cc     libucrt:assert.obj
 0002:000011d8       ??_C@_1CO@EAEJAADC@?$AA?$DM?$AAp?$AAr?$AAo?$AAg?$AAr?$AAa?$AAm?$AA?5?$AAn?$AAa?$AAm?$AAe?$AA?5?$AAu?$AAn?$AAk?$AAn?$AAo?$AAw?$AAn?$AA?$DO?$AA?$AA@ 00000001800331d8     libucrt:assert.obj
 0002:00001210       standard_lookup_table      0000000180033210     libucrt:output.obj
 0002:00001270       ??_C@_1O@CEDCILHN@?$AA?$CI?$AAn?$AAu?$AAl?$AAl?$AA?$CJ?$AA?$AA@ 0000000180033270     libucrt:output.obj
 0002:00001280       ??_C@_06OJHGLDPL@?$CInull?$CJ?$AA@ 0000000180033280     libucrt:output.obj
 0002:00001290       __acrt_exception_action_table 0000000180033290     libucrt:exception_filter.obj
 0002:00001350       __acrt_signal_action_table_count 0000000180033350     libucrt:exception_filter.obj
 0002:00001358       __acrt_signal_action_first_fpe_index 0000000180033358     libucrt:exception_filter.obj
 0002:00001360       __acrt_signal_action_fpe_count 0000000180033360     libucrt:exception_filter.obj
 0002:00001368       ??_C@_1BI@BGOHAHKC@?$AAm?$AAs?$AAc?$AAo?$AAr?$AAe?$AAe?$AA?4?$AAd?$AAl?$AAl?$AA?$AA@ 0000000180033368     libucrt:exit.obj
 0002:00001380       ??_C@_0P@MIGLKIOC@CorExitProcess?$AA@ 0000000180033380     libucrt:exit.obj
 0002:00001600       __lc_time_c                0000000180033600     libucrt:nlsdata.obj
 0002:000018c0       ??_C@_03KOEHGMDN@Sun?$AA@  00000001800338c0     libucrt:nlsdata.obj
 0002:000018c4       ??_C@_03PDAGKDH@Mon?$AA@   00000001800338c4     libucrt:nlsdata.obj
 0002:000018c8       ??_C@_03NAGEINEP@Tue?$AA@  00000001800338c8     libucrt:nlsdata.obj
 0002:000018cc       ??_C@_03MHOMLAJA@Wed?$AA@  00000001800338cc     libucrt:nlsdata.obj
 0002:000018d0       ??_C@_03IOFIKPDN@Thu?$AA@  00000001800338d0     libucrt:nlsdata.obj
 0002:000018d4       ??_C@_03IDIOELNC@Fri?$AA@  00000001800338d4     libucrt:nlsdata.obj
 0002:000018d8       ??_C@_03FEFJNEK@Sat?$AA@   00000001800338d8     libucrt:nlsdata.obj
 0002:000018dc       ??_C@_06OOPIFAJ@Sunday?$AA@ 00000001800338dc     libucrt:nlsdata.obj
 0002:000018e4       ??_C@_06JLEDEDGH@Monday?$AA@ 00000001800338e4     libucrt:nlsdata.obj
 0002:000018f0       ??_C@_07BAAGCFCM@Tuesday?$AA@ 00000001800338f0     libucrt:nlsdata.obj
 0002:000018f8       ??_C@_09DLIGFAKA@Wednesday?$AA@ 00000001800338f8     libucrt:nlsdata.obj
 0002:00001908       ??_C@_08HACCIKIA@Thursday?$AA@ 0000000180033908     libucrt:nlsdata.obj
 0002:00001914       ??_C@_06JECMNKMI@Friday?$AA@ 0000000180033914     libucrt:nlsdata.obj
 0002:00001920       ??_C@_08INBOOONO@Saturday?$AA@ 0000000180033920     libucrt:nlsdata.obj
 0002:0000192c       ??_C@_03JIHJHPIE@Jan?$AA@  000000018003392c     libucrt:nlsdata.obj
 0002:00001930       ??_C@_03HJBDCHOM@Feb?$AA@  0000000180033930     libucrt:nlsdata.obj
 0002:00001934       ??_C@_03ODNJBKGA@Mar?$AA@  0000000180033934     libucrt:nlsdata.obj
 0002:00001938       ??_C@_03LEOLGMJP@Apr?$AA@  0000000180033938     libucrt:nlsdata.obj
 0002:0000193c       ??_C@_03CNMDKL@May?$AA@    000000018003393c     libucrt:nlsdata.obj
 0002:00001940       ??_C@_03IDFGHECI@Jun?$AA@  0000000180033940     libucrt:nlsdata.obj
 0002:00001944       ??_C@_03LBGABGKK@Jul?$AA@  0000000180033944     libucrt:nlsdata.obj
 0002:00001948       ??_C@_03IFJFEIGA@Aug?$AA@  0000000180033948     libucrt:nlsdata.obj
 0002:0000194c       ??_C@_03GGCAPAJC@Sep?$AA@  000000018003394c     libucrt:nlsdata.obj
 0002:00001950       ??_C@_03BMAOKBAD@Oct?$AA@  0000000180033950     libucrt:nlsdata.obj
 0002:00001954       ??_C@_03JPJOFNIA@Nov?$AA@  0000000180033954     libucrt:nlsdata.obj
 0002:00001958       ??_C@_03MKABNOCG@Dec?$AA@  0000000180033958     libucrt:nlsdata.obj
 0002:00001960       ??_C@_07CGJPFGJA@January?$AA@ 0000000180033960     libucrt:nlsdata.obj
 0002:00001968       ??_C@_08GNJGEPFN@February?$AA@ 0000000180033968     libucrt:nlsdata.obj
 0002:00001974       ??_C@_05HPCKOFNC@March?$AA@ 0000000180033974     libucrt:nlsdata.obj
 0002:0000197c       ??_C@_05DMJDNLEJ@April?$AA@ 000000018003397c     libucrt:nlsdata.obj
 0002:00001984       ??_C@_04CNLMGBGM@June?$AA@ 0000000180033984     libucrt:nlsdata.obj
 0002:0000198c       ??_C@_04MIEPOIFP@July?$AA@ 000000018003398c     libucrt:nlsdata.obj
 0002:00001994       ??_C@_06LBBHFDDG@August?$AA@ 0000000180033994     libucrt:nlsdata.obj
 0002:000019a0       ??_C@_09BHHEALKD@September?$AA@ 00000001800339a0     libucrt:nlsdata.obj
 0002:000019b0       ??_C@_07JJNFCEND@October?$AA@ 00000001800339b0     libucrt:nlsdata.obj
 0002:000019b8       ??_C@_08HCHEGEOA@November?$AA@ 00000001800339b8     libucrt:nlsdata.obj
 0002:000019c8       ??_C@_08EDHMEBNP@December?$AA@ 00000001800339c8     libucrt:nlsdata.obj
 0002:000019d4       ??_C@_02DEDBPAFC@AM?$AA@   00000001800339d4     libucrt:nlsdata.obj
 0002:000019d8       ??_C@_02CJNFDJBF@PM?$AA@   00000001800339d8     libucrt:nlsdata.obj
 0002:000019e0       ??_C@_08BPBNCDIB@MM?1dd?1yy?$AA@ 00000001800339e0     libucrt:nlsdata.obj
 0002:000019f0       ??_C@_0BE@CKGJFCPC@dddd?0?5MMMM?5dd?0?5yyyy?$AA@ 00000001800339f0     libucrt:nlsdata.obj
 0002:00001a08       ??_C@_08JCCMCCIL@HH?3mm?3ss?$AA@ 0000000180033a08     libucrt:nlsdata.obj
 0002:00001a18       ??_C@_17MBGCMIPB@?$AAS?$AAu?$AAn?$AA?$AA@ 0000000180033a18     libucrt:nlsdata.obj
 0002:00001a20       ??_C@_17KBOMKBF@?$AAM?$AAo?$AAn?$AA?$AA@ 0000000180033a20     libucrt:nlsdata.obj
 0002:00001a28       ??_C@_17BMKGEGOJ@?$AAT?$AAu?$AAe?$AA?$AA@ 0000000180033a28     libucrt:nlsdata.obj
 0002:00001a30       ??_C@_17CJEDCEPE@?$AAW?$AAe?$AAd?$AA?$AA@ 0000000180033a30     libucrt:nlsdata.obj
 0002:00001a38       ??_C@_17PDPHAADD@?$AAT?$AAh?$AAu?$AA?$AA@ 0000000180033a38     libucrt:nlsdata.obj
 0002:00001a40       ??_C@_17HFOLPPLP@?$AAF?$AAr?$AAi?$AA?$AA@ 0000000180033a40     libucrt:nlsdata.obj
 0002:00001a48       ??_C@_17GGIBDPIH@?$AAS?$AAa?$AAt?$AA?$AA@ 0000000180033a48     libucrt:nlsdata.obj
 0002:00001a50       ??_C@_1O@IHNHDHPB@?$AAS?$AAu?$AAn?$AAd?$AAa?$AAy?$AA?$AA@ 0000000180033a50     libucrt:nlsdata.obj
 0002:00001a60       ??_C@_1O@MMNBFLIA@?$AAM?$AAo?$AAn?$AAd?$AAa?$AAy?$AA?$AA@ 0000000180033a60     libucrt:nlsdata.obj
 0002:00001a70       ??_C@_1BA@ENFBFFEK@?$AAT?$AAu?$AAe?$AAs?$AAd?$AAa?$AAy?$AA?$AA@ 0000000180033a70     libucrt:nlsdata.obj
 0002:00001a80       ??_C@_1BE@EBOGMDOH@?$AAW?$AAe?$AAd?$AAn?$AAe?$AAs?$AAd?$AAa?$AAy?$AA?$AA@ 0000000180033a80     libucrt:nlsdata.obj
 0002:00001a98       ??_C@_1BC@HHMNLIHE@?$AAT?$AAh?$AAu?$AAr?$AAs?$AAd?$AAa?$AAy?$AA?$AA@ 0000000180033a98     libucrt:nlsdata.obj
 0002:00001ab0       ??_C@_1O@PDICJHAG@?$AAF?$AAr?$AAi?$AAd?$AAa?$AAy?$AA?$AA@ 0000000180033ab0     libucrt:nlsdata.obj
 0002:00001ac0       ??_C@_1BC@ENMNNPAJ@?$AAS?$AAa?$AAt?$AAu?$AAr?$AAd?$AAa?$AAy?$AA?$AA@ 0000000180033ac0     libucrt:nlsdata.obj
 0002:00001ad8       ??_C@_17DKNBKCHM@?$AAJ?$AAa?$AAn?$AA?$AA@ 0000000180033ad8     libucrt:nlsdata.obj
 0002:00001ae0       ??_C@_17LMDJEKJN@?$AAF?$AAe?$AAb?$AA?$AA@ 0000000180033ae0     libucrt:nlsdata.obj
 0002:00001ae8       ??_C@_17CKNLEDEC@?$AAM?$AAa?$AAr?$AA?$AA@ 0000000180033ae8     libucrt:nlsdata.obj
 0002:00001af0       ??_C@_17LFPOIHDD@?$AAA?$AAp?$AAr?$AA?$AA@ 0000000180033af0     libucrt:nlsdata.obj
 0002:00001af8       ??_C@_17PNNKMEED@?$AAM?$AAa?$AAy?$AA?$AA@ 0000000180033af8     libucrt:nlsdata.obj
 0002:00001b00       ??_C@_17KCJGOCPB@?$AAJ?$AAu?$AAn?$AA?$AA@ 0000000180033b00     libucrt:nlsdata.obj
 0002:00001b08       ??_C@_17IJPCKHK@?$AAJ?$AAu?$AAl?$AA?$AA@ 0000000180033b08     libucrt:nlsdata.obj
 0002:00001b10       ??_C@_17ICPELBCN@?$AAA?$AAu?$AAg?$AA?$AA@ 0000000180033b10     libucrt:nlsdata.obj
 0002:00001b18       ??_C@_17HCHCOKMG@?$AAS?$AAe?$AAp?$AA?$AA@ 0000000180033b18     libucrt:nlsdata.obj
 0002:00001b20       ??_C@_17FNLKOI@?$AAO?$AAc?$AAt?$AA?$AA@ 0000000180033b20     libucrt:nlsdata.obj
 0002:00001b28       ??_C@_17BBDMLCIG@?$AAN?$AAo?$AAv?$AA?$AA@ 0000000180033b28     libucrt:nlsdata.obj
 0002:00001b30       ??_C@_17EGKACKIF@?$AAD?$AAe?$AAc?$AA?$AA@ 0000000180033b30     libucrt:nlsdata.obj
 0002:00001b38       ??_C@_1BA@EFMEIEBA@?$AAJ?$AAa?$AAn?$AAu?$AAa?$AAr?$AAy?$AA?$AA@ 0000000180033b38     libucrt:nlsdata.obj
 0002:00001b48       ??_C@_1BC@JGDDFFAM@?$AAF?$AAe?$AAb?$AAr?$AAu?$AAa?$AAr?$AAy?$AA?$AA@ 0000000180033b48     libucrt:nlsdata.obj
 0002:00001b60       ??_C@_1M@IKEENEDF@?$AAM?$AAa?$AAr?$AAc?$AAh?$AA?$AA@ 0000000180033b60     libucrt:nlsdata.obj
 0002:00001b70       ??_C@_1M@GJNLMHFD@?$AAA?$AAp?$AAr?$AAi?$AAl?$AA?$AA@ 0000000180033b70     libucrt:nlsdata.obj
 0002:00001b80       ??_C@_19EPFLPGAP@?$AAJ?$AAu?$AAn?$AAe?$AA?$AA@ 0000000180033b80     libucrt:nlsdata.obj
 0002:00001b90       ??_C@_19BIFMLPCD@?$AAJ?$AAu?$AAl?$AAy?$AA?$AA@ 0000000180033b90     libucrt:nlsdata.obj
 0002:00001ba0       ??_C@_1O@PAHLKOAC@?$AAA?$AAu?$AAg?$AAu?$AAs?$AAt?$AA?$AA@ 0000000180033ba0     libucrt:nlsdata.obj
 0002:00001bb0       ??_C@_1BE@DKAAMBJL@?$AAS?$AAe?$AAp?$AAt?$AAe?$AAm?$AAb?$AAe?$AAr?$AA?$AA@ 0000000180033bb0     libucrt:nlsdata.obj
 0002:00001bc8       ??_C@_1BA@EPANDLNG@?$AAO?$AAc?$AAt?$AAo?$AAb?$AAe?$AAr?$AA?$AA@ 0000000180033bc8     libucrt:nlsdata.obj
 0002:00001bd8       ??_C@_1BC@BGLIFPF@?$AAN?$AAo?$AAv?$AAe?$AAm?$AAb?$AAe?$AAr?$AA?$AA@ 0000000180033bd8     libucrt:nlsdata.obj
 0002:00001bf0       ??_C@_1BC@FEMKIFH@?$AAD?$AAe?$AAc?$AAe?$AAm?$AAb?$AAe?$AAr?$AA?$AA@ 0000000180033bf0     libucrt:nlsdata.obj
 0002:00001c04       ??_C@_15ODEHAHHF@?$AAA?$AAM?$AA?$AA@ 0000000180033c04     libucrt:nlsdata.obj
 0002:00001c0c       ??_C@_15CLMNNGEL@?$AAP?$AAM?$AA?$AA@ 0000000180033c0c     libucrt:nlsdata.obj
 0002:00001c18       ??_C@_1BC@IEBCMHCM@?$AAM?$AAM?$AA?1?$AAd?$AAd?$AA?1?$AAy?$AAy?$AA?$AA@ 0000000180033c18     libucrt:nlsdata.obj
 0002:00001c30       ??_C@_1CI@KNAKOEBC@?$AAd?$AAd?$AAd?$AAd?$AA?0?$AA?5?$AAM?$AAM?$AAM?$AAM?$AA?5?$AAd?$AAd?$AA?0?$AA?5?$AAy?$AAy?$AAy?$AAy?$AA?$AA@ 0000000180033c30     libucrt:nlsdata.obj
 0002:00001c58       ??_C@_1BC@GDGBMEMK@?$AAH?$AAH?$AA?3?$AAm?$AAm?$AA?3?$AAs?$AAs?$AA?$AA@ 0000000180033c58     libucrt:nlsdata.obj
 0002:00001c70       ??_C@_1M@BMHNFIME@?$AAe?$AAn?$AA?9?$AAU?$AAS?$AA?$AA@ 0000000180033c70     libucrt:nlsdata.obj
 0002:00001d20       ??_C@_1EA@JGEFHKEI@?$AAa?$AAp?$AAi?$AA?9?$AAm?$AAs?$AA?9?$AAw?$AAi?$AAn?$AA?9?$AAc?$AAo?$AAr?$AAe?$AA?9?$AAd?$AAa?$AAt?$AAe?$AAt?$AAi?$AAm?$AAe?$AA?9?$AAl?$AA1?$AA?9?$AA1?$AA?9?$AA1?$AA?$AA@ 0000000180033d20     libucrt:winapi_thunks.obj
 0002:00001d60       ??_C@_1DM@KHCHBNEB@?$AAa?$AAp?$AAi?$AA?9?$AAm?$AAs?$AA?9?$AAw?$AAi?$AAn?$AA?9?$AAc?$AAo?$AAr?$AAe?$AA?9?$AAf?$AAi?$AAb?$AAe?$AAr?$AAs?$AA?9?$AAl?$AA1?$AA?9?$AA1?$AA?9?$AA1?$AA?$AA@ 0000000180033d60     libucrt:winapi_thunks.obj
 0002:00001da0       ??_C@_1DI@IJCEHOCB@?$AAa?$AAp?$AAi?$AA?9?$AAm?$AAs?$AA?9?$AAw?$AAi?$AAn?$AA?9?$AAc?$AAo?$AAr?$AAe?$AA?9?$AAf?$AAi?$AAl?$AAe?$AA?9?$AAl?$AA1?$AA?9?$AA2?$AA?9?$AA2?$AA?$AA@ 0000000180033da0     libucrt:winapi_thunks.obj
 0002:00001de0       ??_C@_1EI@MPIAOHOC@?$AAa?$AAp?$AAi?$AA?9?$AAm?$AAs?$AA?9?$AAw?$AAi?$AAn?$AA?9?$AAc?$AAo?$AAr?$AAe?$AA?9?$AAl?$AAo?$AAc?$AAa?$AAl?$AAi?$AAz?$AAa?$AAt?$AAi?$AAo?$AAn?$AA?9?$AAl?$AA1?$AA?9@ 0000000180033de0     libucrt:winapi_thunks.obj
 0002:00001e30       ??_C@_1FK@FPHCKFIE@?$AAa?$AAp?$AAi?$AA?9?$AAm?$AAs?$AA?9?$AAw?$AAi?$AAn?$AA?9?$AAc?$AAo?$AAr?$AAe?$AA?9?$AAl?$AAo?$AAc?$AAa?$AAl?$AAi?$AAz?$AAa?$AAt?$AAi?$AAo?$AAn?$AA?9?$AAo?$AAb?$AAs@ 0000000180033e30     libucrt:winapi_thunks.obj
 0002:00001e90       ??_C@_1EM@DILCGIIO@?$AAa?$AAp?$AAi?$AA?9?$AAm?$AAs?$AA?9?$AAw?$AAi?$AAn?$AA?9?$AAc?$AAo?$AAr?$AAe?$AA?9?$AAp?$AAr?$AAo?$AAc?$AAe?$AAs?$AAs?$AAt?$AAh?$AAr?$AAe?$AAa?$AAd?$AAs?$AA?9?$AAl@ 0000000180033e90     libucrt:winapi_thunks.obj
 0002:00001ee0       ??_C@_1DM@LNCGDDPN@?$AAa?$AAp?$AAi?$AA?9?$AAm?$AAs?$AA?9?$AAw?$AAi?$AAn?$AA?9?$AAc?$AAo?$AAr?$AAe?$AA?9?$AAs?$AAt?$AAr?$AAi?$AAn?$AAg?$AA?9?$AAl?$AA1?$AA?9?$AA1?$AA?9?$AA0?$AA?$AA@ 0000000180033ee0     libucrt:winapi_thunks.obj
 0002:00001f20       ??_C@_1DK@LPPGFMPP@?$AAa?$AAp?$AAi?$AA?9?$AAm?$AAs?$AA?9?$AAw?$AAi?$AAn?$AA?9?$AAc?$AAo?$AAr?$AAe?$AA?9?$AAs?$AAy?$AAn?$AAc?$AAh?$AA?9?$AAl?$AA1?$AA?9?$AA2?$AA?9?$AA0?$AA?$AA@ 0000000180033f20     libucrt:winapi_thunks.obj
 0002:00001f60       ??_C@_1DO@FPAPJEMD@?$AAa?$AAp?$AAi?$AA?9?$AAm?$AAs?$AA?9?$AAw?$AAi?$AAn?$AA?9?$AAc?$AAo?$AAr?$AAe?$AA?9?$AAs?$AAy?$AAs?$AAi?$AAn?$AAf?$AAo?$AA?9?$AAl?$AA1?$AA?9?$AA2?$AA?9?$AA1?$AA?$AA@ 0000000180033f60     libucrt:winapi_thunks.obj
 0002:00001fa0       ??_C@_1DK@NDHNAHIO@?$AAa?$AAp?$AAi?$AA?9?$AAm?$AAs?$AA?9?$AAw?$AAi?$AAn?$AA?9?$AAc?$AAo?$AAr?$AAe?$AA?9?$AAw?$AAi?$AAn?$AAr?$AAt?$AA?9?$AAl?$AA1?$AA?9?$AA1?$AA?9?$AA0?$AA?$AA@ 0000000180033fa0     libucrt:winapi_thunks.obj
 0002:00001fe0       ??_C@_1DM@KGHDGBCM@?$AAa?$AAp?$AAi?$AA?9?$AAm?$AAs?$AA?9?$AAw?$AAi?$AAn?$AA?9?$AAc?$AAo?$AAr?$AAe?$AA?9?$AAx?$AAs?$AAt?$AAa?$AAt?$AAe?$AA?9?$AAl?$AA2?$AA?9?$AA1?$AA?9?$AA0?$AA?$AA@ 0000000180033fe0     libucrt:winapi_thunks.obj
 0002:00002020       ??_C@_1EO@IJIOEFOH@?$AAa?$AAp?$AAi?$AA?9?$AAm?$AAs?$AA?9?$AAw?$AAi?$AAn?$AA?9?$AAr?$AAt?$AAc?$AAo?$AAr?$AAe?$AA?9?$AAn?$AAt?$AAu?$AAs?$AAe?$AAr?$AA?9?$AAw?$AAi?$AAn?$AAd?$AAo?$AAw?$AA?9@ 0000000180034020     libucrt:winapi_thunks.obj
 0002:00002070       ??_C@_1FG@HHGEKANL@?$AAa?$AAp?$AAi?$AA?9?$AAm?$AAs?$AA?9?$AAw?$AAi?$AAn?$AA?9?$AAs?$AAe?$AAc?$AAu?$AAr?$AAi?$AAt?$AAy?$AA?9?$AAs?$AAy?$AAs?$AAt?$AAe?$AAm?$AAf?$AAu?$AAn?$AAc?$AAt?$AAi@ 0000000180034070     libucrt:winapi_thunks.obj
 0002:000020d0       ??_C@_1EG@DBIOJECG@?$AAe?$AAx?$AAt?$AA?9?$AAm?$AAs?$AA?9?$AAw?$AAi?$AAn?$AA?9?$AAn?$AAt?$AAu?$AAs?$AAe?$AAr?$AA?9?$AAd?$AAi?$AAa?$AAl?$AAo?$AAg?$AAb?$AAo?$AAx?$AA?9?$AAl?$AA1?$AA?9?$AA1@ 00000001800340d0     libucrt:winapi_thunks.obj
 0002:00002120       ??_C@_1EO@FIHMJCLF@?$AAe?$AAx?$AAt?$AA?9?$AAm?$AAs?$AA?9?$AAw?$AAi?$AAn?$AA?9?$AAn?$AAt?$AAu?$AAs?$AAe?$AAr?$AA?9?$AAw?$AAi?$AAn?$AAd?$AAo?$AAw?$AAs?$AAt?$AAa?$AAt?$AAi?$AAo?$AAn?$AA?9@ 0000000180034120     libucrt:winapi_thunks.obj
 0002:00002170       ??_C@_1BC@DNHGCMLG@?$AAa?$AAd?$AAv?$AAa?$AAp?$AAi?$AA3?$AA2?$AA?$AA@ 0000000180034170     libucrt:winapi_thunks.obj
 0002:00002188       ??_C@_1BC@GDMECMAK@?$AAk?$AAe?$AAr?$AAn?$AAe?$AAl?$AA3?$AA2?$AA?$AA@ 0000000180034188     libucrt:winapi_thunks.obj
 0002:000021a0       ??_C@_1M@OAIMIKLP@?$AAn?$AAt?$AAd?$AAl?$AAl?$AA?$AA@ 00000001800341a0     libucrt:winapi_thunks.obj
 0002:000021b0       ??_C@_1EG@DPGNFKGC@?$AAa?$AAp?$AAi?$AA?9?$AAm?$AAs?$AA?9?$AAw?$AAi?$AAn?$AA?9?$AAa?$AAp?$AAp?$AAm?$AAo?$AAd?$AAe?$AAl?$AA?9?$AAr?$AAu?$AAn?$AAt?$AAi?$AAm?$AAe?$AA?9?$AAl?$AA1?$AA?9?$AA1@ 00000001800341b0     libucrt:winapi_thunks.obj
 0002:000021f8       ??_C@_1O@BCCLBEOE@?$AAu?$AAs?$AAe?$AAr?$AA3?$AA2?$AA?$AA@ 00000001800341f8     libucrt:winapi_thunks.obj
 0002:00002208       ??_C@_1BA@PFFKHIOG@?$AAa?$AAp?$AAi?$AA?9?$AAm?$AAs?$AA?9?$AA?$AA@ 0000000180034208     libucrt:winapi_thunks.obj
 0002:00002218       ??_C@_1BA@IAIFMGEF@?$AAe?$AAx?$AAt?$AA?9?$AAm?$AAs?$AA?9?$AA?$AA@ 0000000180034218     libucrt:winapi_thunks.obj
 0002:00002230       ??_C@_0BA@FHFNEAED@AreFileApisANSI?$AA@ 0000000180034230     libucrt:winapi_thunks.obj
 0002:00002248       ??_C@_0BA@IHGNDAEB@CompareStringEx?$AA@ 0000000180034248     libucrt:winapi_thunks.obj
 0002:00002260       ??_C@_08KNHFBNJ@FlsAlloc?$AA@ 0000000180034260     libucrt:winapi_thunks.obj
 0002:00002278       ??_C@_07PEJMOBNF@FlsFree?$AA@ 0000000180034278     libucrt:winapi_thunks.obj
 0002:00002288       ??_C@_0M@GDNOONDI@FlsGetValue?$AA@ 0000000180034288     libucrt:winapi_thunks.obj
 0002:000022a0       ??_C@_0M@JCPCPOEF@FlsSetValue?$AA@ 00000001800342a0     libucrt:winapi_thunks.obj
 0002:000022b8       ??_C@_0BA@HNOPNCHB@GetActiveWindow?$AA@ 00000001800342b8     libucrt:winapi_thunks.obj
 0002:000022d0       ??_C@_0BD@HHGDFDBJ@GetLastActivePopup?$AA@ 00000001800342d0     libucrt:winapi_thunks.obj
 0002:000022f0       ??_C@_0BI@DFKBFLJE@GetProcessWindowStation?$AA@ 00000001800342f0     libucrt:winapi_thunks.obj
 0002:00002310       ??_C@_0BK@DEKFELLI@GetUserObjectInformationW?$AA@ 0000000180034310     libucrt:winapi_thunks.obj
 0002:00002338       ??_C@_0BM@HCFOFFN@InitializeCriticalSectionEx?$AA@ 0000000180034338     libucrt:winapi_thunks.obj
 0002:00002360       ??_C@_0O@KKBNKAPF@LCMapStringEx?$AA@ 0000000180034360     libucrt:winapi_thunks.obj
 0002:00002378       ??_C@_0BB@HBDEELFH@LocaleNameToLCID?$AA@ 0000000180034378     libucrt:winapi_thunks.obj
 0002:00002398       ??_C@_0M@CHKKJDAI@MessageBoxA?$AA@ 0000000180034398     libucrt:winapi_thunks.obj
 0002:000023b0       ??_C@_0M@DLDCCGNP@MessageBoxW?$AA@ 00000001800343b0     libucrt:winapi_thunks.obj
 0002:000023c0       ??_C@_0CF@OJOFEIGO@AppPolicyGetProcessTerminationMe@ 00000001800343c0     libucrt:winapi_thunks.obj
 0002:000023f0       ??_C@_0CE@OICFMIKE@AppPolicyGetShowDeveloperDiagnos@ 00000001800343f0     libucrt:winapi_thunks.obj
 0002:00002418       ??_C@_0BL@ODDJNEDA@AppPolicyGetWindowingModel?$AA@ 0000000180034418     libucrt:winapi_thunks.obj
 0002:00002434       ??_C@_03OEIAHPBN@INF?$AA@  0000000180034434     libucrt:cvt.obj
 0002:00002438       ??_C@_03OJHLLCGB@inf?$AA@  0000000180034438     libucrt:cvt.obj
 0002:0000243c       ??_C@_03LKNCIKJB@NAN?$AA@  000000018003443c     libucrt:cvt.obj
 0002:00002440       ??_C@_03LHCJEHON@nan?$AA@  0000000180034440     libucrt:cvt.obj
 0002:00002448       ??_C@_09OFJJIMPC@NAN?$CISNAN?$CJ?$AA@ 0000000180034448     libucrt:cvt.obj
 0002:00002458       ??_C@_09IPFBKMDL@nan?$CIsnan?$CJ?$AA@ 0000000180034458     libucrt:cvt.obj
 0002:00002468       ??_C@_08IKHNHAJ@NAN?$CIIND?$CJ?$AA@ 0000000180034468     libucrt:cvt.obj
 0002:00002478       ??_C@_08OFCDMILK@nan?$CIind?$CJ?$AA@ 0000000180034478     libucrt:cvt.obj
 0002:00002484       ??_C@_05KLBDPFGC@e?$CL000?$AA@ 0000000180034484     libucrt:cvt.obj
 0002:000024b0       ??_C@_1M@HPNHIDJI@?$AAj?$AAa?$AA?9?$AAJ?$AAP?$AA?$AA@ 00000001800344b0     libucrt:mbctype.obj
 0002:000024c0       ??_C@_1M@BIBDDEMK@?$AAz?$AAh?$AA?9?$AAC?$AAN?$AA?$AA@ 00000001800344c0     libucrt:mbctype.obj
 0002:000024d0       ??_C@_1M@JLOOOEGK@?$AAk?$AAo?$AA?9?$AAK?$AAR?$AA?$AA@ 00000001800344d0     libucrt:mbctype.obj
 0002:000024e0       ??_C@_1M@CLNBBOPM@?$AAz?$AAh?$AA?9?$AAT?$AAW?$AA?$AA@ 00000001800344e0     libucrt:mbctype.obj
 0002:000024f0       __newctype                 00000001800344f0     libucrt:ctype.obj
 0002:000027f0       __newclmap                 00000001800347f0     libucrt:ctype.obj
 0002:00002970       __newcumap                 0000000180034970     libucrt:ctype.obj
 0002:00002af0       _wctype                    0000000180034af0     libucrt:ctype.obj
 0002:00002cf4       ??_C@_15PJPFLCCM@?$AAu?$AAk?$AA?$AA@ 0000000180034cf4     libucrt:get_qualified_locale.obj
 0002:00003b40       ??_C@_15EMKDOKLE@?$AAa?$AAr?$AA?$AA@ 0000000180035b40     libucrt:lcidtoname_downlevel.obj
 0002:00003b48       ??_C@_15KNPADPLH@?$AAb?$AAg?$AA?$AA@ 0000000180035b48     libucrt:lcidtoname_downlevel.obj
 0002:00003b50       ??_C@_15EDMHLDMO@?$AAc?$AAa?$AA?$AA@ 0000000180035b50     libucrt:lcidtoname_downlevel.obj
 0002:00003b58       ??_C@_1O@BPEAJADD@?$AAz?$AAh?$AA?9?$AAC?$AAH?$AAS?$AA?$AA@ 0000000180035b58     libucrt:lcidtoname_downlevel.obj
 0002:00003b68       ??_C@_15LJNHCMNK@?$AAc?$AAs?$AA?$AA@ 0000000180035b68     libucrt:lcidtoname_downlevel.obj
 0002:00003b70       ??_C@_15FOMCIDHG@?$AAd?$AAa?$AA?$AA@ 0000000180035b70     libucrt:lcidtoname_downlevel.obj
 0002:00003b78       ??_C@_15NBKABECB@?$AAd?$AAe?$AA?$AA@ 0000000180035b78     libucrt:lcidtoname_downlevel.obj
 0002:00003b80       ??_C@_15GHPEIIAO@?$AAe?$AAl?$AA?$AA@ 0000000180035b80     libucrt:lcidtoname_downlevel.obj
 0002:00003b88       ??_C@_15MNPNEAIF@?$AAe?$AAn?$AA?$AA@ 0000000180035b88     libucrt:lcidtoname_downlevel.obj
 0002:00003b90       ??_C@_15GPIOMPMH@?$AAe?$AAs?$AA?$AA@ 0000000180035b90     libucrt:lcidtoname_downlevel.obj
 0002:00003b98       ??_C@_15NGLOAKJC@?$AAf?$AAi?$AA?$AA@ 0000000180035b98     libucrt:lcidtoname_downlevel.obj
 0002:00003ba0       ??_C@_15FBKGNKAM@?$AAf?$AAr?$AA?$AA@ 0000000180035ba0     libucrt:lcidtoname_downlevel.obj
 0002:00003ba8       ??_C@_15KGGCNEFK@?$AAh?$AAe?$AA?$AA@ 0000000180035ba8     libucrt:lcidtoname_downlevel.obj
 0002:00003bb0       ??_C@_15PGHLIDMF@?$AAh?$AAu?$AA?$AA@ 0000000180035bb0     libucrt:lcidtoname_downlevel.obj
 0002:00003bb8       ??_C@_15BIEMAPLM@?$AAi?$AAs?$AA?$AA@ 0000000180035bb8     libucrt:lcidtoname_downlevel.obj
 0002:00003bc0       ??_C@_15IFJLDHAF@?$AAi?$AAt?$AA?$AA@ 0000000180035bc0     libucrt:lcidtoname_downlevel.obj
 0002:00003bc8       ??_C@_15GEMIOCAG@?$AAj?$AAa?$AA?$AA@ 0000000180035bc8     libucrt:lcidtoname_downlevel.obj
 0002:00003bd0       ??_C@_15EPELEGJA@?$AAk?$AAo?$AA?$AA@ 0000000180035bd0     libucrt:lcidtoname_downlevel.obj
 0002:00003bd8       ??_C@_15NDDHIMN@?$AAn?$AAl?$AA?$AA@ 0000000180035bd8     libucrt:lcidtoname_downlevel.obj
 0002:00003be0       ??_C@_15BPIGNHCD@?$AAn?$AAo?$AA?$AA@ 0000000180035be0     libucrt:lcidtoname_downlevel.obj
 0002:00003be8       ??_C@_15DEOPBLCG@?$AAp?$AAl?$AA?$AA@ 0000000180035be8     libucrt:lcidtoname_downlevel.obj
 0002:00003bf0       ??_C@_15KBECGEFG@?$AAp?$AAt?$AA?$AA@ 0000000180035bf0     libucrt:lcidtoname_downlevel.obj
 0002:00003bf8       ??_C@_15GLJCBFMD@?$AAr?$AAo?$AA?$AA@ 0000000180035bf8     libucrt:lcidtoname_downlevel.obj
 0002:00003c00       ??_C@_15FEDGKCDI@?$AAr?$AAu?$AA?$AA@ 0000000180035c00     libucrt:lcidtoname_downlevel.obj
 0002:00003c08       ??_C@_15GLKMLLHM@?$AAh?$AAr?$AA?$AA@ 0000000180035c08     libucrt:lcidtoname_downlevel.obj
 0002:00003c10       ??_C@_15CPKMFBDB@?$AAs?$AAk?$AA?$AA@ 0000000180035c10     libucrt:lcidtoname_downlevel.obj
 0002:00003c18       ??_C@_15BAAIOGMK@?$AAs?$AAq?$AA?$AA@ 0000000180035c18     libucrt:lcidtoname_downlevel.obj
 0002:00003c20       ??_C@_15INNPNOHD@?$AAs?$AAv?$AA?$AA@ 0000000180035c20     libucrt:lcidtoname_downlevel.obj
 0002:00003c28       ??_C@_15CABMMOGH@?$AAt?$AAh?$AA?$AA@ 0000000180035c28     libucrt:lcidtoname_downlevel.obj
 0002:00003c30       ??_C@_15BPLIHJJM@?$AAt?$AAr?$AA?$AA@ 0000000180035c30     libucrt:lcidtoname_downlevel.obj
 0002:00003c38       ??_C@_15NEOEKKDJ@?$AAu?$AAr?$AA?$AA@ 0000000180035c38     libucrt:lcidtoname_downlevel.obj
 0002:00003c40       ??_C@_15NFICGAJK@?$AAi?$AAd?$AA?$AA@ 0000000180035c40     libucrt:lcidtoname_downlevel.obj
 0002:00003c48       ??_C@_15HPJPHDM@?$AAb?$AAe?$AA?$AA@ 0000000180035c48     libucrt:lcidtoname_downlevel.obj
 0002:00003c50       ??_C@_15LCHLGJII@?$AAs?$AAl?$AA?$AA@ 0000000180035c50     libucrt:lcidtoname_downlevel.obj
 0002:00003c58       ??_C@_15PCFJPHHO@?$AAe?$AAt?$AA?$AA@ 0000000180035c58     libucrt:lcidtoname_downlevel.obj
 0002:00003c60       ??_C@_15HPFPGODN@?$AAl?$AAv?$AA?$AA@ 0000000180035c60     libucrt:lcidtoname_downlevel.obj
 0002:00003c68       ??_C@_15NFFGKGLG@?$AAl?$AAt?$AA?$AA@ 0000000180035c68     libucrt:lcidtoname_downlevel.obj
 0002:00003c70       ??_C@_15BDAKCCHN@?$AAf?$AAa?$AA?$AA@ 0000000180035c70     libucrt:lcidtoname_downlevel.obj
 0002:00003c78       ??_C@_15NFGIAIAJ@?$AAv?$AAi?$AA?$AA@ 0000000180035c78     libucrt:lcidtoname_downlevel.obj
 0002:00003c80       ??_C@_15LMKNDMHN@?$AAh?$AAy?$AA?$AA@ 0000000180035c80     libucrt:lcidtoname_downlevel.obj
 0002:00003c88       ??_C@_15IJBHMCFL@?$AAa?$AAz?$AA?$AA@ 0000000180035c88     libucrt:lcidtoname_downlevel.obj
 0002:00003c90       ??_C@_15EKOFJABL@?$AAe?$AAu?$AA?$AA@ 0000000180035c90     libucrt:lcidtoname_downlevel.obj
 0002:00003c98       ??_C@_15BGHADCNK@?$AAm?$AAk?$AA?$AA@ 0000000180035c98     libucrt:lcidtoname_downlevel.obj
 0002:00003ca0       ??_C@_15JDNICKHM@?$AAa?$AAf?$AA?$AA@ 0000000180035ca0     libucrt:lcidtoname_downlevel.obj
 0002:00003ca8       ??_C@_15KPJEDBKD@?$AAk?$AAa?$AA?$AA@ 0000000180035ca8     libucrt:lcidtoname_downlevel.obj
 0002:00003cb0       ??_C@_15PDNFFFEO@?$AAf?$AAo?$AA?$AA@ 0000000180035cb0     libucrt:lcidtoname_downlevel.obj
 0002:00003cb8       ??_C@_15OMLEGLOC@?$AAh?$AAi?$AA?$AA@ 0000000180035cb8     libucrt:lcidtoname_downlevel.obj
 0002:00003cc0       ??_C@_15IDNNENKK@?$AAm?$AAs?$AA?$AA@ 0000000180035cc0     libucrt:lcidtoname_downlevel.obj
 0002:00003cc8       ??_C@_15MACJNBMH@?$AAk?$AAk?$AA?$AA@ 0000000180035cc8     libucrt:lcidtoname_downlevel.obj
 0002:00003cd0       ??_C@_15DKDJEOND@?$AAk?$AAy?$AA?$AA@ 0000000180035cd0     libucrt:lcidtoname_downlevel.obj
 0002:00003cd8       ??_C@_15DFGDLJBG@?$AAs?$AAw?$AA?$AA@ 0000000180035cd8     libucrt:lcidtoname_downlevel.obj
 0002:00003ce0       ??_C@_15BBFAICNG@?$AAu?$AAz?$AA?$AA@ 0000000180035ce0     libucrt:lcidtoname_downlevel.obj
 0002:00003ce8       ??_C@_15DKNDCGEA@?$AAt?$AAt?$AA?$AA@ 0000000180035ce8     libucrt:lcidtoname_downlevel.obj
 0002:00003cf0       ??_C@_15MGIFMDPL@?$AAp?$AAa?$AA?$AA@ 0000000180035cf0     libucrt:lcidtoname_downlevel.obj
 0002:00003cf8       ??_C@_15HCNDBBA@?$AAg?$AAu?$AA?$AA@ 0000000180035cf8     libucrt:lcidtoname_downlevel.obj
 0002:00003d00       ??_C@_15FNBEIBON@?$AAt?$AAa?$AA?$AA@ 0000000180035d00     libucrt:lcidtoname_downlevel.obj
 0002:00003d08       ??_C@_15NCHGBGLK@?$AAt?$AAe?$AA?$AA@ 0000000180035d08     libucrt:lcidtoname_downlevel.obj
 0002:00003d10       ??_C@_15PHPHCBPF@?$AAk?$AAn?$AA?$AA@ 0000000180035d10     libucrt:lcidtoname_downlevel.obj
 0002:00003d18       ??_C@_15DLGBCKMP@?$AAm?$AAr?$AA?$AA@ 0000000180035d18     libucrt:lcidtoname_downlevel.obj
 0002:00003d20       ??_C@_15EABBLBFF@?$AAs?$AAa?$AA?$AA@ 0000000180035d20     libucrt:lcidtoname_downlevel.obj
 0002:00003d28       ??_C@_15CBKOMCOI@?$AAm?$AAn?$AA?$AA@ 0000000180035d28     libucrt:lcidtoname_downlevel.obj
 0002:00003d30       ??_C@_15CKDMCJAF@?$AAg?$AAl?$AA?$AA@ 0000000180035d30     libucrt:lcidtoname_downlevel.obj
 0002:00003d38       ??_C@_17CNJFBPG@?$AAk?$AAo?$AAk?$AA?$AA@ 0000000180035d38     libucrt:lcidtoname_downlevel.obj
 0002:00003d40       ??_C@_17FFBJICPL@?$AAs?$AAy?$AAr?$AA?$AA@ 0000000180035d40     libucrt:lcidtoname_downlevel.obj
 0002:00003d48       ??_C@_17KPNDCPAF@?$AAd?$AAi?$AAv?$AA?$AA@ 0000000180035d48     libucrt:lcidtoname_downlevel.obj
 0002:00003d50       ??_C@_11LOCGONAA@?$AA?$AA@ 0000000180035d50     libucrt:lcidtoname_downlevel.obj
 0002:00003d58       ??_C@_1M@OKAHONE@?$AAa?$AAr?$AA?9?$AAS?$AAA?$AA?$AA@ 0000000180035d58     libucrt:lcidtoname_downlevel.obj
 0002:00003d68       ??_C@_1M@FFFIGIGK@?$AAb?$AAg?$AA?9?$AAB?$AAG?$AA?$AA@ 0000000180035d68     libucrt:lcidtoname_downlevel.obj
 0002:00003d78       ??_C@_1M@BJNKEDC@?$AAc?$AAa?$AA?9?$AAE?$AAS?$AA?$AA@ 0000000180035d78     libucrt:lcidtoname_downlevel.obj
 0002:00003d88       ??_C@_1M@IJJHFJHA@?$AAc?$AAs?$AA?9?$AAC?$AAZ?$AA?$AA@ 0000000180035d88     libucrt:lcidtoname_downlevel.obj
 0002:00003d98       ??_C@_1M@CLPEOBGI@?$AAd?$AAa?$AA?9?$AAD?$AAK?$AA?$AA@ 0000000180035d98     libucrt:lcidtoname_downlevel.obj
 0002:00003da8       ??_C@_1M@MCMADGCB@?$AAd?$AAe?$AA?9?$AAD?$AAE?$AA?$AA@ 0000000180035da8     libucrt:lcidtoname_downlevel.obj
 0002:00003db8       ??_C@_1M@OOCKEMAM@?$AAe?$AAl?$AA?9?$AAG?$AAR?$AA?$AA@ 0000000180035db8     libucrt:lcidtoname_downlevel.obj
 0002:00003dc8       ??_C@_1M@DDNJFGID@?$AAf?$AAi?$AA?9?$AAF?$AAI?$AA?$AA@ 0000000180035dc8     libucrt:lcidtoname_downlevel.obj
 0002:00003dd8       ??_C@_1M@GLIPPMAC@?$AAf?$AAr?$AA?9?$AAF?$AAR?$AA?$AA@ 0000000180035dd8     libucrt:lcidtoname_downlevel.obj
 0002:00003de8       ??_C@_1M@GFMCHPE@?$AAh?$AAe?$AA?9?$AAI?$AAL?$AA?$AA@ 0000000180035de8     libucrt:lcidtoname_downlevel.obj
 0002:00003df8       ??_C@_1M@MHLPGNKM@?$AAh?$AAu?$AA?9?$AAH?$AAU?$AA?$AA@ 0000000180035df8     libucrt:lcidtoname_downlevel.obj
 0002:00003e08       ??_C@_1M@LPDDNNPN@?$AAi?$AAs?$AA?9?$AAI?$AAS?$AA?$AA@ 0000000180035e08     libucrt:lcidtoname_downlevel.obj
 0002:00003e18       ??_C@_1M@MADIPODN@?$AAi?$AAt?$AA?9?$AAI?$AAT?$AA?$AA@ 0000000180035e18     libucrt:lcidtoname_downlevel.obj
 0002:00003e28       ??_C@_1M@IHBJJGG@?$AAn?$AAl?$AA?9?$AAN?$AAL?$AA?$AA@ 0000000180035e28     libucrt:lcidtoname_downlevel.obj
 0002:00003e38       ??_C@_1M@EANAGDL@?$AAn?$AAb?$AA?9?$AAN?$AAO?$AA?$AA@ 0000000180035e38     libucrt:lcidtoname_downlevel.obj
 0002:00003e48       ??_C@_1M@NEIEMEGP@?$AAp?$AAl?$AA?9?$AAP?$AAL?$AA?$AA@ 0000000180035e48     libucrt:lcidtoname_downlevel.obj
 0002:00003e58       ??_C@_1M@BOCFIGEP@?$AAp?$AAt?$AA?9?$AAB?$AAR?$AA?$AA@ 0000000180035e58     libucrt:lcidtoname_downlevel.obj
 0002:00003e68       ??_C@_1M@IMPFOPBG@?$AAr?$AAo?$AA?9?$AAR?$AAO?$AA?$AA@ 0000000180035e68     libucrt:lcidtoname_downlevel.obj
 0002:00003e78       ??_C@_1M@IDNNEJMM@?$AAr?$AAu?$AA?9?$AAR?$AAU?$AA?$AA@ 0000000180035e78     libucrt:lcidtoname_downlevel.obj
 0002:00003e88       ??_C@_1M@LILEEOGM@?$AAh?$AAr?$AA?9?$AAH?$AAR?$AA?$AA@ 0000000180035e88     libucrt:lcidtoname_downlevel.obj
 0002:00003e98       ??_C@_1M@FKIFEHPB@?$AAs?$AAk?$AA?9?$AAS?$AAK?$AA?$AA@ 0000000180035e98     libucrt:lcidtoname_downlevel.obj
 0002:00003ea8       ??_C@_1M@LJMAMNPJ@?$AAs?$AAq?$AA?9?$AAA?$AAL?$AA?$AA@ 0000000180035ea8     libucrt:lcidtoname_downlevel.obj
 0002:00003eb8       ??_C@_1M@GIAKDKJK@?$AAs?$AAv?$AA?9?$AAS?$AAE?$AA?$AA@ 0000000180035eb8     libucrt:lcidtoname_downlevel.obj
 0002:00003ec8       ??_C@_1M@MKJKIKCL@?$AAt?$AAh?$AA?9?$AAT?$AAH?$AA?$AA@ 0000000180035ec8     libucrt:lcidtoname_downlevel.obj
 0002:00003ed8       ??_C@_1M@MFLCCMPB@?$AAt?$AAr?$AA?9?$AAT?$AAR?$AA?$AA@ 0000000180035ed8     libucrt:lcidtoname_downlevel.obj
 0002:00003ee8       ??_C@_1M@OIJHDKJN@?$AAu?$AAr?$AA?9?$AAP?$AAK?$AA?$AA@ 0000000180035ee8     libucrt:lcidtoname_downlevel.obj
 0002:00003ef8       ??_C@_1M@LHIPCIEK@?$AAi?$AAd?$AA?9?$AAI?$AAD?$AA?$AA@ 0000000180035ef8     libucrt:lcidtoname_downlevel.obj
 0002:00003f08       ??_C@_1M@MFMOBGI@?$AAu?$AAk?$AA?9?$AAU?$AAA?$AA?$AA@ 0000000180035f08     libucrt:lcidtoname_downlevel.obj
 0002:00003f18       ??_C@_1M@OBGLJIPL@?$AAb?$AAe?$AA?9?$AAB?$AAY?$AA?$AA@ 0000000180035f18     libucrt:lcidtoname_downlevel.obj
 0002:00003f28       ??_C@_1M@BCFAJEAD@?$AAs?$AAl?$AA?9?$AAS?$AAI?$AA?$AA@ 0000000180035f28     libucrt:lcidtoname_downlevel.obj
 0002:00003f38       ??_C@_1M@FKFFEDDN@?$AAe?$AAt?$AA?9?$AAE?$AAE?$AA?$AA@ 0000000180035f38     libucrt:lcidtoname_downlevel.obj
 0002:00003f48       ??_C@_1M@KGKKAACI@?$AAl?$AAv?$AA?9?$AAL?$AAV?$AA?$AA@ 0000000180035f48     libucrt:lcidtoname_downlevel.obj
 0002:00003f58       ??_C@_1M@IFGBIJO@?$AAl?$AAt?$AA?9?$AAL?$AAT?$AA?$AA@ 0000000180035f58     libucrt:lcidtoname_downlevel.obj
 0002:00003f68       ??_C@_1M@FGEAHEDM@?$AAf?$AAa?$AA?9?$AAI?$AAR?$AA?$AA@ 0000000180035f68     libucrt:lcidtoname_downlevel.obj
 0002:00003f78       ??_C@_1M@KBMAIBFN@?$AAv?$AAi?$AA?9?$AAV?$AAN?$AA?$AA@ 0000000180035f78     libucrt:lcidtoname_downlevel.obj
 0002:00003f88       ??_C@_1M@GPCBKDJK@?$AAh?$AAy?$AA?9?$AAA?$AAM?$AA?$AA@ 0000000180035f88     libucrt:lcidtoname_downlevel.obj
 0002:00003f98       ??_C@_1BG@BECMDDJB@?$AAa?$AAz?$AA?9?$AAA?$AAZ?$AA?9?$AAL?$AAa?$AAt?$AAn?$AA?$AA@ 0000000180035f98     libucrt:lcidtoname_downlevel.obj
 0002:00003fb0       ??_C@_1M@MAOFCAEA@?$AAe?$AAu?$AA?9?$AAE?$AAS?$AA?$AA@ 0000000180035fb0     libucrt:lcidtoname_downlevel.obj
 0002:00003fc0       ??_C@_1M@IGHABKPI@?$AAm?$AAk?$AA?9?$AAM?$AAK?$AA?$AA@ 0000000180035fc0     libucrt:lcidtoname_downlevel.obj
 0002:00003fd0       ??_C@_1M@IAIGNEJG@?$AAt?$AAn?$AA?9?$AAZ?$AAA?$AA?$AA@ 0000000180035fd0     libucrt:lcidtoname_downlevel.obj
 0002:00003fe0       ??_C@_1M@IIJCOJFA@?$AAx?$AAh?$AA?9?$AAZ?$AAA?$AA?$AA@ 0000000180035fe0     libucrt:lcidtoname_downlevel.obj
 0002:00003ff0       ??_C@_1M@LGPJHNJH@?$AAz?$AAu?$AA?9?$AAZ?$AAA?$AA?$AA@ 0000000180035ff0     libucrt:lcidtoname_downlevel.obj
 0002:00004000       ??_C@_1M@HOKAOIO@?$AAa?$AAf?$AA?9?$AAZ?$AAA?$AA?$AA@ 0000000180036000     libucrt:lcidtoname_downlevel.obj
 0002:00004010       ??_C@_1M@DPCLHLIE@?$AAk?$AAa?$AA?9?$AAG?$AAE?$AA?$AA@ 0000000180036010     libucrt:lcidtoname_downlevel.obj
 0002:00004020       ??_C@_1M@BLKMHJBI@?$AAf?$AAo?$AA?9?$AAF?$AAO?$AA?$AA@ 0000000180036020     libucrt:lcidtoname_downlevel.obj
 0002:00004030       ??_C@_1M@LGGJAPPB@?$AAh?$AAi?$AA?9?$AAI?$AAN?$AA?$AA@ 0000000180036030     libucrt:lcidtoname_downlevel.obj
 0002:00004040       ??_C@_1M@FIKPIHFE@?$AAm?$AAt?$AA?9?$AAM?$AAT?$AA?$AA@ 0000000180036040     libucrt:lcidtoname_downlevel.obj
 0002:00004050       ??_C@_1M@HEGGPBFA@?$AAs?$AAe?$AA?9?$AAN?$AAO?$AA?$AA@ 0000000180036050     libucrt:lcidtoname_downlevel.obj
 0002:00004060       ??_C@_1M@EIBJEEPA@?$AAm?$AAs?$AA?9?$AAM?$AAY?$AA?$AA@ 0000000180036060     libucrt:lcidtoname_downlevel.obj
 0002:00004070       ??_C@_1M@FHLBGMPP@?$AAk?$AAk?$AA?9?$AAK?$AAZ?$AA?$AA@ 0000000180036070     libucrt:lcidtoname_downlevel.obj
 0002:00004080       ??_C@_1M@NGJJLCGI@?$AAk?$AAy?$AA?9?$AAK?$AAG?$AA?$AA@ 0000000180036080     libucrt:lcidtoname_downlevel.obj
 0002:00004090       ??_C@_1M@GIENNBFC@?$AAs?$AAw?$AA?9?$AAK?$AAE?$AA?$AA@ 0000000180036090     libucrt:lcidtoname_downlevel.obj
 0002:000040a0       ??_C@_1BG@NDGMJIMJ@?$AAu?$AAz?$AA?9?$AAU?$AAZ?$AA?9?$AAL?$AAa?$AAt?$AAn?$AA?$AA@ 00000001800360a0     libucrt:lcidtoname_downlevel.obj
 0002:000040b8       ??_C@_1M@IDCCIHBC@?$AAt?$AAt?$AA?9?$AAR?$AAU?$AA?$AA@ 00000001800360b8     libucrt:lcidtoname_downlevel.obj
 0002:000040c8       ??_C@_1M@LOICPMOJ@?$AAb?$AAn?$AA?9?$AAI?$AAN?$AA?$AA@ 00000001800360c8     libucrt:lcidtoname_downlevel.obj
 0002:000040d8       ??_C@_1M@KPKKNEAH@?$AAp?$AAa?$AA?9?$AAI?$AAN?$AA?$AA@ 00000001800360d8     libucrt:lcidtoname_downlevel.obj
 0002:000040e8       ??_C@_1M@PJGPPBOG@?$AAg?$AAu?$AA?9?$AAI?$AAN?$AA?$AA@ 00000001800360e8     libucrt:lcidtoname_downlevel.obj
 0002:000040f8       ??_C@_1M@KMKMOPHI@?$AAt?$AAa?$AA?9?$AAI?$AAN?$AA?$AA@ 00000001800360f8     libucrt:lcidtoname_downlevel.obj
 0002:00004108       ??_C@_1M@KFEHEPAC@?$AAt?$AAe?$AA?9?$AAI?$AAN?$AA?$AA@ 0000000180036108     libucrt:lcidtoname_downlevel.obj
 0002:00004118       ??_C@_1M@CDCLMGHI@?$AAk?$AAn?$AA?9?$AAI?$AAN?$AA?$AA@ 0000000180036118     libucrt:lcidtoname_downlevel.obj
 0002:00004128       ??_C@_1M@MIODLDKF@?$AAm?$AAl?$AA?9?$AAI?$AAN?$AA?$AA@ 0000000180036128     libucrt:lcidtoname_downlevel.obj
 0002:00004138       ??_C@_1M@PBIEACPO@?$AAm?$AAr?$AA?9?$AAI?$AAN?$AA?$AA@ 0000000180036138     libucrt:lcidtoname_downlevel.obj
 0002:00004148       ??_C@_1M@NIDEAGPH@?$AAs?$AAa?$AA?9?$AAI?$AAN?$AA?$AA@ 0000000180036148     libucrt:lcidtoname_downlevel.obj
 0002:00004158       ??_C@_1M@FHIHCBIO@?$AAm?$AAn?$AA?9?$AAM?$AAN?$AA?$AA@ 0000000180036158     libucrt:lcidtoname_downlevel.obj
 0002:00004168       ??_C@_1M@JAIJPENP@?$AAc?$AAy?$AA?9?$AAG?$AAB?$AA?$AA@ 0000000180036168     libucrt:lcidtoname_downlevel.obj
 0002:00004178       ??_C@_1M@PHGFBEPN@?$AAg?$AAl?$AA?9?$AAE?$AAS?$AA?$AA@ 0000000180036178     libucrt:lcidtoname_downlevel.obj
 0002:00004188       ??_C@_1O@KPIPDNCP@?$AAk?$AAo?$AAk?$AA?9?$AAI?$AAN?$AA?$AA@ 0000000180036188     libucrt:lcidtoname_downlevel.obj
 0002:00004198       ??_C@_1O@KNHJLDJA@?$AAs?$AAy?$AAr?$AA?9?$AAS?$AAY?$AA?$AA@ 0000000180036198     libucrt:lcidtoname_downlevel.obj
 0002:000041a8       ??_C@_1O@MKEKBLAH@?$AAd?$AAi?$AAv?$AA?9?$AAM?$AAV?$AA?$AA@ 00000001800361a8     libucrt:lcidtoname_downlevel.obj
 0002:000041b8       ??_C@_1O@OHDCKDDF@?$AAq?$AAu?$AAz?$AA?9?$AAB?$AAO?$AA?$AA@ 00000001800361b8     libucrt:lcidtoname_downlevel.obj
 0002:000041c8       ??_C@_1M@LEPJNLFD@?$AAn?$AAs?$AA?9?$AAZ?$AAA?$AA?$AA@ 00000001800361c8     libucrt:lcidtoname_downlevel.obj
 0002:000041d8       ??_C@_1M@OMLEIIJB@?$AAm?$AAi?$AA?9?$AAN?$AAZ?$AA?$AA@ 00000001800361d8     libucrt:lcidtoname_downlevel.obj
 0002:000041e8       ??_C@_1M@PMPEAILG@?$AAa?$AAr?$AA?9?$AAI?$AAQ?$AA?$AA@ 00000001800361e8     libucrt:lcidtoname_downlevel.obj
 0002:000041f8       ??_C@_1M@CNKPNOEE@?$AAd?$AAe?$AA?9?$AAC?$AAH?$AA?$AA@ 00000001800361f8     libucrt:lcidtoname_downlevel.obj
 0002:00004208       ??_C@_1M@LKMGMLKO@?$AAe?$AAn?$AA?9?$AAG?$AAB?$AA?$AA@ 0000000180036208     libucrt:lcidtoname_downlevel.obj
 0002:00004218       ??_C@_1M@PGKJFFGL@?$AAe?$AAs?$AA?9?$AAM?$AAX?$AA?$AA@ 0000000180036218     libucrt:lcidtoname_downlevel.obj
 0002:00004228       ??_C@_1M@DNNANBDC@?$AAf?$AAr?$AA?9?$AAB?$AAE?$AA?$AA@ 0000000180036228     libucrt:lcidtoname_downlevel.obj
 0002:00004238       ??_C@_1M@HLGMDFHM@?$AAi?$AAt?$AA?9?$AAC?$AAH?$AA?$AA@ 0000000180036238     libucrt:lcidtoname_downlevel.obj
 0002:00004248       ??_C@_1M@CLLBGJH@?$AAn?$AAl?$AA?9?$AAB?$AAE?$AA?$AA@ 0000000180036248     libucrt:lcidtoname_downlevel.obj
 0002:00004258       ??_C@_1M@BODBOGLF@?$AAn?$AAn?$AA?9?$AAN?$AAO?$AA?$AA@ 0000000180036258     libucrt:lcidtoname_downlevel.obj
 0002:00004268       ??_C@_1M@HFFAHKAD@?$AAp?$AAt?$AA?9?$AAP?$AAT?$AA?$AA@ 0000000180036268     libucrt:lcidtoname_downlevel.obj
 0002:00004278       ??_C@_1BG@LNOAKHIE@?$AAs?$AAr?$AA?9?$AAS?$AAP?$AA?9?$AAL?$AAa?$AAt?$AAn?$AA?$AA@ 0000000180036278     libucrt:lcidtoname_downlevel.obj
 0002:00004290       ??_C@_1M@HBMHBGAK@?$AAs?$AAv?$AA?9?$AAF?$AAI?$AA?$AA@ 0000000180036290     libucrt:lcidtoname_downlevel.obj
 0002:000042a0       ??_C@_1BG@DGCJGJBE@?$AAa?$AAz?$AA?9?$AAA?$AAZ?$AA?9?$AAC?$AAy?$AAr?$AAl?$AA?$AA@ 00000001800362a0     libucrt:lcidtoname_downlevel.obj
 0002:000042b8       ??_C@_1M@KEJDAAHB@?$AAs?$AAe?$AA?9?$AAS?$AAE?$AA?$AA@ 00000001800362b8     libucrt:lcidtoname_downlevel.obj
 0002:000042c8       ??_C@_1M@HEIBJJAD@?$AAm?$AAs?$AA?9?$AAB?$AAN?$AA?$AA@ 00000001800362c8     libucrt:lcidtoname_downlevel.obj
 0002:000042d8       ??_C@_1BG@PBGJMCEM@?$AAu?$AAz?$AA?9?$AAU?$AAZ?$AA?9?$AAC?$AAy?$AAr?$AAl?$AA?$AA@ 00000001800362d8     libucrt:lcidtoname_downlevel.obj
 0002:000042f0       ??_C@_1O@LAOBCMDF@?$AAq?$AAu?$AAz?$AA?9?$AAE?$AAC?$AA?$AA@ 00000001800362f0     libucrt:lcidtoname_downlevel.obj
 0002:00004300       ??_C@_1M@POEEMAIO@?$AAa?$AAr?$AA?9?$AAE?$AAG?$AA?$AA@ 0000000180036300     libucrt:lcidtoname_downlevel.obj
 0002:00004310       ??_C@_1M@EFAKDEDL@?$AAz?$AAh?$AA?9?$AAH?$AAK?$AA?$AA@ 0000000180036310     libucrt:lcidtoname_downlevel.obj
 0002:00004320       ??_C@_1M@HKKIJHGI@?$AAd?$AAe?$AA?9?$AAA?$AAT?$AA?$AA@ 0000000180036320     libucrt:lcidtoname_downlevel.obj
 0002:00004330       ??_C@_1M@KBFBEHJF@?$AAe?$AAn?$AA?9?$AAA?$AAU?$AA?$AA@ 0000000180036330     libucrt:lcidtoname_downlevel.obj
 0002:00004340       ??_C@_1M@MNPLFAAH@?$AAe?$AAs?$AA?9?$AAE?$AAS?$AA?$AA@ 0000000180036340     libucrt:lcidtoname_downlevel.obj
 0002:00004350       ??_C@_1M@HJOOJFMA@?$AAf?$AAr?$AA?9?$AAC?$AAA?$AA?$AA@ 0000000180036350     libucrt:lcidtoname_downlevel.obj
 0002:00004360       ??_C@_1BG@JPOFPNAB@?$AAs?$AAr?$AA?9?$AAS?$AAP?$AA?9?$AAC?$AAy?$AAr?$AAl?$AA?$AA@ 0000000180036360     libucrt:lcidtoname_downlevel.obj
 0002:00004378       ??_C@_1M@LNFOCMOB@?$AAs?$AAe?$AA?9?$AAF?$AAI?$AA?$AA@ 0000000180036378     libucrt:lcidtoname_downlevel.obj
 0002:00004388       ??_C@_1O@MGJBOAMB@?$AAq?$AAu?$AAz?$AA?9?$AAP?$AAE?$AA?$AA@ 0000000180036388     libucrt:lcidtoname_downlevel.obj
 0002:00004398       ??_C@_1M@GJINLBOK@?$AAa?$AAr?$AA?9?$AAL?$AAY?$AA?$AA@ 0000000180036398     libucrt:lcidtoname_downlevel.obj
 0002:000043a8       ??_C@_1M@GGMNHJNL@?$AAz?$AAh?$AA?9?$AAS?$AAG?$AA?$AA@ 00000001800363a8     libucrt:lcidtoname_downlevel.obj
 0002:000043b8       ??_C@_1M@HOIKODND@?$AAd?$AAe?$AA?9?$AAL?$AAU?$AA?$AA@ 00000001800363b8     libucrt:lcidtoname_downlevel.obj
 0002:000043c8       ??_C@_1M@DDOCCGFG@?$AAe?$AAn?$AA?9?$AAC?$AAA?$AA?$AA@ 00000001800363c8     libucrt:lcidtoname_downlevel.obj
 0002:000043d8       ??_C@_1M@BNOEMJLF@?$AAe?$AAs?$AA?9?$AAG?$AAT?$AA?$AA@ 00000001800363d8     libucrt:lcidtoname_downlevel.obj
 0002:000043e8       ??_C@_1M@EOGNKEK@?$AAf?$AAr?$AA?9?$AAC?$AAH?$AA?$AA@ 00000001800363e8     libucrt:lcidtoname_downlevel.obj
 0002:000043f8       ??_C@_1M@FLIDJFHL@?$AAh?$AAr?$AA?9?$AAB?$AAA?$AA?$AA@ 00000001800363f8     libucrt:lcidtoname_downlevel.obj
 0002:00004408       ??_C@_1O@FMCELNAJ@?$AAs?$AAm?$AAj?$AA?9?$AAN?$AAO?$AA?$AA@ 0000000180036408     libucrt:lcidtoname_downlevel.obj
 0002:00004418       ??_C@_1M@JHGLJMGJ@?$AAa?$AAr?$AA?9?$AAD?$AAZ?$AA?$AA@ 0000000180036418     libucrt:lcidtoname_downlevel.obj
 0002:00004428       ??_C@_1M@JKKFDCNP@?$AAz?$AAh?$AA?9?$AAM?$AAO?$AA?$AA@ 0000000180036428     libucrt:lcidtoname_downlevel.obj
 0002:00004438       ??_C@_1M@GEEFALPE@?$AAd?$AAe?$AA?9?$AAL?$AAI?$AA?$AA@ 0000000180036438     libucrt:lcidtoname_downlevel.obj
 0002:00004448       ??_C@_1M@IGEOFBG@?$AAe?$AAn?$AA?9?$AAN?$AAZ?$AA?$AA@ 0000000180036448     libucrt:lcidtoname_downlevel.obj
 0002:00004458       ??_C@_1M@KDBONEHP@?$AAe?$AAs?$AA?9?$AAC?$AAR?$AA?$AA@ 0000000180036458     libucrt:lcidtoname_downlevel.obj
 0002:00004468       ??_C@_1M@FHMDOHNN@?$AAf?$AAr?$AA?9?$AAL?$AAU?$AA?$AA@ 0000000180036468     libucrt:lcidtoname_downlevel.obj
 0002:00004478       ??_C@_1BG@NFKKMAFG@?$AAb?$AAs?$AA?9?$AAB?$AAA?$AA?9?$AAL?$AAa?$AAt?$AAn?$AA?$AA@ 0000000180036478     libucrt:lcidtoname_downlevel.obj
 0002:00004490       ??_C@_1O@IMNBEMCI@?$AAs?$AAm?$AAj?$AA?9?$AAS?$AAE?$AA?$AA@ 0000000180036490     libucrt:lcidtoname_downlevel.obj
 0002:000044a0       ??_C@_1M@DHHMBNDP@?$AAa?$AAr?$AA?9?$AAM?$AAA?$AA?$AA@ 00000001800364a0     libucrt:lcidtoname_downlevel.obj
 0002:000044b0       ??_C@_1M@BNBLJCGH@?$AAe?$AAn?$AA?9?$AAI?$AAE?$AA?$AA@ 00000001800364b0     libucrt:lcidtoname_downlevel.obj
 0002:000044c0       ??_C@_1M@GEPAFMDL@?$AAe?$AAs?$AA?9?$AAP?$AAA?$AA?$AA@ 00000001800364c0     libucrt:lcidtoname_downlevel.obj
 0002:000044d0       ??_C@_1M@OJONDMDL@?$AAf?$AAr?$AA?9?$AAM?$AAC?$AA?$AA@ 00000001800364d0     libucrt:lcidtoname_downlevel.obj
 0002:000044e0       ??_C@_1BG@OBCNFJB@?$AAs?$AAr?$AA?9?$AAB?$AAA?$AA?9?$AAL?$AAa?$AAt?$AAn?$AA?$AA@ 00000001800364e0     libucrt:lcidtoname_downlevel.obj
 0002:000044f8       ??_C@_1O@KEMEEGPO@?$AAs?$AAm?$AAa?$AA?9?$AAN?$AAO?$AA?$AA@ 00000001800364f8     libucrt:lcidtoname_downlevel.obj
 0002:00004508       ??_C@_1M@ELMGFODK@?$AAa?$AAr?$AA?9?$AAT?$AAN?$AA?$AA@ 0000000180036508     libucrt:lcidtoname_downlevel.obj
 0002:00004518       ??_C@_1M@BHDLHFAF@?$AAe?$AAn?$AA?9?$AAZ?$AAA?$AA?$AA@ 0000000180036518     libucrt:lcidtoname_downlevel.obj
 0002:00004528       ??_C@_1M@BMGIGLIF@?$AAe?$AAs?$AA?9?$AAD?$AAO?$AA?$AA@ 0000000180036528     libucrt:lcidtoname_downlevel.obj
 0002:00004538       ??_C@_1BG@CMBHIPBE@?$AAs?$AAr?$AA?9?$AAB?$AAA?$AA?9?$AAC?$AAy?$AAr?$AAl?$AA?$AA@ 0000000180036538     libucrt:lcidtoname_downlevel.obj
 0002:00004550       ??_C@_1O@HEDBLHNP@?$AAs?$AAm?$AAa?$AA?9?$AAS?$AAE?$AA?$AA@ 0000000180036550     libucrt:lcidtoname_downlevel.obj
 0002:00004560       ??_C@_1M@DAGCADIM@?$AAa?$AAr?$AA?9?$AAO?$AAM?$AA?$AA@ 0000000180036560     libucrt:lcidtoname_downlevel.obj
 0002:00004570       ??_C@_1M@FODLMICG@?$AAe?$AAn?$AA?9?$AAJ?$AAM?$AA?$AA@ 0000000180036570     libucrt:lcidtoname_downlevel.obj
 0002:00004580       ??_C@_1M@DNMLCIHB@?$AAe?$AAs?$AA?9?$AAV?$AAE?$AA?$AA@ 0000000180036580     libucrt:lcidtoname_downlevel.obj
 0002:00004590       ??_C@_1O@EOKHMKJK@?$AAs?$AAm?$AAs?$AA?9?$AAF?$AAI?$AA?$AA@ 0000000180036590     libucrt:lcidtoname_downlevel.obj
 0002:000045a0       ??_C@_1M@CAFJMKOF@?$AAa?$AAr?$AA?9?$AAY?$AAE?$AA?$AA@ 00000001800365a0     libucrt:lcidtoname_downlevel.obj
 0002:000045b0       ??_C@_1M@CBFHIJLI@?$AAe?$AAn?$AA?9?$AAC?$AAB?$AA?$AA@ 00000001800365b0     libucrt:lcidtoname_downlevel.obj
 0002:000045c0       ??_C@_1M@BGNFLDN@?$AAe?$AAs?$AA?9?$AAC?$AAO?$AA?$AA@ 00000001800365c0     libucrt:lcidtoname_downlevel.obj
 0002:000045d0       ??_C@_1O@JMPHMAMC@?$AAs?$AAm?$AAn?$AA?9?$AAF?$AAI?$AA?$AA@ 00000001800365d0     libucrt:lcidtoname_downlevel.obj
 0002:000045e0       ??_C@_1M@JLANABKE@?$AAa?$AAr?$AA?9?$AAS?$AAY?$AA?$AA@ 00000001800365e0     libucrt:lcidtoname_downlevel.obj
 0002:000045f0       ??_C@_1M@HPKGCFGN@?$AAe?$AAn?$AA?9?$AAB?$AAZ?$AA?$AA@ 00000001800365f0     libucrt:lcidtoname_downlevel.obj
 0002:00004600       ??_C@_1M@OLJCMLGM@?$AAe?$AAs?$AA?9?$AAP?$AAE?$AA?$AA@ 0000000180036600     libucrt:lcidtoname_downlevel.obj
 0002:00004610       ??_C@_1M@MKKGFKLE@?$AAa?$AAr?$AA?9?$AAJ?$AAO?$AA?$AA@ 0000000180036610     libucrt:lcidtoname_downlevel.obj
 0002:00004620       ??_C@_1M@EKPGLDNI@?$AAe?$AAn?$AA?9?$AAT?$AAT?$AA?$AA@ 0000000180036620     libucrt:lcidtoname_downlevel.obj
 0002:00004630       ??_C@_1M@OONGHFHE@?$AAe?$AAs?$AA?9?$AAA?$AAR?$AA?$AA@ 0000000180036630     libucrt:lcidtoname_downlevel.obj
 0002:00004640       ??_C@_1M@OOJFGBHE@?$AAa?$AAr?$AA?9?$AAL?$AAB?$AA?$AA@ 0000000180036640     libucrt:lcidtoname_downlevel.obj
 0002:00004650       ??_C@_1M@GCEJHNEG@?$AAe?$AAn?$AA?9?$AAZ?$AAW?$AA?$AA@ 0000000180036650     libucrt:lcidtoname_downlevel.obj
 0002:00004660       ??_C@_1M@JNOCAHJI@?$AAe?$AAs?$AA?9?$AAE?$AAC?$AA?$AA@ 0000000180036660     libucrt:lcidtoname_downlevel.obj
 0002:00004670       ??_C@_1M@JEFHPGGB@?$AAa?$AAr?$AA?9?$AAK?$AAW?$AA?$AA@ 0000000180036670     libucrt:lcidtoname_downlevel.obj
 0002:00004680       ??_C@_1M@MLKIBJOJ@?$AAe?$AAn?$AA?9?$AAP?$AAH?$AA?$AA@ 0000000180036680     libucrt:lcidtoname_downlevel.obj
 0002:00004690       ??_C@_1M@BDNIPEND@?$AAe?$AAs?$AA?9?$AAC?$AAL?$AA?$AA@ 0000000180036690     libucrt:lcidtoname_downlevel.obj
 0002:000046a0       ??_C@_1M@MPNMEKBD@?$AAa?$AAr?$AA?9?$AAA?$AAE?$AA?$AA@ 00000001800366a0     libucrt:lcidtoname_downlevel.obj
 0002:000046b0       ??_C@_1M@KBJALCPI@?$AAe?$AAs?$AA?9?$AAU?$AAY?$AA?$AA@ 00000001800366b0     libucrt:lcidtoname_downlevel.obj
 0002:000046c0       ??_C@_1M@LLCCOAGA@?$AAa?$AAr?$AA?9?$AAB?$AAH?$AA?$AA@ 00000001800366c0     libucrt:lcidtoname_downlevel.obj
 0002:000046d0       ??_C@_1M@PBFNCDEL@?$AAe?$AAs?$AA?9?$AAP?$AAY?$AA?$AA@ 00000001800366d0     libucrt:lcidtoname_downlevel.obj
 0002:000046e0       ??_C@_1M@EDGINPNP@?$AAa?$AAr?$AA?9?$AAQ?$AAA?$AA?$AA@ 00000001800366e0     libucrt:lcidtoname_downlevel.obj
 0002:000046f0       ??_C@_1M@MKDBIIJI@?$AAe?$AAs?$AA?9?$AAB?$AAO?$AA?$AA@ 00000001800366f0     libucrt:lcidtoname_downlevel.obj
 0002:00004700       ??_C@_1M@CPKKEBLD@?$AAe?$AAs?$AA?9?$AAS?$AAV?$AA?$AA@ 0000000180036700     libucrt:lcidtoname_downlevel.obj
 0002:00004710       ??_C@_1M@NDBGMMJL@?$AAe?$AAs?$AA?9?$AAH?$AAN?$AA?$AA@ 0000000180036710     libucrt:lcidtoname_downlevel.obj
 0002:00004720       ??_C@_1M@JIJIBHDP@?$AAe?$AAs?$AA?9?$AAN?$AAI?$AA?$AA@ 0000000180036720     libucrt:lcidtoname_downlevel.obj
 0002:00004730       ??_C@_1M@CGFMKEEK@?$AAe?$AAs?$AA?9?$AAP?$AAR?$AA?$AA@ 0000000180036730     libucrt:lcidtoname_downlevel.obj
 0002:00004740       ??_C@_1O@ICJHKIIK@?$AAz?$AAh?$AA?9?$AAC?$AAH?$AAT?$AA?$AA@ 0000000180036740     libucrt:lcidtoname_downlevel.obj
 0002:00004750       ??_C@_15CLNEJCE@?$AAs?$AAr?$AA?$AA@ 0000000180036750     libucrt:lcidtoname_downlevel.obj
 0002:000055a0       ??_C@_1M@KAHEKEIG@?$AAa?$AAf?$AA?9?$AAz?$AAa?$AA?$AA@ 00000001800375a0     libucrt:lcidtoname_downlevel.obj
 0002:000055b0       ??_C@_1M@GIECOABL@?$AAa?$AAr?$AA?9?$AAa?$AAe?$AA?$AA@ 00000001800375b0     libucrt:lcidtoname_downlevel.obj
 0002:000055c0       ??_C@_1M@BMLMEKGI@?$AAa?$AAr?$AA?9?$AAb?$AAh?$AA?$AA@ 00000001800375c0     libucrt:lcidtoname_downlevel.obj
 0002:000055d0       ??_C@_1M@DAPFDGGB@?$AAa?$AAr?$AA?9?$AAd?$AAz?$AA?$AA@ 00000001800375d0     libucrt:lcidtoname_downlevel.obj
 0002:000055e0       ??_C@_1M@FJNKGKIG@?$AAa?$AAr?$AA?9?$AAe?$AAg?$AA?$AA@ 00000001800375e0     libucrt:lcidtoname_downlevel.obj
 0002:000055f0       ??_C@_1M@FLGKKCLO@?$AAa?$AAr?$AA?9?$AAi?$AAq?$AA?$AA@ 00000001800375f0     libucrt:lcidtoname_downlevel.obj
 0002:00005600       ??_C@_1M@GNDIPALM@?$AAa?$AAr?$AA?9?$AAj?$AAo?$AA?$AA@ 0000000180037600     libucrt:lcidtoname_downlevel.obj
 0002:00005610       ??_C@_1M@DDMJFMGJ@?$AAa?$AAr?$AA?9?$AAk?$AAw?$AA?$AA@ 0000000180037610     libucrt:lcidtoname_downlevel.obj
 0002:00005620       ??_C@_1M@EJALMLHM@?$AAa?$AAr?$AA?9?$AAl?$AAb?$AA?$AA@ 0000000180037620     libucrt:lcidtoname_downlevel.obj
 0002:00005630       ??_C@_1M@MOBDBLOC@?$AAa?$AAr?$AA?9?$AAl?$AAy?$AA?$AA@ 0000000180037630     libucrt:lcidtoname_downlevel.obj
 0002:00005640       ??_C@_1M@JAOCLHDH@?$AAa?$AAr?$AA?9?$AAm?$AAa?$AA?$AA@ 0000000180037640     libucrt:lcidtoname_downlevel.obj
 0002:00005650       ??_C@_1M@JHPMKJIE@?$AAa?$AAr?$AA?9?$AAo?$AAm?$AA?$AA@ 0000000180037650     libucrt:lcidtoname_downlevel.obj
 0002:00005660       ??_C@_1M@OEPGHFNH@?$AAa?$AAr?$AA?9?$AAq?$AAa?$AA?$AA@ 0000000180037660     libucrt:lcidtoname_downlevel.obj
 0002:00005670       ??_C@_1M@KJDONENM@?$AAa?$AAr?$AA?9?$AAs?$AAa?$AA?$AA@ 0000000180037670     libucrt:lcidtoname_downlevel.obj
 0002:00005680       ??_C@_1M@DMJDKLKM@?$AAa?$AAr?$AA?9?$AAs?$AAy?$AA?$AA@ 0000000180037680     libucrt:lcidtoname_downlevel.obj
 0002:00005690       ??_C@_1M@OMFIPEDC@?$AAa?$AAr?$AA?9?$AAt?$AAn?$AA?$AA@ 0000000180037690     libucrt:lcidtoname_downlevel.obj
 0002:000056a0       ??_C@_1M@IHMHGAON@?$AAa?$AAr?$AA?9?$AAy?$AAe?$AA?$AA@ 00000001800376a0     libucrt:lcidtoname_downlevel.obj
 0002:000056b0       ??_C@_1BG@KDCPGJGB@?$AAa?$AAz?$AA?9?$AAa?$AAz?$AA?9?$AAc?$AAy?$AAr?$AAl?$AA?$AA@ 00000001800376b0     libucrt:lcidtoname_downlevel.obj
 0002:000056c8       ??_C@_1BG@IBCKDDOE@?$AAa?$AAz?$AA?9?$AAa?$AAz?$AA?9?$AAl?$AAa?$AAt?$AAn?$AA?$AA@ 00000001800376c8     libucrt:lcidtoname_downlevel.obj
 0002:000056e0       ??_C@_1M@EGPFDCPD@?$AAb?$AAe?$AA?9?$AAb?$AAy?$AA?$AA@ 00000001800376e0     libucrt:lcidtoname_downlevel.obj
 0002:000056f0       ??_C@_1M@PCMGMCGC@?$AAb?$AAg?$AA?9?$AAb?$AAg?$AA?$AA@ 00000001800376f0     libucrt:lcidtoname_downlevel.obj
 0002:00005700       ??_C@_1M@BJBMFGOB@?$AAb?$AAn?$AA?9?$AAi?$AAn?$AA?$AA@ 0000000180037700     libucrt:lcidtoname_downlevel.obj
 0002:00005710       ??_C@_1BG@EAKMMACD@?$AAb?$AAs?$AA?9?$AAb?$AAa?$AA?9?$AAl?$AAa?$AAt?$AAn?$AA?$AA@ 0000000180037710     libucrt:lcidtoname_downlevel.obj
 0002:00005728       ??_C@_1M@KGADAODK@?$AAc?$AAa?$AA?9?$AAe?$AAs?$AA?$AA@ 0000000180037728     libucrt:lcidtoname_downlevel.obj
 0002:00005738       ??_C@_1M@COAJPDHI@?$AAc?$AAs?$AA?9?$AAc?$AAz?$AA?$AA@ 0000000180037738     libucrt:lcidtoname_downlevel.obj
 0002:00005748       ??_C@_1M@DHBHFONH@?$AAc?$AAy?$AA?9?$AAg?$AAb?$AA?$AA@ 0000000180037748     libucrt:lcidtoname_downlevel.obj
 0002:00005758       ??_C@_1M@IMGKELGA@?$AAd?$AAa?$AA?9?$AAd?$AAk?$AA?$AA@ 0000000180037758     libucrt:lcidtoname_downlevel.obj
 0002:00005768       ??_C@_1M@NNDGDNGA@?$AAd?$AAe?$AA?9?$AAa?$AAt?$AA?$AA@ 0000000180037768     libucrt:lcidtoname_downlevel.obj
 0002:00005778       ??_C@_1M@IKDBHEEM@?$AAd?$AAe?$AA?9?$AAc?$AAh?$AA?$AA@ 0000000180037778     libucrt:lcidtoname_downlevel.obj
 0002:00005788       ??_C@_1M@GFFOJMCJ@?$AAd?$AAe?$AA?9?$AAd?$AAe?$AA?$AA@ 0000000180037788     libucrt:lcidtoname_downlevel.obj
 0002:00005798       ??_C@_1M@MDNLKBPM@?$AAd?$AAe?$AA?9?$AAl?$AAi?$AA?$AA@ 0000000180037798     libucrt:lcidtoname_downlevel.obj
 0002:000057a8       ??_C@_1M@NJBEEJNL@?$AAd?$AAe?$AA?9?$AAl?$AAu?$AA?$AA@ 00000001800377a8     libucrt:lcidtoname_downlevel.obj
 0002:000057b8       ??_C@_1O@GNNELBAP@?$AAd?$AAi?$AAv?$AA?9?$AAm?$AAv?$AA?$AA@ 00000001800377b8     libucrt:lcidtoname_downlevel.obj
 0002:000057c8       ??_C@_1M@EJLEOGAE@?$AAe?$AAl?$AA?9?$AAg?$AAr?$AA?$AA@ 00000001800377c8     libucrt:lcidtoname_downlevel.obj
 0002:000057d8       ??_C@_1M@GMPONJN@?$AAe?$AAn?$AA?9?$AAa?$AAu?$AA?$AA@ 00000001800377d8     libucrt:lcidtoname_downlevel.obj
 0002:000057e8       ??_C@_1M@NIDIIPGF@?$AAe?$AAn?$AA?9?$AAb?$AAz?$AA?$AA@ 00000001800377e8     libucrt:lcidtoname_downlevel.obj
 0002:000057f8       ??_C@_1M@JEHMIMFO@?$AAe?$AAn?$AA?9?$AAc?$AAa?$AA?$AA@ 00000001800377f8     libucrt:lcidtoname_downlevel.obj
 0002:00005808       ??_C@_1M@IGMJCDLA@?$AAe?$AAn?$AA?9?$AAc?$AAb?$AA?$AA@ 0000000180037808     libucrt:lcidtoname_downlevel.obj
 0002:00005818       ??_C@_1M@BNFIGBKG@?$AAe?$AAn?$AA?9?$AAg?$AAb?$AA?$AA@ 0000000180037818     libucrt:lcidtoname_downlevel.obj
 0002:00005828       ??_C@_1M@LKIFDIGP@?$AAe?$AAn?$AA?9?$AAi?$AAe?$AA?$AA@ 0000000180037828     libucrt:lcidtoname_downlevel.obj
 0002:00005838       ??_C@_1M@PJKFGCCO@?$AAe?$AAn?$AA?9?$AAj?$AAm?$AA?$AA@ 0000000180037838     libucrt:lcidtoname_downlevel.obj
 0002:00005848       ??_C@_1M@KPPKEPBO@?$AAe?$AAn?$AA?9?$AAn?$AAz?$AA?$AA@ 0000000180037848     libucrt:lcidtoname_downlevel.obj
 0002:00005858       ??_C@_1M@GMDGLDOB@?$AAe?$AAn?$AA?9?$AAp?$AAh?$AA?$AA@ 0000000180037858     libucrt:lcidtoname_downlevel.obj
 0002:00005868       ??_C@_1M@ONGIBJNA@?$AAe?$AAn?$AA?9?$AAt?$AAt?$AA?$AA@ 0000000180037868     libucrt:lcidtoname_downlevel.obj
 0002:00005878       ??_C@_1M@LLODPCMM@?$AAe?$AAn?$AA?9?$AAu?$AAs?$AA?$AA@ 0000000180037878     libucrt:lcidtoname_downlevel.obj
 0002:00005888       ??_C@_1M@LAKFNPAN@?$AAe?$AAn?$AA?9?$AAz?$AAa?$AA?$AA@ 0000000180037888     libucrt:lcidtoname_downlevel.obj
 0002:00005898       ??_C@_1M@MFNHNHEO@?$AAe?$AAn?$AA?9?$AAz?$AAw?$AA?$AA@ 0000000180037898     libucrt:lcidtoname_downlevel.obj
 0002:000058a8       ??_C@_1M@EJEINPHM@?$AAe?$AAs?$AA?9?$AAa?$AAr?$AA?$AA@ 00000001800378a8     libucrt:lcidtoname_downlevel.obj
 0002:000058b8       ??_C@_1M@GNKPCCJA@?$AAe?$AAs?$AA?9?$AAb?$AAo?$AA?$AA@ 00000001800378b8     libucrt:lcidtoname_downlevel.obj
 0002:000058c8       ??_C@_1M@LEEGFONL@?$AAe?$AAs?$AA?9?$AAc?$AAl?$AA?$AA@ 00000001800378c8     libucrt:lcidtoname_downlevel.obj
 0002:000058d8       ??_C@_1M@KGPDPBDF@?$AAe?$AAs?$AA?9?$AAc?$AAo?$AA?$AA@ 00000001800378d8     libucrt:lcidtoname_downlevel.obj
 0002:000058e8       ??_C@_1M@EIAHOHH@?$AAe?$AAs?$AA?9?$AAc?$AAr?$AA?$AA@ 00000001800378e8     libucrt:lcidtoname_downlevel.obj
 0002:000058f8       ??_C@_1M@LLPGMBIN@?$AAe?$AAs?$AA?9?$AAd?$AAo?$AA?$AA@ 00000001800378f8     libucrt:lcidtoname_downlevel.obj
 0002:00005908       ??_C@_1M@DKHMKNJA@?$AAe?$AAs?$AA?9?$AAe?$AAc?$AA?$AA@ 0000000180037908     libucrt:lcidtoname_downlevel.obj
 0002:00005918       ??_C@_1M@GKGFPKAP@?$AAe?$AAs?$AA?9?$AAe?$AAs?$AA?$AA@ 0000000180037918     libucrt:lcidtoname_downlevel.obj
 0002:00005928       ??_C@_1M@LKHKGDLN@?$AAe?$AAs?$AA?9?$AAg?$AAt?$AA?$AA@ 0000000180037928     libucrt:lcidtoname_downlevel.obj
 0002:00005938       ??_C@_1M@HEIIGGJD@?$AAe?$AAs?$AA?9?$AAh?$AAn?$AA?$AA@ 0000000180037938     libucrt:lcidtoname_downlevel.obj
 0002:00005948       ??_C@_1M@FBDHPPGD@?$AAe?$AAs?$AA?9?$AAm?$AAx?$AA?$AA@ 0000000180037948     libucrt:lcidtoname_downlevel.obj
 0002:00005958       ??_C@_1M@DPAGLNDH@?$AAe?$AAs?$AA?9?$AAn?$AAi?$AA?$AA@ 0000000180037958     libucrt:lcidtoname_downlevel.obj
 0002:00005968       ??_C@_1M@MDGOPGDD@?$AAe?$AAs?$AA?9?$AAp?$AAa?$AA?$AA@ 0000000180037968     libucrt:lcidtoname_downlevel.obj
 0002:00005978       ??_C@_1M@EMAMGBGE@?$AAe?$AAs?$AA?9?$AAp?$AAe?$AA?$AA@ 0000000180037978     libucrt:lcidtoname_downlevel.obj
 0002:00005988       ??_C@_1M@IBMCAOEC@?$AAe?$AAs?$AA?9?$AAp?$AAr?$AA?$AA@ 0000000180037988     libucrt:lcidtoname_downlevel.obj
 0002:00005998       ??_C@_1M@FGMDIJED@?$AAe?$AAs?$AA?9?$AAp?$AAy?$AA?$AA@ 0000000180037998     libucrt:lcidtoname_downlevel.obj
 0002:000059a8       ??_C@_1M@IIDEOLLL@?$AAe?$AAs?$AA?9?$AAs?$AAv?$AA?$AA@ 00000001800379a8     libucrt:lcidtoname_downlevel.obj
 0002:000059b8       ??_C@_1M@GAOBIPA@?$AAe?$AAs?$AA?9?$AAu?$AAy?$AA?$AA@ 00000001800379b8     libucrt:lcidtoname_downlevel.obj
 0002:000059c8       ??_C@_1M@JKFFICHJ@?$AAe?$AAs?$AA?9?$AAv?$AAe?$AA?$AA@ 00000001800379c8     libucrt:lcidtoname_downlevel.obj
 0002:000059d8       ??_C@_1M@PNMLOJDF@?$AAe?$AAt?$AA?9?$AAe?$AAe?$AA?$AA@ 00000001800379d8     libucrt:lcidtoname_downlevel.obj
 0002:000059e8       ??_C@_1M@GHHLIKEI@?$AAe?$AAu?$AA?9?$AAe?$AAs?$AA?$AA@ 00000001800379e8     libucrt:lcidtoname_downlevel.obj
 0002:000059f8       ??_C@_1M@PBNONODE@?$AAf?$AAa?$AA?9?$AAi?$AAr?$AA?$AA@ 00000001800379f8     libucrt:lcidtoname_downlevel.obj
 0002:00005a08       ??_C@_1M@JEEHPMIL@?$AAf?$AAi?$AA?9?$AAf?$AAi?$AA?$AA@ 0000000180037a08     libucrt:lcidtoname_downlevel.obj
 0002:00005a18       ??_C@_1M@LMDCNDBA@?$AAf?$AAo?$AA?9?$AAf?$AAo?$AA?$AA@ 0000000180037a18     libucrt:lcidtoname_downlevel.obj
 0002:00005a28       ??_C@_1M@JKEOHLDK@?$AAf?$AAr?$AA?9?$AAb?$AAe?$AA?$AA@ 0000000180037a28     libucrt:lcidtoname_downlevel.obj
 0002:00005a38       ??_C@_1M@NOHADPMI@?$AAf?$AAr?$AA?9?$AAc?$AAa?$AA?$AA@ 0000000180037a38     libucrt:lcidtoname_downlevel.obj
 0002:00005a48       ??_C@_1M@KDHIHAEC@?$AAf?$AAr?$AA?9?$AAc?$AAh?$AA?$AA@ 0000000180037a48     libucrt:lcidtoname_downlevel.obj
 0002:00005a58       ??_C@_1M@MMBBFGAK@?$AAf?$AAr?$AA?9?$AAf?$AAr?$AA?$AA@ 0000000180037a58     libucrt:lcidtoname_downlevel.obj
 0002:00005a68       ??_C@_1M@PAFNENNF@?$AAf?$AAr?$AA?9?$AAl?$AAu?$AA?$AA@ 0000000180037a68     libucrt:lcidtoname_downlevel.obj
 0002:00005a78       ??_C@_1M@EOHDJGDD@?$AAf?$AAr?$AA?9?$AAm?$AAc?$AA?$AA@ 0000000180037a78     libucrt:lcidtoname_downlevel.obj
 0002:00005a88       ??_C@_1M@FAPLLOPF@?$AAg?$AAl?$AA?9?$AAe?$AAs?$AA?$AA@ 0000000180037a88     libucrt:lcidtoname_downlevel.obj
 0002:00005a98       ??_C@_1M@FOPBFLOO@?$AAg?$AAu?$AA?9?$AAi?$AAn?$AA?$AA@ 0000000180037a98     libucrt:lcidtoname_downlevel.obj
 0002:00005aa8       ??_C@_1M@KBMCINPM@?$AAh?$AAe?$AA?9?$AAi?$AAl?$AA?$AA@ 0000000180037aa8     libucrt:lcidtoname_downlevel.obj
 0002:00005ab8       ??_C@_1M@BBPHKFPJ@?$AAh?$AAi?$AA?9?$AAi?$AAn?$AA?$AA@ 0000000180037ab8     libucrt:lcidtoname_downlevel.obj
 0002:00005ac8       ??_C@_1M@PMBNDPHD@?$AAh?$AAr?$AA?9?$AAb?$AAa?$AA?$AA@ 0000000180037ac8     libucrt:lcidtoname_downlevel.obj
 0002:00005ad8       ??_C@_1M@BPCKOEGE@?$AAh?$AAr?$AA?9?$AAh?$AAr?$AA?$AA@ 0000000180037ad8     libucrt:lcidtoname_downlevel.obj
 0002:00005ae8       ??_C@_1M@GACBMHKE@?$AAh?$AAu?$AA?9?$AAh?$AAu?$AA?$AA@ 0000000180037ae8     libucrt:lcidtoname_downlevel.obj
 0002:00005af8       ??_C@_1M@MILPAJJC@?$AAh?$AAy?$AA?9?$AAa?$AAm?$AA?$AA@ 0000000180037af8     libucrt:lcidtoname_downlevel.obj
 0002:00005b08       ??_C@_1M@BABBICEC@?$AAi?$AAd?$AA?9?$AAi?$AAd?$AA?$AA@ 0000000180037b08     libucrt:lcidtoname_downlevel.obj
 0002:00005b18       ??_C@_1M@BIKNHHPF@?$AAi?$AAs?$AA?9?$AAi?$AAs?$AA?$AA@ 0000000180037b18     libucrt:lcidtoname_downlevel.obj
 0002:00005b28       ??_C@_1M@NMPCJPHE@?$AAi?$AAt?$AA?9?$AAc?$AAh?$AA?$AA@ 0000000180037b28     libucrt:lcidtoname_downlevel.obj
 0002:00005b38       ??_C@_1M@GHKGFEDF@?$AAi?$AAt?$AA?9?$AAi?$AAt?$AA?$AA@ 0000000180037b38     libucrt:lcidtoname_downlevel.obj
 0002:00005b48       ??_C@_1M@NIEJCJJA@?$AAj?$AAa?$AA?9?$AAj?$AAp?$AA?$AA@ 0000000180037b48     libucrt:lcidtoname_downlevel.obj
 0002:00005b58       ??_C@_1M@JILFNBIM@?$AAk?$AAa?$AA?9?$AAg?$AAe?$AA?$AA@ 0000000180037b58     libucrt:lcidtoname_downlevel.obj
 0002:00005b68       ??_C@_1M@PACPMGPH@?$AAk?$AAk?$AA?9?$AAk?$AAz?$AA?$AA@ 0000000180037b68     libucrt:lcidtoname_downlevel.obj
 0002:00005b78       ??_C@_1M@IELFGMHA@?$AAk?$AAn?$AA?9?$AAi?$AAn?$AA?$AA@ 0000000180037b78     libucrt:lcidtoname_downlevel.obj
 0002:00005b88       ??_C@_1O@IBBJHCH@?$AAk?$AAo?$AAk?$AA?9?$AAi?$AAn?$AA?$AA@ 0000000180037b88     libucrt:lcidtoname_downlevel.obj
 0002:00005b98       ??_C@_1M@DMHAEOGC@?$AAk?$AAo?$AA?9?$AAk?$AAr?$AA?$AA@ 0000000180037b98     libucrt:lcidtoname_downlevel.obj
 0002:00005ba8       ??_C@_1M@HBAHBIGA@?$AAk?$AAy?$AA?9?$AAk?$AAg?$AA?$AA@ 0000000180037ba8     libucrt:lcidtoname_downlevel.obj
 0002:00005bb8       ??_C@_1M@KPMILCJG@?$AAl?$AAt?$AA?9?$AAl?$AAt?$AA?$AA@ 0000000180037bb8     libucrt:lcidtoname_downlevel.obj
 0002:00005bc8       ??_C@_1M@BDEKKCA@?$AAl?$AAv?$AA?9?$AAl?$AAv?$AA?$AA@ 0000000180037bc8     libucrt:lcidtoname_downlevel.obj
 0002:00005bd8       ??_C@_1M@ELCKCCJJ@?$AAm?$AAi?$AA?9?$AAn?$AAz?$AA?$AA@ 0000000180037bd8     libucrt:lcidtoname_downlevel.obj
 0002:00005be8       ??_C@_1M@CBOOLAPA@?$AAm?$AAk?$AA?9?$AAm?$AAk?$AA?$AA@ 0000000180037be8     libucrt:lcidtoname_downlevel.obj
 0002:00005bf8       ??_C@_1M@GPHNBJKN@?$AAm?$AAl?$AA?9?$AAi?$AAn?$AA?$AA@ 0000000180037bf8     libucrt:lcidtoname_downlevel.obj
 0002:00005c08       ??_C@_1M@PABJILIG@?$AAm?$AAn?$AA?9?$AAm?$AAn?$AA?$AA@ 0000000180037c08     libucrt:lcidtoname_downlevel.obj
 0002:00005c18       ??_C@_1M@FGBKKIPG@?$AAm?$AAr?$AA?9?$AAi?$AAn?$AA?$AA@ 0000000180037c18     libucrt:lcidtoname_downlevel.obj
 0002:00005c28       ??_C@_1M@NDBPDDAL@?$AAm?$AAs?$AA?9?$AAb?$AAn?$AA?$AA@ 0000000180037c28     libucrt:lcidtoname_downlevel.obj
 0002:00005c38       ??_C@_1M@OPIHOOPI@?$AAm?$AAs?$AA?9?$AAm?$AAy?$AA?$AA@ 0000000180037c38     libucrt:lcidtoname_downlevel.obj
 0002:00005c48       ??_C@_1M@PPDBCNFM@?$AAm?$AAt?$AA?9?$AAm?$AAt?$AA?$AA@ 0000000180037c48     libucrt:lcidtoname_downlevel.obj
 0002:00005c58       ??_C@_1M@KDJDKMDD@?$AAn?$AAb?$AA?9?$AAn?$AAo?$AA?$AA@ 0000000180037c58     libucrt:lcidtoname_downlevel.obj
 0002:00005c68       ??_C@_1M@KFCFLMJP@?$AAn?$AAl?$AA?9?$AAb?$AAe?$AA?$AA@ 0000000180037c68     libucrt:lcidtoname_downlevel.obj
 0002:00005c78       ??_C@_1M@KPOPDDGO@?$AAn?$AAl?$AA?9?$AAn?$AAl?$AA?$AA@ 0000000180037c78     libucrt:lcidtoname_downlevel.obj
 0002:00005c88       ??_C@_1M@LJKPEMLN@?$AAn?$AAn?$AA?9?$AAn?$AAo?$AA?$AA@ 0000000180037c88     libucrt:lcidtoname_downlevel.obj
 0002:00005c98       ??_C@_1M@BDGHHBFL@?$AAn?$AAs?$AA?9?$AAz?$AAa?$AA?$AA@ 0000000180037c98     libucrt:lcidtoname_downlevel.obj
 0002:00005ca8       ??_C@_1M@IDEHOAP@?$AAp?$AAa?$AA?9?$AAi?$AAn?$AA?$AA@ 0000000180037ca8     libucrt:lcidtoname_downlevel.obj
 0002:00005cb8       ??_C@_1M@HDBKGOGH@?$AAp?$AAl?$AA?9?$AAp?$AAl?$AA?$AA@ 0000000180037cb8     libucrt:lcidtoname_downlevel.obj
 0002:00005cc8       ??_C@_1M@LJLLCMEH@?$AAp?$AAt?$AA?9?$AAb?$AAr?$AA?$AA@ 0000000180037cc8     libucrt:lcidtoname_downlevel.obj
 0002:00005cd8       ??_C@_1M@NCMONAAL@?$AAp?$AAt?$AA?9?$AAp?$AAt?$AA?$AA@ 0000000180037cd8     libucrt:lcidtoname_downlevel.obj
 0002:00005ce8       ??_C@_1O@EAKMAJDN@?$AAq?$AAu?$AAz?$AA?9?$AAb?$AAo?$AA?$AA@ 0000000180037ce8     libucrt:lcidtoname_downlevel.obj
 0002:00005cf8       ??_C@_1O@BHHPIGDN@?$AAq?$AAu?$AAz?$AA?9?$AAe?$AAc?$AA?$AA@ 0000000180037cf8     libucrt:lcidtoname_downlevel.obj
 0002:00005d08       ??_C@_1O@GBAPEKMJ@?$AAq?$AAu?$AAz?$AA?9?$AAp?$AAe?$AA?$AA@ 0000000180037d08     libucrt:lcidtoname_downlevel.obj
 0002:00005d18       ??_C@_1M@CLGLEFBO@?$AAr?$AAo?$AA?9?$AAr?$AAo?$AA?$AA@ 0000000180037d18     libucrt:lcidtoname_downlevel.obj
 0002:00005d28       ??_C@_1M@CEEDODME@?$AAr?$AAu?$AA?9?$AAr?$AAu?$AA?$AA@ 0000000180037d28     libucrt:lcidtoname_downlevel.obj
 0002:00005d38       ??_C@_1M@HPKKKMPP@?$AAs?$AAa?$AA?9?$AAi?$AAn?$AA?$AA@ 0000000180037d38     libucrt:lcidtoname_downlevel.obj
 0002:00005d48       ??_C@_1M@BKMAIGOJ@?$AAs?$AAe?$AA?9?$AAf?$AAi?$AA?$AA@ 0000000180037d48     libucrt:lcidtoname_downlevel.obj
 0002:00005d58       ??_C@_1M@NDPIFLFI@?$AAs?$AAe?$AA?9?$AAn?$AAo?$AA?$AA@ 0000000180037d58     libucrt:lcidtoname_downlevel.obj
 0002:00005d68       ??_C@_1M@DANKKHJ@?$AAs?$AAe?$AA?9?$AAs?$AAe?$AA?$AA@ 0000000180037d68     libucrt:lcidtoname_downlevel.obj
 0002:00005d78       ??_C@_1M@PNBLONPJ@?$AAs?$AAk?$AA?9?$AAs?$AAk?$AA?$AA@ 0000000180037d78     libucrt:lcidtoname_downlevel.obj
 0002:00005d88       ??_C@_1M@LFMODOAL@?$AAs?$AAl?$AA?9?$AAs?$AAi?$AA?$AA@ 0000000180037d88     libucrt:lcidtoname_downlevel.obj
 0002:00005d98       ??_C@_1O@DFKOMPG@?$AAs?$AAm?$AAa?$AA?9?$AAn?$AAo?$AA?$AA@ 0000000180037d98     libucrt:lcidtoname_downlevel.obj
 0002:00005da8       ??_C@_1O@NDKPBNNH@?$AAs?$AAm?$AAa?$AA?9?$AAs?$AAe?$AA?$AA@ 0000000180037da8     libucrt:lcidtoname_downlevel.obj
 0002:00005db8       ??_C@_1O@PLLKBHAB@?$AAs?$AAm?$AAj?$AA?9?$AAn?$AAo?$AA?$AA@ 0000000180037db8     libucrt:lcidtoname_downlevel.obj
 0002:00005dc8       ??_C@_1O@CLEPOGCA@?$AAs?$AAm?$AAj?$AA?9?$AAs?$AAe?$AA?$AA@ 0000000180037dc8     libucrt:lcidtoname_downlevel.obj
 0002:00005dd8       ??_C@_1O@DLGJGKMK@?$AAs?$AAm?$AAn?$AA?9?$AAf?$AAi?$AA?$AA@ 0000000180037dd8     libucrt:lcidtoname_downlevel.obj
 0002:00005de8       ??_C@_1O@OJDJGAJC@?$AAs?$AAm?$AAs?$AA?9?$AAf?$AAi?$AA?$AA@ 0000000180037de8     libucrt:lcidtoname_downlevel.obj
 0002:00005df8       ??_C@_1M@BOFOGHPB@?$AAs?$AAq?$AA?9?$AAa?$AAl?$AA?$AA@ 0000000180037df8     libucrt:lcidtoname_downlevel.obj
 0002:00005e08       ??_C@_1BG@LJBBIPGB@?$AAs?$AAr?$AA?9?$AAb?$AAa?$AA?9?$AAc?$AAy?$AAr?$AAl?$AA?$AA@ 0000000180037e08     libucrt:lcidtoname_downlevel.obj
 0002:00005e20       ??_C@_1BG@JLBENFOE@?$AAs?$AAr?$AA?9?$AAb?$AAa?$AA?9?$AAl?$AAa?$AAt?$AAn?$AA?$AA@ 0000000180037e20     libucrt:lcidtoname_downlevel.obj
 0002:00005e38       ??_C@_1BG@KODPNHE@?$AAs?$AAr?$AA?9?$AAs?$AAp?$AA?9?$AAc?$AAy?$AAr?$AAl?$AA?$AA@ 0000000180037e38     libucrt:lcidtoname_downlevel.obj
 0002:00005e50       ??_C@_1BG@CIOGKHPB@?$AAs?$AAr?$AA?9?$AAs?$AAp?$AA?9?$AAl?$AAa?$AAt?$AAn?$AA?$AA@ 0000000180037e50     libucrt:lcidtoname_downlevel.obj
 0002:00005e68       ??_C@_1M@NGFJLMAC@?$AAs?$AAv?$AA?9?$AAf?$AAi?$AA?$AA@ 0000000180037e68     libucrt:lcidtoname_downlevel.obj
 0002:00005e78       ??_C@_1M@MPJEJAJC@?$AAs?$AAv?$AA?9?$AAs?$AAe?$AA?$AA@ 0000000180037e78     libucrt:lcidtoname_downlevel.obj
 0002:00005e88       ??_C@_1M@MPNDHLFK@?$AAs?$AAw?$AA?9?$AAk?$AAe?$AA?$AA@ 0000000180037e88     libucrt:lcidtoname_downlevel.obj
 0002:00005e98       ??_C@_1O@KOHBJJI@?$AAs?$AAy?$AAr?$AA?9?$AAs?$AAy?$AA?$AA@ 0000000180037e98     libucrt:lcidtoname_downlevel.obj
 0002:00005ea8       ??_C@_1M@LDCEFHA@?$AAt?$AAa?$AA?9?$AAi?$AAn?$AA?$AA@ 0000000180037ea8     libucrt:lcidtoname_downlevel.obj
 0002:00005eb8       ??_C@_1M@CNJOFAK@?$AAt?$AAe?$AA?9?$AAi?$AAn?$AA?$AA@ 0000000180037eb8     libucrt:lcidtoname_downlevel.obj
 0002:00005ec8       ??_C@_1M@GNAECACD@?$AAt?$AAh?$AA?9?$AAt?$AAh?$AA?$AA@ 0000000180037ec8     libucrt:lcidtoname_downlevel.obj
 0002:00005ed8       ??_C@_1M@CHBIHOJO@?$AAt?$AAn?$AA?9?$AAz?$AAa?$AA?$AA@ 0000000180037ed8     libucrt:lcidtoname_downlevel.obj
 0002:00005ee8       ??_C@_1M@GCCMIGPJ@?$AAt?$AAr?$AA?9?$AAt?$AAr?$AA?$AA@ 0000000180037ee8     libucrt:lcidtoname_downlevel.obj
 0002:00005ef8       ??_C@_1M@CELMCNBK@?$AAt?$AAt?$AA?9?$AAr?$AAu?$AA?$AA@ 0000000180037ef8     libucrt:lcidtoname_downlevel.obj
 0002:00005f08       ??_C@_1M@KLMCELGA@?$AAu?$AAk?$AA?9?$AAu?$AAa?$AA?$AA@ 0000000180037f08     libucrt:lcidtoname_downlevel.obj
 0002:00005f18       ??_C@_1M@EPAJJAJF@?$AAu?$AAr?$AA?9?$AAp?$AAk?$AA?$AA@ 0000000180037f18     libucrt:lcidtoname_downlevel.obj
 0002:00005f28       ??_C@_1BG@GEGPMCDJ@?$AAu?$AAz?$AA?9?$AAu?$AAz?$AA?9?$AAc?$AAy?$AAr?$AAl?$AA?$AA@ 0000000180037f28     libucrt:lcidtoname_downlevel.obj
 0002:00005f40       ??_C@_1BG@EGGKJILM@?$AAu?$AAz?$AA?9?$AAu?$AAz?$AA?9?$AAl?$AAa?$AAt?$AAn?$AA?$AA@ 0000000180037f40     libucrt:lcidtoname_downlevel.obj
 0002:00005f58       ??_C@_1M@GFOCLFF@?$AAv?$AAi?$AA?9?$AAv?$AAn?$AA?$AA@ 0000000180037f58     libucrt:lcidtoname_downlevel.obj
 0002:00005f68       ??_C@_1M@CPAMEDFI@?$AAx?$AAh?$AA?9?$AAz?$AAa?$AA?$AA@ 0000000180037f68     libucrt:lcidtoname_downlevel.obj
 0002:00005f78       ??_C@_1O@EBKIFIGN@?$AAz?$AAh?$AA?9?$AAc?$AAh?$AAs?$AA?$AA@ 0000000180037f78     libucrt:lcidtoname_downlevel.obj
 0002:00005f88       ??_C@_1O@NMHPGANE@?$AAz?$AAh?$AA?9?$AAc?$AAh?$AAt?$AA?$AA@ 0000000180037f88     libucrt:lcidtoname_downlevel.obj
 0002:00005f98       ??_C@_1M@LPINJOMC@?$AAz?$AAh?$AA?9?$AAc?$AAn?$AA?$AA@ 0000000180037f98     libucrt:lcidtoname_downlevel.obj
 0002:00005fa8       ??_C@_1M@OCJEJODD@?$AAz?$AAh?$AA?9?$AAh?$AAk?$AA?$AA@ 0000000180037fa8     libucrt:lcidtoname_downlevel.obj
 0002:00005fb8       ??_C@_1M@DNDLJINH@?$AAz?$AAh?$AA?9?$AAm?$AAo?$AA?$AA@ 0000000180037fb8     libucrt:lcidtoname_downlevel.obj
 0002:00005fc8       ??_C@_1M@MBFDNDND@?$AAz?$AAh?$AA?9?$AAs?$AAg?$AA?$AA@ 0000000180037fc8     libucrt:lcidtoname_downlevel.obj
 0002:00005fd8       ??_C@_1M@IMEPLEPE@?$AAz?$AAh?$AA?9?$AAt?$AAw?$AA?$AA@ 0000000180037fd8     libucrt:lcidtoname_downlevel.obj
 0002:00005fe8       ??_C@_1M@BBGHNHJP@?$AAz?$AAu?$AA?9?$AAz?$AAa?$AA?$AA@ 0000000180037fe8     libucrt:lcidtoname_downlevel.obj
 0002:00005ff4       ??_C@_00CNPNBAHC@?$AA@     0000000180037ff4     libucrt:mbrtowc.obj
 0002:00006000       ?large_power_data@?1??multiply_by_power_of_ten@__crt_strtox@@YA_NAEAUbig_integer@2@I@Z@4QBIB 0000000180038000     libucrt:cfout.obj
 0002:00006910       ?large_power_indices@?1??multiply_by_power_of_ten@__crt_strtox@@YA_NAEAUbig_integer@2@I@Z@4QBUunpack_index@?1??12@YA_N0I@Z@B 0000000180038910     libucrt:cfout.obj
 0002:000069a8       ?small_powers_of_ten@?1??multiply_by_power_of_ten@__crt_strtox@@YA_NAEAUbig_integer@2@I@Z@4QBIB 00000001800389a8     libucrt:cfout.obj
 0002:000069cc       ??_C@_01GBGANLPD@0?$AA@    00000001800389cc     libucrt:cfout.obj
 0002:000069d0       ??_C@_05DNEBIAHO@1?$CDINF?$AA@ 00000001800389d0     libucrt:cfout.obj
 0002:000069d8       ??_C@_06IMKFLFPG@1?$CDQNAN?$AA@ 00000001800389d8     libucrt:cfout.obj
 0002:000069e0       ??_C@_06PGGFOGJG@1?$CDSNAN?$AA@ 00000001800389e0     libucrt:cfout.obj
 0002:000069e8       ??_C@_05PHHOCPM@1?$CDIND?$AA@ 00000001800389e8     libucrt:cfout.obj
 0002:000069f0       __real@3ff0000000000000    00000001800389f0     libucrt:ceil.obj
 0002:00006c50       ??_C@_1BA@BALFACEM@?$AAC?$AAO?$AAN?$AAO?$AAU?$AAT?$AA$?$AA?$AA@ 0000000180038c50     libucrt:initcon.obj
 0002:00006c60       __log10_256_lead           0000000180038c60     libucrt:log10_256_lead_tail_table.obj
 0002:00007470       __log10_256_tail           0000000180039470     libucrt:log10_256_lead_tail_table.obj
 0002:00007c80       __log_F_inv_qword          0000000180039c80     libucrt:log_f_inv_qword_table.obj
 0002:00008490       ??_C@_05HGHHAHAP@log10?$AA@ 000000018003a490     libucrt:log_special.obj
 0002:000084b0       ??_C@_1BK@DBDEIDLH@?$AAK?$AAE?$AAR?$AAN?$AAE?$AAL?$AA3?$AA2?$AA?4?$AAD?$AAL?$AAL@ 000000018003a4b0     DelayImp:delayhlp.obj
 0002:000084d0       ??_C@_0BI@OMNLIJDB@AcquireSRWLockExclusive@ 000000018003a4d0     DelayImp:delayhlp.obj
 0002:000084e8       ??_C@_0BI@HMIEPCNJ@ReleaseSRWLockExclusive@ 000000018003a4e8     DelayImp:delayhlp.obj
 0002:00008500       __pfnDliFailureHook2       000000018003a500     DelayImp:delayhk1.obj
 0002:00008510       _load_config_used          000000018003a510     LIBCMT:loadcfg.obj
 0002:00008610       ??_C@_1DG@OKCGPKIB@?$AAp?$AAe?$AAr?$AAs?$AAi?$AAs?$AAt?$AAe?$AAn?$AAt?$AA?$CI?$AA?$CJ?$AA?4?$AAI?$AAs@ 000000018003a610     node-expat.obj
 0002:00008648       ??_C@_1CO@EGNPJLKI@?$AAp?$AAe?$AAr?$AAs?$AAi?$AAs?$AAt?$AAe?$AAn?$AAt?$AA?$CI?$AA?$CJ?$AA?4?$AAI?$AAs@ 000000018003a648     node-expat.obj
 0002:00008678       ??_C@_1DA@FBGAEOIO@?$AA?$CB?$AAp?$AAe?$AAr?$AAs?$AAi?$AAs?$AAt?$AAe?$AAn?$AAt?$AA?$CI?$AA?$CJ?$AA?4?$AAI@ 000000018003a678     node-expat.obj
 0002:000086a8       ??_C@_1CO@JCKLEFMA@?$AA?$CB?$AAp?$AAe?$AAr?$AAs?$AAi?$AAs?$AAt?$AAe?$AAn?$AAt?$AA?$CI?$AA?$CJ?$AA?4?$AAI@ 000000018003a6a8     node-expat.obj
 0002:000086d8       ??_C@_1BE@GMLLOIPJ@?$AAr?$AAe?$AAf?$AAs?$AA_?$AA?5?$AA?$DO?$AA?5?$AA0@ 000000018003a6d8     node-expat.obj
 0002:000086f0       ??_C@_1CC@GBFLAAPF@?$AAw?$AAr?$AAa?$AAp?$AA?9?$AA?$DO?$AAr?$AAe?$AAf?$AAs?$AA_?$AA?5?$AA?$DN?$AA?$DN?$AA?5@ 000000018003a6f0     node-expat.obj
 0002:00008720       ??_C@_1LM@LOIDKDKF@?$AAe?$AA?3?$AA?2?$AAz?$AAe?$AAn?$AAo?$AAp?$AA?2?$AAd?$AAo?$AAc?$AAu?$AAm?$AAe@ 000000018003a720     node-expat.obj
 0002:000087e0       ??_C@_1BO@OPFMAOCA@?$AAl?$AAe?$AAn?$AA?5?$AA?$DM?$AA?$DN?$AA?5?$AAI?$AAN?$AAT?$AA_?$AAM?$AAA?$AAX@ 000000018003a7e0     node-expat.obj
 0002:00008800       ??_C@_1BE@CKDJNAPC@?$AAs?$AAt?$AAr?$AA_?$AA?5?$AA?$CB?$AA?$DN?$AA?5?$AA0@ 000000018003a800     node-expat.obj
 0002:00008820       ??_C@_1NE@EIOMCDAL@?$AAe?$AA?3?$AA?2?$AAz?$AAe?$AAn?$AAo?$AAp?$AA?2?$AAd?$AAo?$AAc?$AAu?$AAm?$AAe@ 000000018003a820     node-expat.obj
 0002:00008900       ??_C@_1EC@MGGLMBLC@?$AAo?$AAb?$AAj?$AAe?$AAc?$AAt?$AA?9?$AA?$DO?$AAI?$AAn?$AAt?$AAe?$AAr?$AAn?$AAa@ 000000018003a900     node-expat.obj
 0002:00008948       ??_C@_1DI@ELDBKNAK@?$AAw?$AAr?$AAa?$AAp?$AA?9?$AA?$DO?$AAh?$AAa?$AAn?$AAd?$AAl?$AAe?$AA_?$AA?4?$AAI@ 000000018003a948     node-expat.obj
 0002:00008980       ??_C@_05GOEGCMJM@parse@    000000018003a980     node-expat.obj
 0002:00008988       ??_C@_0M@FJCOBIHE@setEncoding@ 000000018003a988     node-expat.obj
 0002:00008998       ??_C@_0BD@NCFPJGHI@setUnknownEncoding@ 000000018003a998     node-expat.obj
 0002:000089b0       ??_C@_08OCOLIKNF@getError@ 000000018003a9b0     node-expat.obj
 0002:000089bc       ??_C@_04PEGFANN@stop@      000000018003a9bc     node-expat.obj
 0002:000089c4       ??_C@_06PLELHCEK@resume@   000000018003a9c4     node-expat.obj
 0002:000089cc       ??_C@_05CFMALAOA@reset@    000000018003a9cc     node-expat.obj
 0002:000089d8       ??_C@_0BF@NNHOPLKO@getCurrentLineNumber@ 000000018003a9d8     node-expat.obj
 0002:000089f0       ??_C@_0BH@OEDDKDKJ@getCurrentColumnNumber@ 000000018003a9f0     node-expat.obj
 0002:00008a08       ??_C@_0BE@BPOAILGG@getCurrentByteIndex@ 000000018003aa08     node-expat.obj
 0002:00008a1c       ??_C@_06CLGDLLKL@Parser@   000000018003aa1c     node-expat.obj
 0002:00008a30       ??_C@_1NK@EBJBJHI@?$AAe?$AA?3?$AA?2?$AAz?$AAe?$AAn?$AAo?$AAp?$AA?2?$AAd?$AAo?$AAc?$AAu?$AAm?$AAe@ 000000018003aa30     node-expat.obj
 0002:00008b10       ??_C@_1BO@PPKGEODP@?$AAp?$AAa?$AAr?$AAs?$AAe?$AAr?$AA?5?$AA?$CB?$AA?$DN?$AA?5?$AAN?$AAU?$AAL?$AAL@ 000000018003ab10     node-expat.obj
 0002:00008b30       ??_C@_0CG@LMFBHNNP@Parse?5buffer?5must?5be?5String?5or?5@ 000000018003ab30     node-expat.obj
 0002:00008b58       ??_C@_1BI@ICGGMGLK@?$AAb?$AAu?$AAf?$AA?5?$AA?$CB?$AA?$DN?$AA?5?$AAN?$AAU?$AAL?$AAL@ 000000018003ab58     node-expat.obj
 0002:00008b70       ??_C@_1GI@FDKMMJNH@?$AAs?$AAt?$AAr?$AA?4?$AAW?$AAr?$AAi?$AAt?$AAe?$AAU?$AAt?$AAf?$AA8?$AA?$CI?$AAs@ 000000018003ab70     node-expat.obj
 0002:00008bd8       ??_C@_0N@PECAHNM@startElement@ 000000018003abd8     node-expat.obj
 0002:00008be8       ??_C@_0L@GKEIAKOG@endElement@ 000000018003abe8     node-expat.obj
 0002:00008bf8       ??_C@_0L@PIKKALHC@startCdata@ 000000018003abf8     node-expat.obj
 0002:00008c08       ??_C@_08PMGAFGIG@endCdata@ 000000018003ac08     node-expat.obj
 0002:00008c14       ??_C@_04CIMGMMMG@text@     000000018003ac14     node-expat.obj
 0002:00008c20       ??_C@_0BG@BKBGIBPJ@processingInstruction@ 000000018003ac20     node-expat.obj
 0002:00008c38       ??_C@_07GJGNEJFD@comment@  000000018003ac38     node-expat.obj
 0002:00008c40       ??_C@_07FCGNOANN@xmlDecl@  000000018003ac40     node-expat.obj
 0002:00008c48       ??_C@_0L@OGGGJLI@entityDecl@ 000000018003ac48     node-expat.obj
 0002:00008c58       ??_C@_0BA@DMMGAIKL@unknownEncoding@ 000000018003ac58     node-expat.obj
 0002:00008c70       ??_C@_0FJ@CMONEKKA@setUnknownEncoding?$CI?$CJ?5must?5be?5sy@ 000000018003ac70     node-expat.obj
 0002:00008cd0       ??_C@_0CN@NKFBPONF@UnknownEncoding?5map?5must?5consis@ 000000018003acd0     node-expat.obj
 0002:00008d00       ??_C@_0CH@HNDNKAFP@SetUnknownEncoding?5expects?5a?5ma@ 000000018003ad00     node-expat.obj
 0002:00008d28       ??_C@_04KNBGJDFM@emit@     000000018003ad28     node-expat.obj
 0002:00008d30       ??_C@_0GN@LGEMLHIH@e?3?2zenop?2documents?2tgr2019?2shar@ 000000018003ad30     node-expat.obj
 0002:00008da0       ??_C@_0L@CMNMDGH@node_expat@ 000000018003ada0     node-expat.obj
 0002:00008db0       ??_C@_1CE@LNAGEONJ@?$AA?$CB?$AAo?$AAb?$AAj?$AAe?$AAc?$AAt?$AA?4?$AAI?$AAs?$AAE?$AAm?$AAp?$AAt?$AAy@ 000000018003adb0     node-expat.obj
 0002:00008dd8       ??_7ObjectWrap@Nan@@6B@    000000018003add8     node-expat.obj
 0002:00008df0       ??_7Parser@@6B@            000000018003adf0     node-expat.obj
 0002:00008e08       ??_C@_08HCOMDCCD@iojs?4exe@ 000000018003ae08     win_delay_load_hook.obj
 0002:00008e18       ??_C@_08JDDNMFDB@node?4exe@ 000000018003ae18     win_delay_load_hook.obj
 0002:00008e30       __pfnDliNotifyHook2        000000018003ae30     win_delay_load_hook.obj
 0002:0000b608       ??_C@_0N@JJPEKNFO@ADVAPI32?4DLL@ 000000018003d608     libexpat:xmlparse.obj
 0002:0000b618       ??_C@_0BC@JEAENNKH@SystemFunction036@ 000000018003d618     libexpat:xmlparse.obj
 0002:0000b630       ??_C@_0BE@MOEFKIMK@EXPAT_ENTROPY_DEBUG@ 000000018003d630     libexpat:xmlparse.obj
 0002:0000b644       ??_C@_01HIHLOKLC@1@        000000018003d644     libexpat:xmlparse.obj
 0002:0000b648       ??_C@_0CF@BGBKMAKK@Entropy?3?5?$CFs?5?9?9?$DO?50x?$CF0?$CKlx?5?$CI?$CFlu?5by@ 000000018003d648     libexpat:xmlparse.obj
 0002:0000b670       ??_C@_0N@DNFAPLGG@RtlGenRandom@ 000000018003d670     libexpat:xmlparse.obj
 0002:0000b680       ??_C@_0M@HOLMKBIH@fallback?$CI4?$CJ@ 000000018003d680     libexpat:xmlparse.obj
 0002:0000b690       ??_C@_0O@BNNCBLEN@out?5of?5memory@ 000000018003d690     libexpat:xmlparse.obj
 0002:0000b6a0       ??_C@_0N@MNJHOOI@syntax?5error@ 000000018003d6a0     libexpat:xmlparse.obj
 0002:0000b6b0       ??_C@_0BB@BCAHBADH@no?5element?5found@ 000000018003d6b0     libexpat:xmlparse.obj
 0002:0000b6c8       ??_C@_0CA@BLMFJLH@not?5well?9formed?5?$CIinvalid?5token?$CJ@ 000000018003d6c8     libexpat:xmlparse.obj
 0002:0000b6e8       ??_C@_0P@EFPOEKHH@unclosed?5token@ 000000018003d6e8     libexpat:xmlparse.obj
 0002:0000b6f8       ??_C@_0BC@DLKMMFBA@partial?5character@ 000000018003d6f8     libexpat:xmlparse.obj
 0002:0000b710       ??_C@_0P@BJCMGPB@mismatched?5tag@ 000000018003d710     libexpat:xmlparse.obj
 0002:0000b720       ??_C@_0BE@JIEGOGM@duplicate?5attribute@ 000000018003d720     libexpat:xmlparse.obj
 0002:0000b738       ??_C@_0BM@IPDLAPKG@junk?5after?5document?5element@ 000000018003d738     libexpat:xmlparse.obj
 0002:0000b758       ??_C@_0CD@DPHGJCFM@illegal?5parameter?5entity?5refere@ 000000018003d758     libexpat:xmlparse.obj
 0002:0000b780       ??_C@_0BB@KFIEPEGG@undefined?5entity@ 000000018003d780     libexpat:xmlparse.obj
 0002:0000b798       ??_C@_0BL@OMDFBMFF@recursive?5entity?5reference@ 000000018003d798     libexpat:xmlparse.obj
 0002:0000b7b8       ??_C@_0BE@PDLJJMLG@asynchronous?5entity@ 000000018003d7b8     libexpat:xmlparse.obj
 0002:0000b7d0       ??_C@_0CG@DAIFOKHG@reference?5to?5invalid?5character?5@ 000000018003d7d0     libexpat:xmlparse.obj
 0002:0000b7f8       ??_C@_0BL@LDLBPPBJ@reference?5to?5binary?5entity@ 000000018003d7f8     libexpat:xmlparse.obj
 0002:0000b818       ??_C@_0CK@BFEDEECD@reference?5to?5external?5entity?5in@ 000000018003d818     libexpat:xmlparse.obj
 0002:0000b848       ??_C@_0CP@GDJNCKID@XML?5or?5text?5declaration?5not?5at?5@ 000000018003d848     libexpat:xmlparse.obj
 0002:0000b878       ??_C@_0BB@ICOLFIAA@unknown?5encoding@ 000000018003d878     libexpat:xmlparse.obj
 0002:0000b890       ??_C@_0DD@GOCEPOFM@encoding?5specified?5in?5XML?5decla@ 000000018003d890     libexpat:xmlparse.obj
 0002:0000b8c8       ??_C@_0BH@MDDEMGAA@unclosed?5CDATA?5section@ 000000018003d8c8     libexpat:xmlparse.obj
 0002:0000b8e0       ??_C@_0CO@FNPHCKLH@error?5in?5processing?5external?5en@ 000000018003d8e0     libexpat:xmlparse.obj
 0002:0000b910       ??_C@_0BL@EIMELDJB@document?5is?5not?5standalone@ 000000018003d910     libexpat:xmlparse.obj
 0002:0000b930       ??_C@_0DD@IKDGPBBK@unexpected?5parser?5state?5?9?5pleas@ 000000018003d930     libexpat:xmlparse.obj
 0002:0000b968       ??_C@_0CE@NOGIMGHN@entity?5declared?5in?5parameter?5en@ 000000018003d968     libexpat:xmlparse.obj
 0002:0000b990       ??_C@_0DE@GICHNEBE@requested?5feature?5requires?5XML_@ 000000018003d990     libexpat:xmlparse.obj
 0002:0000b9c8       ??_C@_0CN@OFAMBGCK@cannot?5change?5setting?5once?5pars@ 000000018003d9c8     libexpat:xmlparse.obj
 0002:0000b9f8       ??_C@_0P@JDIHIJCE@unbound?5prefix@ 000000018003d9f8     libexpat:xmlparse.obj
 0002:0000ba08       ??_C@_0BK@MOPPLLIH@must?5not?5undeclare?5prefix@ 000000018003da08     libexpat:xmlparse.obj
 0002:0000ba28       ??_C@_0CG@GAKHJBB@incomplete?5markup?5in?5parameter?5@ 000000018003da28     libexpat:xmlparse.obj
 0002:0000ba50       ??_C@_0CA@MFJNBIIE@XML?5declaration?5not?5well?9formed@ 000000018003da50     libexpat:xmlparse.obj
 0002:0000ba70       ??_C@_0CB@CMKECMLJ@text?5declaration?5not?5well?9forme@ 000000018003da70     libexpat:xmlparse.obj
 0002:0000ba98       ??_C@_0CC@KJFFNAB@illegal?5character?$CIs?$CJ?5in?5public?5@ 000000018003da98     libexpat:xmlparse.obj
 0002:0000bac0       ??_C@_0BB@EMGHLGNF@parser?5suspended@ 000000018003dac0     libexpat:xmlparse.obj
 0002:0000bad8       ??_C@_0BF@IHJDPIFP@parser?5not?5suspended@ 000000018003dad8     libexpat:xmlparse.obj
 0002:0000baf0       ??_C@_0BA@OMEDOLHN@parsing?5aborted@ 000000018003daf0     libexpat:xmlparse.obj
 0002:0000bb00       ??_C@_0BB@JICMAGEA@parsing?5finished@ 000000018003db00     libexpat:xmlparse.obj
 0002:0000bb18       ??_C@_0CM@DAGNAICL@cannot?5suspend?5in?5external?5para@ 000000018003db18     libexpat:xmlparse.obj
 0002:0000bb50       ??_C@_0FA@GCHHMGIN@reserved?5prefix?5?$CIxml?$CJ?5must?5not?5@ 000000018003db50     libexpat:xmlparse.obj
 0002:0000bba0       ??_C@_0DL@LHGBEOM@reserved?5prefix?5?$CIxmlns?$CJ?5must?5no@ 000000018003dba0     libexpat:xmlparse.obj
 0002:0000bbe0       ??_C@_0EA@IHHBKGMF@prefix?5must?5not?5be?5bound?5to?5one@ 000000018003dbe0     libexpat:xmlparse.obj
 0002:0000bc20       ??_C@_0BB@MAAMGNOO@sizeof?$CIXML_Char?$CJ@ 000000018003dc20     libexpat:xmlparse.obj
 0002:0000bc38       ??_C@_0BC@LHECICLE@sizeof?$CIXML_LChar?$CJ@ 000000018003dc38     libexpat:xmlparse.obj
 0002:0000bc50       ??_C@_07BAMNINFG@XML_DTD@  000000018003dc50     libexpat:xmlparse.obj
 0002:0000bc58       ??_C@_0BC@NAONLODN@XML_CONTEXT_BYTES@ 000000018003dc58     libexpat:xmlparse.obj
 0002:0000bc6c       ??_C@_06CEJAJKAC@XML_NS@   000000018003dc6c     libexpat:xmlparse.obj
 0002:0000bcf0       ??_R4exception@std@@6B@    000000018003dcf0     LIBCMT:throw_bad_alloc.obj
 0002:0000bd18       ??_R3exception@std@@8      000000018003dd18     LIBCMT:throw_bad_alloc.obj
 0002:0000bd30       ??_R2exception@std@@8      000000018003dd30     LIBCMT:throw_bad_alloc.obj
 0002:0000bd40       ??_R1A@?0A@EA@exception@std@@8 000000018003dd40     LIBCMT:throw_bad_alloc.obj
 0002:0000bd68       ??_R4bad_alloc@std@@6B@    000000018003dd68     LIBCMT:throw_bad_alloc.obj
 0002:0000bd90       ??_R3bad_alloc@std@@8      000000018003dd90     LIBCMT:throw_bad_alloc.obj
 0002:0000bda8       ??_R2bad_alloc@std@@8      000000018003dda8     LIBCMT:throw_bad_alloc.obj
 0002:0000bdc0       ??_R1A@?0A@EA@bad_alloc@std@@8 000000018003ddc0     LIBCMT:throw_bad_alloc.obj
 0002:0000bde8       ??_R4bad_array_new_length@std@@6B@ 000000018003dde8     LIBCMT:throw_bad_alloc.obj
 0002:0000be10       ??_R3bad_array_new_length@std@@8 000000018003de10     LIBCMT:throw_bad_alloc.obj
 0002:0000be28       ??_R2bad_array_new_length@std@@8 000000018003de28     LIBCMT:throw_bad_alloc.obj
 0002:0000be48       ??_R1A@?0A@EA@bad_array_new_length@std@@8 000000018003de48     LIBCMT:throw_bad_alloc.obj
 0002:0000be70       ??_R4type_info@@6B@        000000018003de70     LIBCMT:std_type_info_static.obj
 0002:0000be98       ??_R3type_info@@8          000000018003de98     LIBCMT:std_type_info_static.obj
 0002:0000beb0       ??_R2type_info@@8          000000018003deb0     LIBCMT:std_type_info_static.obj
 0002:0000bec0       ??_R1A@?0A@EA@type_info@@8 000000018003dec0     LIBCMT:std_type_info_static.obj
 0002:0000c2d0       __rtc_iaa                  000000018003e2d0     LIBCMT:initsect.obj
 0002:0000c2d8       __rtc_izz                  000000018003e2d8     LIBCMT:initsect.obj
 0002:0000c2e0       __rtc_taa                  000000018003e2e0     LIBCMT:initsect.obj
 0002:0000c2e8       __rtc_tzz                  000000018003e2e8     LIBCMT:initsect.obj
 0002:0000e4a8       _TI2?AVbad_alloc@std@@     00000001800404a8     LIBCMT:throw_bad_alloc.obj
 0002:0000e4c8       _CTA2?AVbad_alloc@std@@    00000001800404c8     LIBCMT:throw_bad_alloc.obj
 0002:0000e4e0       _CT??_R0?AVbad_alloc@std@@@8??0bad_alloc@std@@QEAA@AEBV01@@Z24 00000001800404e0     LIBCMT:throw_bad_alloc.obj
 0002:0000e508       _CT??_R0?AVexception@std@@@8??0exception@std@@QEAA@AEBV01@@Z24 0000000180040508     LIBCMT:throw_bad_alloc.obj
 0002:0000e530       _TI3?AVbad_array_new_length@std@@ 0000000180040530     LIBCMT:throw_bad_alloc.obj
 0002:0000e550       _CTA3?AVbad_array_new_length@std@@ 0000000180040550     LIBCMT:throw_bad_alloc.obj
 0002:0000e570       _CT??_R0?AVbad_array_new_length@std@@@8??0bad_array_new_length@std@@QEAA@AEBV01@@Z24 0000000180040570     LIBCMT:throw_bad_alloc.obj
 0002:0000e594       __DELAY_IMPORT_DESCRIPTOR_node_exe 0000000180040594     node:node.exe
 0002:0000e5b4       __NULL_DELAY_IMPORT_DESCRIPTOR 00000001800405b4     node:node.exe
 0002:0000e7a8       \177node_NULL_THUNK_DATA_DLN 00000001800407a8     node:node.exe
 0002:0000f6a8       \177node_NULL_THUNK_DATA_DLB 00000001800416a8     node:node.exe
 0002:0000f8d8       __IMPORT_DESCRIPTOR_KERNEL32 00000001800418d8     kernel32:KERNEL32.dll
 0002:0000f8ec       __NULL_IMPORT_DESCRIPTOR   00000001800418ec     kernel32:KERNEL32.dll
 0003:00000000       __security_cookie_complement 0000000180043000     LIBCMT:gs_cookie.obj
 0003:00000008       __security_cookie          0000000180043008     LIBCMT:gs_cookie.obj
 0003:00000010       __scrt_native_dllmain_reason 0000000180043010     LIBCMT:utility.obj
 0003:00000018       __isa_available            0000000180043018     LIBCMT:cpu_disp.obj
 0003:0000001c       __isa_enabled              000000018004301c     LIBCMT:cpu_disp.obj
 0003:00000020       __memcpy_nt_iters          0000000180043020     LIBCMT:cpu_disp.obj
 0003:00000040       _iob                       0000000180043040     libucrt:_file.obj
 0003:00000150       __abort_behavior           0000000180043150     libucrt:abort.obj
 0003:00000160       __acrt_initial_locale_data 0000000180043160     libucrt:nlsdata.obj
 0003:000002b8       __acrt_initial_locale_pointers 00000001800432b8     libucrt:nlsdata.obj
 0003:000002c8       __acrt_wide_c_locale_string 00000001800432c8     libucrt:nlsdata.obj
 0003:000002d0       __badioinfo                00000001800432d0     libucrt:ioinit.obj
 0003:00000630       __acrt_initial_multibyte_data 0000000180043630     libucrt:mbctype.obj
 0003:00000858       _pwctype                   0000000180043858     libucrt:ctype.obj
 0003:00000860       __globallocalestatus       0000000180043860     libucrt:glstatus.obj
 0003:00000870       __acrt_lconv_c             0000000180043870     libucrt:localeconv.obj
 0003:00000908       __acrt_lconv_static_decimal 0000000180043908     libucrt:localeconv.obj
 0003:0000090c       __acrt_lconv_static_W_decimal 000000018004390c     libucrt:localeconv.obj
 0003:00000910       _lookuptrailbytes          0000000180043910     libucrt:read.obj
 0003:00000a30       _fltused                   0000000180043a30     LIBCMT:fltused.obj
 0003:00000a80       ??_R0?AVbad_alloc@std@@@8  0000000180043a80     LIBCMT:throw_bad_alloc.obj
 0003:00000aa8       ??_R0?AVexception@std@@@8  0000000180043aa8     LIBCMT:throw_bad_alloc.obj
 0003:00000ad0       ??_R0?AVbad_array_new_length@std@@@8 0000000180043ad0     LIBCMT:throw_bad_alloc.obj
 0003:00000b00       ??_R0?AVtype_info@@@8      0000000180043b00     LIBCMT:std_type_info_static.obj
 0003:00000b20       __imp_?Value@External@v8@@QEBAPEAXXZ 0000000180043b20     node:node.exe
 0003:00000b28       __imp_?New@External@v8@@SA?AV?$Local@VExternal@v8@@@2@PEAVIsolate@2@PEAX@Z 0000000180043b28     node:node.exe
 0003:00000b30       __imp_?NewFromUnsigned@Integer@v8@@SA?AV?$Local@VInteger@v8@@@2@PEAVIsolate@2@I@Z 0000000180043b30     node:node.exe
 0003:00000b38       __imp_?New@Integer@v8@@SA?AV?$Local@VInteger@v8@@@2@PEAVIsolate@2@H@Z 0000000180043b38     node:node.exe
 0003:00000b40       __imp_?New@Signature@v8@@SA?AV?$Local@VSignature@v8@@@2@PEAVIsolate@2@V?$Local@VFunctionTemplate@v8@@@2@@Z 0000000180043b40     node:node.exe
 0003:00000b48       __imp_?ThrowException@Isolate@v8@@QEAA?AV?$Local@VValue@v8@@@2@V32@@Z 0000000180043b48     node:node.exe
 0003:00000b50       __imp_?GetCurrentContext@Isolate@v8@@QEAA?AV?$Local@VContext@v8@@@2@XZ 0000000180043b50     node:node.exe
 0003:00000b58       __imp_?GetCurrent@Isolate@v8@@SAPEAV12@XZ 0000000180043b58     node:node.exe
 0003:00000b60       __imp_?CreateHandle@HandleScope@v8@@KAPEAPEAVObject@internal@2@PEAVIsolate@42@PEAV342@@Z 0000000180043b60     node:node.exe
 0003:00000b68       __imp_?CreateHandle@HandleScope@v8@@CAPEAPEAVObject@internal@2@PEAVNeverReadOnlySpaceObject@42@PEAV342@@Z 0000000180043b68     node:node.exe
 0003:00000b70       __imp_??1HandleScope@v8@@QEAA@XZ 0000000180043b70     node:node.exe
 0003:00000b78       __imp_??0HandleScope@v8@@QEAA@PEAVIsolate@1@@Z 0000000180043b78     node:node.exe
 0003:00000b80       __imp_?Set@Template@v8@@QEAAXV?$Local@VName@v8@@@2@V?$Local@VData@v8@@@2@W4PropertyAttribute@2@@Z 0000000180043b80     node:node.exe
 0003:00000b88       __imp_?Error@Exception@v8@@SA?AV?$Local@VValue@v8@@@2@V?$Local@VString@v8@@@2@@Z 0000000180043b88     node:node.exe
 0003:00000b90       __imp_?TypeError@Exception@v8@@SA?AV?$Local@VValue@v8@@@2@V?$Local@VString@v8@@@2@@Z 0000000180043b90     node:node.exe
 0003:00000b98       __imp_?SetClassName@FunctionTemplate@v8@@QEAAXV?$Local@VString@v8@@@2@@Z 0000000180043b98     node:node.exe
 0003:00000ba0       __imp_?PrototypeTemplate@FunctionTemplate@v8@@QEAA?AV?$Local@VObjectTemplate@v8@@@2@XZ 0000000180043ba0     node:node.exe
 0003:00000ba8       __imp_?InstanceTemplate@FunctionTemplate@v8@@QEAA?AV?$Local@VObjectTemplate@v8@@@2@XZ 0000000180043ba8     node:node.exe
 0003:00000bb0       __imp_?GetFunction@FunctionTemplate@v8@@QEAA?AV?$Local@VFunction@v8@@@2@XZ 0000000180043bb0     node:node.exe
 0003:00000bb8       __imp_?New@FunctionTemplate@v8@@SA?AV?$Local@VFunctionTemplate@v8@@@2@PEAVIsolate@2@P6AXAEBV?$FunctionCallbackInfo@VValue@v8@@@2@@ZV?$Local@VValue@v8@@@2@V?$Local@VSignature@v8@@@2@HW4ConstructorBehavior@2@W4SideEffectType@2@@Z 0000000180043bb8     node:node.exe
 0003:00000bc0       __imp_?ToLocalEmpty@V8@v8@@CAXXZ 0000000180043bc0     node:node.exe
 0003:00000bc8       __imp_?ClearWeak@V8@v8@@CAPEAXPEAPEAVObject@internal@2@@Z 0000000180043bc8     node:node.exe
 0003:00000bd0       __imp_?MakeWeak@V8@v8@@CAXPEAPEAVObject@internal@2@PEAXP6AXAEBV?$WeakCallbackInfo@X@2@@ZW4WeakCallbackType@2@@Z 0000000180043bd0     node:node.exe
 0003:00000bd8       __imp_?DisposeGlobal@V8@v8@@CAXPEAPEAVObject@internal@2@@Z 0000000180043bd8     node:node.exe
 0003:00000be0       __imp_?GlobalizeReference@V8@v8@@CAPEAPEAVObject@internal@2@PEAVIsolate@42@PEAPEAV342@@Z 0000000180043be0     node:node.exe
 0003:00000be8       __imp_?Int32Value@Value@v8@@QEBAHXZ 0000000180043be8     node:node.exe
 0003:00000bf0       __imp_?ToInt32@Value@v8@@QEBA?AV?$MaybeLocal@VInt32@v8@@@2@V?$Local@VContext@v8@@@2@@Z 0000000180043bf0     node:node.exe
 0003:00000bf8       __imp_?ToUint32@Value@v8@@QEBA?AV?$MaybeLocal@VUint32@v8@@@2@V?$Local@VContext@v8@@@2@@Z 0000000180043bf8     node:node.exe
 0003:00000c00       __imp_?ToString@Value@v8@@QEBA?AV?$MaybeLocal@VString@v8@@@2@V?$Local@VContext@v8@@@2@@Z 0000000180043c00     node:node.exe
 0003:00000c08       __imp_?IsInt32@Value@v8@@QEBA_NXZ 0000000180043c08     node:node.exe
 0003:00000c10       __imp_?IsObject@Value@v8@@QEBA_NXZ 0000000180043c10     node:node.exe
 0003:00000c18       __imp_?IsArray@Value@v8@@QEBA_NXZ 0000000180043c18     node:node.exe
 0003:00000c20       __imp_?IsTrue@Value@v8@@QEBA_NXZ 0000000180043c20     node:node.exe
 0003:00000c28       __imp_?Escape@EscapableHandleScope@v8@@AEAAPEAPEAVObject@internal@2@PEAPEAV342@@Z 0000000180043c28     node:node.exe
 0003:00000c30       __imp_??0EscapableHandleScope@v8@@QEAA@PEAVIsolate@1@@Z 0000000180043c30     node:node.exe
 0003:00000c38       __imp_?NewFromUtf8@String@v8@@SA?AV?$MaybeLocal@VString@v8@@@2@PEAVIsolate@2@PEBDW4NewStringType@2@H@Z 0000000180043c38     node:node.exe
 0003:00000c40       __imp_?WriteUtf8@String@v8@@QEBAHPEAVIsolate@2@PEADHPEAHH@Z 0000000180043c40     node:node.exe
 0003:00000c48       __imp_?WriteUtf8@String@v8@@QEBAHPEADHPEAHH@Z 0000000180043c48     node:node.exe
 0003:00000c50       __imp_?Utf8Length@String@v8@@QEBAHXZ 0000000180043c50     node:node.exe
 0003:00000c58       __imp_?Length@String@v8@@QEBAHXZ 0000000180043c58     node:node.exe
 0003:00000c60       __imp_?SlowGetAlignedPointerFromInternalField@Object@v8@@AEAAPEAXH@Z 0000000180043c60     node:node.exe
 0003:00000c68       __imp_?SlowGetInternalField@Object@v8@@AEAA?AV?$Local@VValue@v8@@@2@H@Z 0000000180043c68     node:node.exe
 0003:00000c70       __imp_?New@Object@v8@@SA?AV?$Local@VObject@v8@@@2@PEAVIsolate@2@@Z 0000000180043c70     node:node.exe
 0003:00000c78       __imp_?SetAlignedPointerInInternalField@Object@v8@@QEAAXHPEAX@Z 0000000180043c78     node:node.exe
 0003:00000c80       __imp_?SetInternalField@Object@v8@@QEAAXHV?$Local@VValue@v8@@@2@@Z 0000000180043c80     node:node.exe
 0003:00000c88       __imp_?InternalFieldCount@Object@v8@@QEAAHXZ 0000000180043c88     node:node.exe
 0003:00000c90       __imp_?Get@Object@v8@@QEAA?AV?$Local@VValue@v8@@@2@V32@@Z 0000000180043c90     node:node.exe
 0003:00000c98       __imp_?Set@Object@v8@@QEAA_NV?$Local@VValue@v8@@@2@0@Z 0000000180043c98     node:node.exe
 0003:00000ca0       __imp_?Call@Function@v8@@QEAA?AV?$Local@VValue@v8@@@2@V32@HQEAV32@@Z 0000000180043ca0     node:node.exe
 0003:00000ca8       __imp_?SetInternalFieldCount@ObjectTemplate@v8@@QEAAXH@Z 0000000180043ca8     node:node.exe
 0003:00000cb0       __imp_?NewInstance@ObjectTemplate@v8@@QEAA?AV?$MaybeLocal@VObject@v8@@@2@V?$Local@VContext@v8@@@2@@Z 0000000180043cb0     node:node.exe
 0003:00000cb8       __imp_?New@ObjectTemplate@v8@@SA?AV?$Local@VObjectTemplate@v8@@@2@PEAVIsolate@2@V?$Local@VFunctionTemplate@v8@@@2@@Z 0000000180043cb8     node:node.exe
 0003:00000cc0       __imp_node_module_register 0000000180043cc0     node:node.exe
 0003:00000cc8       __imp_?HasInstance@Buffer@node@@YA_NV?$Local@VObject@v8@@@v8@@@Z 0000000180043cc8     node:node.exe
 0003:00000cd0       __imp_?Data@Buffer@node@@YAPEADV?$Local@VObject@v8@@@v8@@@Z 0000000180043cd0     node:node.exe
 0003:00000cd8       __imp_?Length@Buffer@node@@YA_KV?$Local@VObject@v8@@@v8@@@Z 0000000180043cd8     node:node.exe
 0003:00000ce0       __imp_?ToObject@Value@v8@@QEBA?AV?$Local@VObject@v8@@@2@XZ 0000000180043ce0     node:node.exe
 0003:00000ce8       __imp_?ToString@Value@v8@@QEBA?AV?$Local@VString@v8@@@2@XZ 0000000180043ce8     node:node.exe
 0003:00000cf0       \177node_NULL_THUNK_DATA_DLA 0000000180043cf0     node:node.exe
 0003:00000d00       __hmod__node_exe           0000000180043d00     node:node.exe
 0003:00001280       ?__type_info_root_node@@3U__type_info_node@@A 0000000180044280     LIBCMT:tncleanup.obj
 0003:00001290       ?_OptionsStorage@?1??__local_stdio_scanf_options@@9@4_KA 0000000180044290     LIBCMT:default_local_stdio_options.obj
 0003:00001298       __scrt_current_native_startup_state 0000000180044298     LIBCMT:utility.obj
 0003:000012a0       __scrt_native_startup_lock 00000001800442a0     LIBCMT:utility.obj
 0003:000012e0       __scrt_debugger_hook_flag  00000001800442e0     LIBCMT:utility_desktop.obj
 0003:000012e4       __favor                    00000001800442e4     LIBCMT:cpu_disp.obj
 0003:000012e8       ?__WinRTOutOfMemoryExceptionCallback@@3P6APEAXXZEA 00000001800442e8     libvcruntime:ehhelpers.obj
 0003:000012f0       ?pArgList@UnDecorator@@0PEAVReplicator@@EA 00000001800442f0     libvcruntime:undname.obj
 0003:000012f8       ?pZNameList@UnDecorator@@0PEAVReplicator@@EA 00000001800442f8     libvcruntime:undname.obj
 0003:00001300       ?pTemplateArgList@UnDecorator@@0PEAVReplicator@@EA 0000000180044300     libvcruntime:undname.obj
 0003:00001308       ?gName@UnDecorator@@0PEBDEB 0000000180044308     libvcruntime:undname.obj
 0003:00001310       ?name@UnDecorator@@0PEBDEB 0000000180044310     libvcruntime:undname.obj
 0003:00001318       ?disableFlags@UnDecorator@@0KA 0000000180044318     libvcruntime:undname.obj
 0003:0000131c       ?fExplicitTemplateParams@UnDecorator@@0_NA 000000018004431c     libvcruntime:undname.obj
 0003:0000131d       ?fGetTemplateArgumentList@UnDecorator@@0_NA 000000018004431d     libvcruntime:undname.obj
 0003:00001320       ?m_pGetParameter@UnDecorator@@0P6APEADJ@ZEA 0000000180044320     libvcruntime:undname.obj
 0003:00001328       ?m_CHPENameOffset@UnDecorator@@0KA 0000000180044328     libvcruntime:undname.obj
 0003:0000132c       ?m_recursionLevel@UnDecorator@@0KA 000000018004432c     libvcruntime:undname.obj
 0003:00001460       __pPurecall                0000000180044460     libvcruntime:purevirt_data.obj
 0003:00001468       _nstream                   0000000180044468     libucrt:_file.obj
 0003:00001470       __piob                     0000000180044470     libucrt:_file.obj
 0003:00001478       _cflush                    0000000180044478     libucrt:_file.obj
 0003:00001498       ?c_exit_complete@?1???R<lambda_6e4b09c48022b2350581041d5f6b0c4c>@@QEBA@XZ@4_NA 0000000180044498     libucrt:exit.obj
 0003:000015a8       _environ_table             00000001800445a8     libucrt:environment_initialization.obj
 0003:000015b0       _wenviron_table            00000001800445b0     libucrt:environment_initialization.obj
 0003:000015b8       __dcrt_initial_wide_environment 00000001800445b8     libucrt:environment_initialization.obj
 0003:000015c0       __dcrt_initial_narrow_environment 00000001800445c0     libucrt:environment_initialization.obj
 0003:000015c8       __acrt_atexit_table        00000001800445c8     libucrt:onexit.obj
 0003:000015e0       __acrt_at_quick_exit_table 00000001800445e0     libucrt:onexit.obj
 0003:00001628       __acrt_locale_changed_data 0000000180044628     libucrt:wsetlocale.obj
 0003:00001630       __acrt_current_locale_data 0000000180044630     libucrt:nlsdata.obj
 0003:000017f0       __pioinfo                  00000001800447f0     libucrt:ioinit.obj
 0003:00001bf0       _nhandle                   0000000180044bf0     libucrt:ioinit.obj
 0003:00001c08       __acrt_stdout_buffer       0000000180044c08     libucrt:_sftbuf.obj
 0003:00001c10       __acrt_stderr_buffer       0000000180044c10     libucrt:_sftbuf.obj
 0003:00001e60       _mbctype                   0000000180044e60     libucrt:mbctype.obj
 0003:00001e68       _mbcasemap                 0000000180044e68     libucrt:mbctype.obj
 0003:00001e70       __acrt_current_multibyte_data 0000000180044e70     libucrt:mbctype.obj
 0003:00001e80       _pgmptr                    0000000180044e80     libucrt:argv_data.obj
 0003:00001e88       __argc                     0000000180044e88     libucrt:argv_data.obj
 0003:00001e90       __argv                     0000000180044e90     libucrt:argv_data.obj
 0003:00001e98       __wargv                    0000000180044e98     libucrt:argv_data.obj
 0003:00001ea0       _acmdln                    0000000180044ea0     libucrt:argv_data.obj
 0003:00001ea8       _wcmdln                    0000000180044ea8     libucrt:argv_data.obj
 0003:00001eb0       __acrt_heap                0000000180044eb0     libucrt:heap_handle.obj
 0003:00001ec4       __acrt_lconv_static_null   0000000180044ec4     libucrt:localeconv.obj
 0003:00001ec8       __acrt_lconv_static_W_null 0000000180044ec8     libucrt:localeconv.obj
 0003:00001ed8       __fma3_is_available        0000000180044ed8     libucrt:fma3_available.obj
 0003:00001edc       __use_fma3_lib             0000000180044edc     libucrt:fma3_available.obj
 0003:00001ee0       ?DloadKernel32@@3PEAUHINSTANCE__@@EA 0000000180044ee0     DelayImp:delayhlp.obj
 0003:00001ee8       ?DloadAcquireSRWLockExclusive@@3P6AXPEA_K@ZEA 0000000180044ee8     DelayImp:delayhlp.obj
 0003:00001ef0       ?DloadReleaseSRWLockExclusive@@3P6AXPEA_K@ZEA 0000000180044ef0     DelayImp:delayhlp.obj
 0003:00001ef8       ?DloadSrwLock@@3_KA        0000000180044ef8     DelayImp:delayhlp.obj
 0003:00001f00       ?DloadSectionLockCount@@3KA 0000000180044f00     DelayImp:delayhlp.obj
 0003:00001f04       ?DloadSectionOldProtection@@3KA 0000000180044f04     DelayImp:delayhlp.obj
 0003:00001f08       ?DloadSectionCommitPermanent@@3KA 0000000180044f08     DelayImp:delayhlp.obj
 0003:00001f0c       __scrt_ucrt_dll_is_in_use  0000000180044f0c     <common>
 0003:00001f10       __dyn_tls_init_callback    0000000180044f10     <common>
 0003:00001f18       ?_OptionsStorage@?1??__local_stdio_printf_options@@9@9 0000000180044f18     <common>

 entry point at        0001:0001af70

 Static symbols

 0000:fffb6000       .debug$S                   0000000180000000     kernel32:KERNEL32.dll
 0000:fffb6000       .debug$S                   0000000180000000     node:node.exe
 0000:fffb6000       .debug$S                   0000000180000000     kernel32:KERNEL32.dll
 0000:fffb6000       .debug$S                   0000000180000000     kernel32:KERNEL32.dll
 0000:fffb6000       .debug$S                   0000000180000000     kernel32:KERNEL32.dll
 0000:fffb6000       .debug$S                   0000000180000000     node:node.exe
 0000:fffb6000       .debug$S                   0000000180000000     kernel32:KERNEL32.dll
 0000:fffb6000       .debug$S                   0000000180000000     node:node.exe
 0000:fffb6000       .debug$S                   0000000180000000     kernel32:KERNEL32.dll
 0000:fffb6000       .debug$S                   0000000180000000     node:node.exe
 0000:fffb6000       .debug$S                   0000000180000000     kernel32:KERNEL32.dll
 0000:fffb6000       .debug$S                   0000000180000000     node:node.exe
 0000:fffb6000       .debug$S                   0000000180000000     kernel32:KERNEL32.dll
 0000:fffb6000       .debug$S                   0000000180000000     node:node.exe
 0000:fffb6000       .debug$S                   0000000180000000     kernel32:KERNEL32.dll
 0000:fffb6000       .debug$S                   0000000180000000     node:node.exe
 0000:fffb6000       .debug$S                   0000000180000000     kernel32:KERNEL32.dll
 0000:fffb6000       .debug$S                   0000000180000000     node:node.exe
 0000:fffb6000       .debug$S                   0000000180000000     kernel32:KERNEL32.dll
 0000:fffb6000       .debug$S                   0000000180000000     node:node.exe
 0000:fffb6000       .debug$S                   0000000180000000     kernel32:KERNEL32.dll
 0000:fffb6000       .debug$S                   0000000180000000     node:node.exe
 0000:fffb6000       .debug$S                   0000000180000000     kernel32:KERNEL32.dll
 0000:fffb6000       .debug$S                   0000000180000000     node:node.exe
 0000:fffb6000       .debug$S                   0000000180000000     kernel32:KERNEL32.dll
 0000:fffb6000       .debug$S                   0000000180000000     node:node.exe
 0000:fffb6000       .debug$S                   0000000180000000     kernel32:KERNEL32.dll
 0000:fffb6000       .debug$S                   0000000180000000     node:node.exe
 0000:fffb6000       .debug$S                   0000000180000000     kernel32:KERNEL32.dll
 0000:fffb6000       .debug$S                   0000000180000000     node:node.exe
 0000:fffb6000       .debug$S                   0000000180000000     kernel32:KERNEL32.dll
 0000:fffb6000       .debug$S                   0000000180000000     node:node.exe
 0000:fffb6000       .debug$S                   0000000180000000     kernel32:KERNEL32.dll
 0000:fffb6000       .debug$S                   0000000180000000     node:node.exe
 0000:fffb6000       .debug$S                   0000000180000000     kernel32:KERNEL32.dll
 0000:fffb6000       .debug$S                   0000000180000000     node:node.exe
 0000:fffb6000       .debug$S                   0000000180000000     kernel32:KERNEL32.dll
 0000:fffb6000       .debug$S                   0000000180000000     node:node.exe
 0000:fffb6000       .debug$S                   0000000180000000     kernel32:KERNEL32.dll
 0000:fffb6000       .debug$S                   0000000180000000     node:node.exe
 0000:fffb6000       .debug$S                   0000000180000000     kernel32:KERNEL32.dll
 0000:fffb6000       .debug$S                   0000000180000000     node:node.exe
 0000:fffb6000       .debug$S                   0000000180000000     kernel32:KERNEL32.dll
 0000:fffb6000       .debug$S                   0000000180000000     node:node.exe
 0000:fffb6000       .debug$S                   0000000180000000     kernel32:KERNEL32.dll
 0000:fffb6000       .debug$S                   0000000180000000     node:node.exe
 0000:fffb6000       .debug$S                   0000000180000000     kernel32:KERNEL32.dll
 0000:fffb6000       .debug$S                   0000000180000000     node:node.exe
 0000:fffb6000       .debug$S                   0000000180000000     kernel32:KERNEL32.dll
 0000:fffb6000       .debug$S                   0000000180000000     node:node.exe
 0000:fffb6000       .debug$S                   0000000180000000     kernel32:KERNEL32.dll
 0000:fffb6000       .debug$S                   0000000180000000     node:node.exe
 0000:fffb6000       .debug$S                   0000000180000000     kernel32:KERNEL32.dll
 0000:fffb6000       .debug$S                   0000000180000000     node:node.exe
 0000:fffb6000       .debug$S                   0000000180000000     kernel32:KERNEL32.dll
 0000:fffb6000       .debug$S                   0000000180000000     node:node.exe
 0000:fffb6000       .debug$S                   0000000180000000     kernel32:KERNEL32.dll
 0000:fffb6000       .debug$S                   0000000180000000     node:node.exe
 0000:fffb6000       .debug$S                   0000000180000000     kernel32:KERNEL32.dll
 0000:fffb6000       .debug$S                   0000000180000000     node:node.exe
 0000:fffb6000       .debug$S                   0000000180000000     kernel32:KERNEL32.dll
 0000:fffb6000       .debug$S                   0000000180000000     node:node.exe
 0000:fffb6000       .debug$S                   0000000180000000     kernel32:KERNEL32.dll
 0000:fffb6000       .debug$S                   0000000180000000     node:node.exe
 0000:fffb6000       .debug$S                   0000000180000000     kernel32:KERNEL32.dll
 0000:fffb6000       .debug$S                   0000000180000000     node:node.exe
 0000:fffb6000       .debug$S                   0000000180000000     kernel32:KERNEL32.dll
 0000:fffb6000       .debug$S                   0000000180000000     node:node.exe
 0000:fffb6000       .debug$S                   0000000180000000     kernel32:KERNEL32.dll
 0000:fffb6000       .debug$S                   0000000180000000     node:node.exe
 0000:fffb6000       .debug$S                   0000000180000000     kernel32:KERNEL32.dll
 0000:fffb6000       .debug$S                   0000000180000000     node:node.exe
 0000:fffb6000       .debug$S                   0000000180000000     kernel32:KERNEL32.dll
 0000:fffb6000       .debug$S                   0000000180000000     node:node.exe
 0000:fffb6000       .debug$S                   0000000180000000     kernel32:KERNEL32.dll
 0000:fffb6000       .debug$S                   0000000180000000     node:node.exe
 0000:fffb6000       .debug$S                   0000000180000000     kernel32:KERNEL32.dll
 0000:fffb6000       .debug$S                   0000000180000000     node:node.exe
 0000:fffb6000       .debug$S                   0000000180000000     kernel32:KERNEL32.dll
 0000:fffb6000       .debug$S                   0000000180000000     node:node.exe
 0000:fffb6000       .debug$S                   0000000180000000     kernel32:KERNEL32.dll
 0000:fffb6000       .debug$S                   0000000180000000     node:node.exe
 0000:fffb6000       .debug$S                   0000000180000000     kernel32:KERNEL32.dll
 0000:fffb6000       .debug$S                   0000000180000000     node:node.exe
 0000:fffb6000       .debug$S                   0000000180000000     kernel32:KERNEL32.dll
 0000:fffb6000       .debug$S                   0000000180000000     node:node.exe
 0000:fffb6000       .debug$S                   0000000180000000     kernel32:KERNEL32.dll
 0000:fffb6000       .debug$S                   0000000180000000     node:node.exe
 0000:fffb6000       .debug$S                   0000000180000000     kernel32:KERNEL32.dll
 0000:fffb6000       .debug$S                   0000000180000000     kernel32:KERNEL32.dll
 0000:fffb6000       .debug$S                   0000000180000000     kernel32:KERNEL32.dll
 0000:fffb6000       .debug$S                   0000000180000000     kernel32:KERNEL32.dll
 0000:fffb6000       .debug$S                   0000000180000000     kernel32:KERNEL32.dll
 0000:fffb6000       .debug$S                   0000000180000000     kernel32:KERNEL32.dll
 0000:fffb6000       .debug$S                   0000000180000000     kernel32:KERNEL32.dll
 0000:fffb6000       .debug$S                   0000000180000000     kernel32:KERNEL32.dll
 0000:fffb6000       .debug$S                   0000000180000000     kernel32:KERNEL32.dll
 0000:fffb6000       .debug$S                   0000000180000000     kernel32:KERNEL32.dll
 0000:fffb6000       .debug$S                   0000000180000000     kernel32:KERNEL32.dll
 0000:fffb6000       .debug$S                   0000000180000000     kernel32:KERNEL32.dll
 0000:fffb6000       .debug$S                   0000000180000000     kernel32:KERNEL32.dll
 0000:fffb6000       .debug$S                   0000000180000000     kernel32:KERNEL32.dll
 0000:fffb6000       .debug$S                   0000000180000000     kernel32:KERNEL32.dll
 0000:fffb6000       .debug$S                   0000000180000000     kernel32:KERNEL32.dll
 0000:fffb6000       .debug$S                   0000000180000000     kernel32:KERNEL32.dll
 0000:fffb6000       .debug$S                   0000000180000000     kernel32:KERNEL32.dll
 0000:fffb6000       .debug$S                   0000000180000000     kernel32:KERNEL32.dll
 0000:fffb6000       .debug$S                   0000000180000000     kernel32:KERNEL32.dll
 0000:fffb6000       .debug$S                   0000000180000000     kernel32:KERNEL32.dll
 0000:fffb6000       .debug$S                   0000000180000000     kernel32:KERNEL32.dll
 0000:fffb6000       .debug$S                   0000000180000000     kernel32:KERNEL32.dll
 0000:fffb6000       .debug$S                   0000000180000000     kernel32:KERNEL32.dll
 0000:fffb6000       .debug$S                   0000000180000000     kernel32:KERNEL32.dll
 0000:fffb6000       .debug$S                   0000000180000000     kernel32:KERNEL32.dll
 0000:fffb6000       .debug$S                   0000000180000000     kernel32:KERNEL32.dll
 0000:fffb6000       .debug$S                   0000000180000000     kernel32:KERNEL32.dll
 0000:fffb6000       .debug$S                   0000000180000000     kernel32:KERNEL32.dll
 0000:fffb6000       .debug$S                   0000000180000000     kernel32:KERNEL32.dll
 0000:fffb6000       .debug$S                   0000000180000000     kernel32:KERNEL32.dll
 0000:fffb6000       .debug$S                   0000000180000000     kernel32:KERNEL32.dll
 0000:fffb6000       .debug$S                   0000000180000000     kernel32:KERNEL32.dll
 0000:fffb6000       .debug$S                   0000000180000000     kernel32:KERNEL32.dll
 0000:fffb6000       .debug$S                   0000000180000000     kernel32:KERNEL32.dll
 0000:fffb6000       .debug$S                   0000000180000000     kernel32:KERNEL32.dll
 0000:fffb6000       .debug$S                   0000000180000000     kernel32:KERNEL32.dll
 0000:fffb6000       .debug$S                   0000000180000000     kernel32:KERNEL32.dll
 0000:fffb6000       .debug$S                   0000000180000000     kernel32:KERNEL32.dll
 0000:fffb6000       .debug$S                   0000000180000000     kernel32:KERNEL32.dll
 0000:fffb6000       .debug$S                   0000000180000000     kernel32:KERNEL32.dll
 0000:fffb6000       .debug$S                   0000000180000000     kernel32:KERNEL32.dll
 0000:fffb6000       .debug$S                   0000000180000000     kernel32:KERNEL32.dll
 0000:fffb6000       .debug$S                   0000000180000000     kernel32:KERNEL32.dll
 0000:fffb6000       .debug$S                   0000000180000000     kernel32:KERNEL32.dll
 0000:fffb6000       .debug$S                   0000000180000000     node_expat.exp
 0000:fffb6000       .debug$S                   0000000180000000     node:node.exe
 0000:fffb6000       .debug$S                   0000000180000000     node:node.exe
 0000:fffb6000       .debug$S                   0000000180000000     node:node.exe
 0000:fffb6000       .debug$S                   0000000180000000     node:node.exe
 0000:fffb6000       .debug$S                   0000000180000000     node:node.exe
 0000:fffb6000       .debug$S                   0000000180000000     node:node.exe
 0000:fffb6000       .debug$S                   0000000180000000     node:node.exe
 0000:fffb6000       .debug$S                   0000000180000000     node:node.exe
 0000:fffb6000       .debug$S                   0000000180000000     node:node.exe
 0000:fffb6000       .debug$S                   0000000180000000     node:node.exe
 0000:fffb6000       .debug$S                   0000000180000000     node:node.exe
 0000:fffb6000       .debug$S                   0000000180000000     node:node.exe
 0000:fffb6000       .debug$S                   0000000180000000     node:node.exe
 0000:fffb6000       .debug$S                   0000000180000000     node:node.exe
 0000:fffb6000       .debug$S                   0000000180000000     node:node.exe
 0000:fffb6000       .debug$S                   0000000180000000     node:node.exe
 0000:fffb6000       .debug$S                   0000000180000000     node:node.exe
 0000:fffb6000       .debug$S                   0000000180000000     node:node.exe
 0000:fffb6000       .debug$S                   0000000180000000     node:node.exe
 0000:fffb6000       .debug$S                   0000000180000000     node:node.exe
 0000:fffb6000       .debug$S                   0000000180000000     node:node.exe
 0000:fffb6000       .debug$S                   0000000180000000     node:node.exe
 0000:fffb6000       .debug$S                   0000000180000000     node:node.exe
 0000:fffb6000       .debug$S                   0000000180000000     node:node.exe
 0001:00000000       ?FunctionCallbackWrapper@imp@Nan@@YAXAEBV?$FunctionCallbackInfo@VValue@v8@@@v8@@@Z 0000000180001000 f   node-expat.obj
 0001:00002b60       init                       0000000180003b60 f   node-expat.obj
 0001:00002b70       _register_node_expat       0000000180003b70 f   node-expat.obj
 0001:00002c10       ?load_exe_hook@@YAP6A_JXZIPEAUDelayLoadInfo@@@Z 0000000180003c10 f   win_delay_load_hook.obj
 0001:00002cc0       sip24_update               0000000180003cc0 f   libexpat:xmlparse.obj
 0001:00002e30       sip24_final                0000000180003e30 f   libexpat:xmlparse.obj
 0001:00003018       $LN39                      0000000180004018     libexpat:xmlparse.obj
 0001:00003040       get_hash_secret_salt       0000000180004040 f   libexpat:xmlparse.obj
 0001:00003070       startParsing               0000000180004070 f   libexpat:xmlparse.obj
 0001:000031e0       parserCreate               00000001800041e0 f   libexpat:xmlparse.obj
 0001:000034d0       parserInit                 00000001800044d0 f   libexpat:xmlparse.obj
 0001:00003ca0       storeRawNames              0000000180004ca0 f   libexpat:xmlparse.obj
 0001:00003d80       contentProcessor           0000000180004d80 f   libexpat:xmlparse.obj
 0001:00003de0       externalEntityContentProcessor 0000000180004de0 f   libexpat:xmlparse.obj
 0001:00003e40       doContent                  0000000180004e40 f   libexpat:xmlparse.obj
 0001:00004ad0       $LN225                     0000000180005ad0     libexpat:xmlparse.obj
 0001:00004b20       freeBindings               0000000180005b20 f   libexpat:xmlparse.obj
 0001:00004ba0       storeAtts                  0000000180005ba0 f   libexpat:xmlparse.obj
 0001:00005720       addBinding                 0000000180006720 f   libexpat:xmlparse.obj
 0001:000059a0       cdataSectionProcessor      00000001800069a0 f   libexpat:xmlparse.obj
 0001:00005a60       doCdataSection             0000000180006a60 f   libexpat:xmlparse.obj
 0001:00005d04       $LN52                      0000000180006d04     libexpat:xmlparse.obj
 0001:00005d20       $LN51                      0000000180006d20     libexpat:xmlparse.obj
 0001:00005d50       ignoreSectionProcessor     0000000180006d50 f   libexpat:xmlparse.obj
 0001:00005de0       doIgnoreSection            0000000180006de0 f   libexpat:xmlparse.obj
 0001:00005f10       processXmlDecl             0000000180006f10 f   libexpat:xmlparse.obj
 0001:00006200       handleUnknownEncoding      0000000180007200 f   libexpat:xmlparse.obj
 0001:00006390       prologInitProcessor        0000000180007390 f   libexpat:xmlparse.obj
 0001:00006430       prologProcessor            0000000180007430 f   libexpat:xmlparse.obj
 0001:000064c0       doProlog                   00000001800074c0 f   libexpat:xmlparse.obj
 0001:00007fdc       $LN515                     0000000180008fdc     libexpat:xmlparse.obj
 0001:000080e0       epilogProcessor            00000001800090e0 f   libexpat:xmlparse.obj
 0001:000082ac       $LN36                      00000001800092ac     libexpat:xmlparse.obj
 0001:000082d0       $LN35                      00000001800092d0     libexpat:xmlparse.obj
 0001:000082f0       processInternalEntity      00000001800092f0 f   libexpat:xmlparse.obj
 0001:00008470       internalEntityProcessor    0000000180009470 f   libexpat:xmlparse.obj
 0001:00008660       errorProcessor             0000000180009660 f   libexpat:xmlparse.obj
 0001:00008670       appendAttributeValue       0000000180009670 f   libexpat:xmlparse.obj
 0001:00008b1c       $LN119                     0000000180009b1c     libexpat:xmlparse.obj
 0001:00008b40       $LN118                     0000000180009b40     libexpat:xmlparse.obj
 0001:00008b70       storeEntityValue           0000000180009b70 f   libexpat:xmlparse.obj
 0001:00008fd0       $LN83                      0000000180009fd0     libexpat:xmlparse.obj
 0001:00008ff4       $LN82                      0000000180009ff4     libexpat:xmlparse.obj
 0001:00009020       reportProcessingInstruction 000000018000a020 f   libexpat:xmlparse.obj
 0001:000091e0       reportComment              000000018000a1e0 f   libexpat:xmlparse.obj
 0001:00009300       reportDefault              000000018000a300 f   libexpat:xmlparse.obj
 0001:000093f0       defineAttribute            000000018000a3f0 f   libexpat:xmlparse.obj
 0001:00009500       setElementTypePrefix       000000018000a500 f   libexpat:xmlparse.obj
 0001:00009640       getAttributeId             000000018000a640 f   libexpat:xmlparse.obj
 0001:000098d0       getContext                 000000018000a8d0 f   libexpat:xmlparse.obj
 0001:00009c50       setContext                 000000018000ac50 f   libexpat:xmlparse.obj
 0001:00009ef0       dtdReset                   000000018000aef0 f   libexpat:xmlparse.obj
 0001:0000a190       dtdDestroy                 000000018000b190 f   libexpat:xmlparse.obj
 0001:0000a3d0       hash                       000000018000b3d0 f   libexpat:xmlparse.obj
 0001:0000a490       lookup                     000000018000b490 f   libexpat:xmlparse.obj
 0001:0000a7a0       poolClear                  000000018000b7a0 f   libexpat:xmlparse.obj
 0001:0000a800       poolAppend                 000000018000b800 f   libexpat:xmlparse.obj
 0001:0000a8a0       poolCopyString             000000018000b8a0 f   libexpat:xmlparse.obj
 0001:0000a910       poolStoreString            000000018000b910 f   libexpat:xmlparse.obj
 0001:0000a960       poolGrow                   000000018000b960 f   libexpat:xmlparse.obj
 0001:0000ab60       nextScaffoldPart           000000018000bb60 f   libexpat:xmlparse.obj
 0001:0000aca0       build_node                 000000018000bca0 f   libexpat:xmlparse.obj
 0001:0000ae00       getElementType             000000018000be00 f   libexpat:xmlparse.obj
 0001:0000aed0       isNever                    000000018000bed0 f   libexpat:xmltok.obj
 0001:0000aed0       error                      000000018000bed0 f   libexpat:xmlrole.obj
 0001:0000aee0       utf8_isName2               000000018000bee0 f   libexpat:xmltok.obj
 0001:0000af30       utf8_isName3               000000018000bf30 f   libexpat:xmltok.obj
 0001:0000af90       utf8_isNmstrt2             000000018000bf90 f   libexpat:xmltok.obj
 0001:0000afe0       utf8_isNmstrt3             000000018000bfe0 f   libexpat:xmltok.obj
 0001:0000b040       utf8_isInvalid2            000000018000c040 f   libexpat:xmltok.obj
 0001:0000b060       utf8_isInvalid3            000000018000c060 f   libexpat:xmltok.obj
 0001:0000b0d0       utf8_isInvalid4            000000018000c0d0 f   libexpat:xmltok.obj
 0001:0000b130       normal_scanComment         000000018000c130 f   libexpat:xmltok.obj
 0001:0000b2a8       $LN38                      000000018000c2a8     libexpat:xmltok.obj
 0001:0000b2c0       $LN37                      000000018000c2c0     libexpat:xmltok.obj
 0001:0000b2e0       normal_scanPi              000000018000c2e0 f   libexpat:xmltok.obj
 0001:0000b690       $LN128                     000000018000c690     libexpat:xmltok.obj
 0001:0000b6a8       $LN127                     000000018000c6a8     libexpat:xmltok.obj
 0001:0000b6c4       $LN126                     000000018000c6c4     libexpat:xmltok.obj
 0001:0000b6e4       $LN125                     000000018000c6e4     libexpat:xmltok.obj
 0001:0000b700       $LN124                     000000018000c700     libexpat:xmltok.obj
 0001:0000b740       normal_cdataSectionTok     000000018000c740 f   libexpat:xmltok.obj
 0001:0000b970       $LN54                      000000018000c970     libexpat:xmltok.obj
 0001:0000b99c       $LN53                      000000018000c99c     libexpat:xmltok.obj
 0001:0000b9d0       normal_scanEndTag          000000018000c9d0 f   libexpat:xmltok.obj
 0001:0000bc24       $LN65                      000000018000cc24     libexpat:xmltok.obj
 0001:0000bc3c       $LN64                      000000018000cc3c     libexpat:xmltok.obj
 0001:0000bc58       $LN63                      000000018000cc58     libexpat:xmltok.obj
 0001:0000bc78       $LN62                      000000018000cc78     libexpat:xmltok.obj
 0001:0000bca0       normal_scanRef             000000018000cca0 f   libexpat:xmltok.obj
 0001:0000bf88       $LN91                      000000018000cf88     libexpat:xmltok.obj
 0001:0000bfa4       $LN90                      000000018000cfa4     libexpat:xmltok.obj
 0001:0000bfc0       $LN89                      000000018000cfc0     libexpat:xmltok.obj
 0001:0000bfdc       $LN88                      000000018000cfdc     libexpat:xmltok.obj
 0001:0000c000       normal_scanAtts            000000018000d000 f   libexpat:xmltok.obj
 0001:0000c4d0       $LN182                     000000018000d4d0     libexpat:xmltok.obj
 0001:0000c4f4       $LN181                     000000018000d4f4     libexpat:xmltok.obj
 0001:0000c510       $LN180                     000000018000d510     libexpat:xmltok.obj
 0001:0000c528       $LN179                     000000018000d528     libexpat:xmltok.obj
 0001:0000c544       $LN178                     000000018000d544     libexpat:xmltok.obj
 0001:0000c568       $LN177                     000000018000d568     libexpat:xmltok.obj
 0001:0000c58c       $LN176                     000000018000d58c     libexpat:xmltok.obj
 0001:0000c5b0       normal_scanLt              000000018000d5b0 f   libexpat:xmltok.obj
 0001:0000ca2c       $LN130                     000000018000da2c     libexpat:xmltok.obj
 0001:0000ca50       $LN129                     000000018000da50     libexpat:xmltok.obj
 0001:0000ca6c       $LN128                     000000018000da6c     libexpat:xmltok.obj
 0001:0000cad0       $LN127                     000000018000dad0     libexpat:xmltok.obj
 0001:0000cae8       $LN126                     000000018000dae8     libexpat:xmltok.obj
 0001:0000cb04       $LN125                     000000018000db04     libexpat:xmltok.obj
 0001:0000cb28       $LN124                     000000018000db28     libexpat:xmltok.obj
 0001:0000cb50       normal_contentTok          000000018000db50 f   libexpat:xmltok.obj
 0001:0000cdd8       $LN61                      000000018000ddd8     libexpat:xmltok.obj
 0001:0000ce04       $LN60                      000000018000de04     libexpat:xmltok.obj
 0001:0000ce30       normal_scanPercent         000000018000de30 f   libexpat:xmltok.obj
 0001:0000d030       $LN50                      000000018000e030     libexpat:xmltok.obj
 0001:0000d04c       $LN49                      000000018000e04c     libexpat:xmltok.obj
 0001:0000d068       $LN48                      000000018000e068     libexpat:xmltok.obj
 0001:0000d084       $LN47                      000000018000e084     libexpat:xmltok.obj
 0001:0000d0a0       normal_scanLit             000000018000e0a0 f   libexpat:xmltok.obj
 0001:0000d208       $LN36                      000000018000e208     libexpat:xmltok.obj
 0001:0000d240       normal_prologTok           000000018000e240 f   libexpat:xmltok.obj
 0001:0000d9e4       $LN221                     000000018000e9e4     libexpat:xmltok.obj
 0001:0000da70       $LN220                     000000018000ea70     libexpat:xmltok.obj
 0001:0000da80       $LN219                     000000018000ea80     libexpat:xmltok.obj
 0001:0000da9c       $LN218                     000000018000ea9c     libexpat:xmltok.obj
 0001:0000daac       $LN217                     000000018000eaac     libexpat:xmltok.obj
 0001:0000dac4       $LN216                     000000018000eac4     libexpat:xmltok.obj
 0001:0000dad8       $LN215                     000000018000ead8     libexpat:xmltok.obj
 0001:0000daf4       $LN214                     000000018000eaf4     libexpat:xmltok.obj
 0001:0000db0c       $LN213                     000000018000eb0c     libexpat:xmltok.obj
 0001:0000db28       $LN212                     000000018000eb28     libexpat:xmltok.obj
 0001:0000db44       $LN211                     000000018000eb44     libexpat:xmltok.obj
 0001:0000db64       $LN210                     000000018000eb64     libexpat:xmltok.obj
 0001:0000db90       $LN209                     000000018000eb90     libexpat:xmltok.obj
 0001:0000dbb0       $LN208                     000000018000ebb0     libexpat:xmltok.obj
 0001:0000dbc8       $LN207                     000000018000ebc8     libexpat:xmltok.obj
 0001:0000dbf0       normal_attributeValueTok   000000018000ebf0 f   libexpat:xmltok.obj
 0001:0000dd40       $LN29                      000000018000ed40     libexpat:xmltok.obj
 0001:0000dd90       normal_entityValueTok      000000018000ed90 f   libexpat:xmltok.obj
 0001:0000def8       $LN29                      000000018000eef8     libexpat:xmltok.obj
 0001:0000df18       $LN28                      000000018000ef18     libexpat:xmltok.obj
 0001:0000df40       normal_ignoreSectionTok    000000018000ef40 f   libexpat:xmltok.obj
 0001:0000e0b4       $LN46                      000000018000f0b4     libexpat:xmltok.obj
 0001:0000e0e0       normal_isPublicId          000000018000f0e0 f   libexpat:xmltok.obj
 0001:0000e178       $LN26                      000000018000f178     libexpat:xmltok.obj
 0001:0000e188       $LN25                      000000018000f188     libexpat:xmltok.obj
 0001:0000e1b0       normal_getAtts             000000018000f1b0 f   libexpat:xmltok.obj
 0001:0000e3e0       $LN52                      000000018000f3e0     libexpat:xmltok.obj
 0001:0000e450       normal_charRefNumber       000000018000f450 f   libexpat:xmltok.obj
 0001:0000e548       $LN40                      000000018000f548     libexpat:xmltok.obj
 0001:0000e558       $LN39                      000000018000f558     libexpat:xmltok.obj
 0001:0000e590       normal_predefinedEntityName 000000018000f590 f   libexpat:xmltok.obj
 0001:0000e620       normal_sameName            000000018000f620 f   libexpat:xmltok.obj
 0001:0000e6e8       $LN39                      000000018000f6e8     libexpat:xmltok.obj
 0001:0000e6fc       $LN38                      000000018000f6fc     libexpat:xmltok.obj
 0001:0000e720       normal_nameMatchesAscii    000000018000f720 f   libexpat:xmltok.obj
 0001:0000e760       normal_nameLength          000000018000f760 f   libexpat:xmltok.obj
 0001:0000e7d8       $LN17                      000000018000f7d8     libexpat:xmltok.obj
 0001:0000e7ec       $LN16                      000000018000f7ec     libexpat:xmltok.obj
 0001:0000e810       normal_skipS               000000018000f810 f   libexpat:xmltok.obj
 0001:0000e850       normal_updatePosition      000000018000f850 f   libexpat:xmltok.obj
 0001:0000e910       utf8_toUtf8                000000018000f910 f   libexpat:xmltok.obj
 0001:0000ea30       utf8_toUtf16               000000018000fa30 f   libexpat:xmltok.obj
 0001:0000ec00       latin1_toUtf8              000000018000fc00 f   libexpat:xmltok.obj
 0001:0000ec60       latin1_toUtf16             000000018000fc60 f   libexpat:xmltok.obj
 0001:0000ecb0       ascii_toUtf8               000000018000fcb0 f   libexpat:xmltok.obj
 0001:0000ed00       unicode_byte_type          000000018000fd00 f   libexpat:xmltok.obj
 0001:0000ed30       little2_toUtf8             000000018000fd30 f   libexpat:xmltok.obj
 0001:0000eef0       little2_toUtf16            000000018000fef0 f   libexpat:xmltok.obj
 0001:0000ef90       big2_toUtf8                000000018000ff90 f   libexpat:xmltok.obj
 0001:0000f150       big2_toUtf16               0000000180010150 f   libexpat:xmltok.obj
 0001:0000f1f0       little2_scanComment        00000001800101f0 f   libexpat:xmltok.obj
 0001:0000f330       $LN51                      0000000180010330     libexpat:xmltok.obj
 0001:0000f348       $LN50                      0000000180010348     libexpat:xmltok.obj
 0001:0000f370       little2_scanDecl           0000000180010370 f   libexpat:xmltok.obj
 0001:0000f500       $LN57                      0000000180010500     libexpat:xmltok.obj
 0001:0000f510       $LN56                      0000000180010510     libexpat:xmltok.obj
 0001:0000f530       little2_scanPi             0000000180010530 f   libexpat:xmltok.obj
 0001:0000f8fc       $LN172                     00000001800108fc     libexpat:xmltok.obj
 0001:0000f914       $LN171                     0000000180010914     libexpat:xmltok.obj
 0001:0000f930       $LN170                     0000000180010930     libexpat:xmltok.obj
 0001:0000f950       $LN169                     0000000180010950     libexpat:xmltok.obj
 0001:0000f96c       $LN168                     000000018001096c     libexpat:xmltok.obj
 0001:0000f9b0       little2_cdataSectionTok    00000001800109b0 f   libexpat:xmltok.obj
 0001:0000fc9c       $LN83                      0000000180010c9c     libexpat:xmltok.obj
 0001:0000fcc8       $LN82                      0000000180010cc8     libexpat:xmltok.obj
 0001:0000fd00       little2_scanEndTag         0000000180010d00 f   libexpat:xmltok.obj
 0001:0000ff84       $LN88                      0000000180010f84     libexpat:xmltok.obj
 0001:0000ff9c       $LN87                      0000000180010f9c     libexpat:xmltok.obj
 0001:0000ffb8       $LN86                      0000000180010fb8     libexpat:xmltok.obj
 0001:0000ffd8       $LN85                      0000000180010fd8     libexpat:xmltok.obj
 0001:00010000       little2_scanCharRef        0000000180011000 f   libexpat:xmltok.obj
 0001:000101c0       little2_scanRef            00000001800111c0 f   libexpat:xmltok.obj
 0001:000103f8       $LN71                      00000001800113f8     libexpat:xmltok.obj
 0001:00010414       $LN70                      0000000180011414     libexpat:xmltok.obj
 0001:00010430       $LN69                      0000000180011430     libexpat:xmltok.obj
 0001:0001044c       $LN68                      000000018001144c     libexpat:xmltok.obj
 0001:00010470       little2_scanAtts           0000000180011470 f   libexpat:xmltok.obj
 0001:000109a0       $LN243                     00000001800119a0     libexpat:xmltok.obj
 0001:000109c4       $LN242                     00000001800119c4     libexpat:xmltok.obj
 0001:000109e0       $LN241                     00000001800119e0     libexpat:xmltok.obj
 0001:000109f8       $LN240                     00000001800119f8     libexpat:xmltok.obj
 0001:00010a14       $LN239                     0000000180011a14     libexpat:xmltok.obj
 0001:00010a38       $LN238                     0000000180011a38     libexpat:xmltok.obj
 0001:00010a5c       $LN237                     0000000180011a5c     libexpat:xmltok.obj
 0001:00010a80       little2_scanLt             0000000180011a80 f   libexpat:xmltok.obj
 0001:00010f84       $LN164                     0000000180011f84     libexpat:xmltok.obj
 0001:00010fa8       $LN163                     0000000180011fa8     libexpat:xmltok.obj
 0001:00010fc4       $LN162                     0000000180011fc4     libexpat:xmltok.obj
 0001:00011028       $LN161                     0000000180012028     libexpat:xmltok.obj
 0001:00011040       $LN160                     0000000180012040     libexpat:xmltok.obj
 0001:0001105c       $LN159                     000000018001205c     libexpat:xmltok.obj
 0001:00011080       $LN158                     0000000180012080     libexpat:xmltok.obj
 0001:000110a0       little2_contentTok         00000001800120a0 f   libexpat:xmltok.obj
 0001:000113e0       $LN92                      00000001800123e0     libexpat:xmltok.obj
 0001:0001140c       $LN91                      000000018001240c     libexpat:xmltok.obj
 0001:00011440       little2_scanPercent        0000000180012440 f   libexpat:xmltok.obj
 0001:00011660       $LN71                      0000000180012660     libexpat:xmltok.obj
 0001:0001167c       $LN70                      000000018001267c     libexpat:xmltok.obj
 0001:00011698       $LN69                      0000000180012698     libexpat:xmltok.obj
 0001:000116b4       $LN68                      00000001800126b4     libexpat:xmltok.obj
 0001:000116d0       little2_scanPoundName      00000001800126d0 f   libexpat:xmltok.obj
 0001:000118d4       $LN70                      00000001800128d4     libexpat:xmltok.obj
 0001:000118ec       $LN69                      00000001800128ec     libexpat:xmltok.obj
 0001:00011908       $LN68                      0000000180012908     libexpat:xmltok.obj
 0001:00011924       $LN67                      0000000180012924     libexpat:xmltok.obj
 0001:00011950       little2_scanLit            0000000180012950 f   libexpat:xmltok.obj
 0001:00011aac       $LN48                      0000000180012aac     libexpat:xmltok.obj
 0001:00011af0       little2_prologTok          0000000180012af0 f   libexpat:xmltok.obj
 0001:000120d4       $LN178                     00000001800130d4     libexpat:xmltok.obj
 0001:00012160       $LN177                     0000000180013160     libexpat:xmltok.obj
 0001:00012170       $LN176                     0000000180013170     libexpat:xmltok.obj
 0001:0001218c       $LN175                     000000018001318c     libexpat:xmltok.obj
 0001:000121a0       $LN174                     00000001800131a0     libexpat:xmltok.obj
 0001:000121bc       $LN173                     00000001800131bc     libexpat:xmltok.obj
 0001:000121e8       $LN172                     00000001800131e8     libexpat:xmltok.obj
 0001:00012208       $LN171                     0000000180013208     libexpat:xmltok.obj
 0001:00012220       $LN170                     0000000180013220     libexpat:xmltok.obj
 0001:00012240       little2_attributeValueTok  0000000180013240 f   libexpat:xmltok.obj
 0001:000123cc       $LN44                      00000001800133cc     libexpat:xmltok.obj
 0001:00012420       little2_entityValueTok     0000000180013420 f   libexpat:xmltok.obj
 0001:000125bc       $LN44                      00000001800135bc     libexpat:xmltok.obj
 0001:000125dc       $LN43                      00000001800135dc     libexpat:xmltok.obj
 0001:00012600       little2_ignoreSectionTok   0000000180013600 f   libexpat:xmltok.obj
 0001:000127a0       $LN57                      00000001800137a0     libexpat:xmltok.obj
 0001:000127d0       little2_isPublicId         00000001800137d0 f   libexpat:xmltok.obj
 0001:000128b4       $LN44                      00000001800138b4     libexpat:xmltok.obj
 0001:000128c4       $LN43                      00000001800138c4     libexpat:xmltok.obj
 0001:000128e0       little2_getAtts            00000001800138e0 f   libexpat:xmltok.obj
 0001:00012b34       $LN72                      0000000180013b34     libexpat:xmltok.obj
 0001:00012ba0       little2_charRefNumber      0000000180013ba0 f   libexpat:xmltok.obj
 0001:00012cb4       $LN56                      0000000180013cb4     libexpat:xmltok.obj
 0001:00012cc4       $LN55                      0000000180013cc4     libexpat:xmltok.obj
 0001:00012d00       little2_predefinedEntityName 0000000180013d00 f   libexpat:xmltok.obj
 0001:00012e30       little2_sameName           0000000180013e30 f   libexpat:xmltok.obj
 0001:00012fa0       $LN65                      0000000180013fa0     libexpat:xmltok.obj
 0001:00012fb4       $LN64                      0000000180013fb4     libexpat:xmltok.obj
 0001:00012fd0       little2_nameMatchesAscii   0000000180013fd0 f   libexpat:xmltok.obj
 0001:00013010       little2_nameLength         0000000180014010 f   libexpat:xmltok.obj
 0001:000130ac       $LN30                      00000001800140ac     libexpat:xmltok.obj
 0001:000130bc       $LN29                      00000001800140bc     libexpat:xmltok.obj
 0001:000130e0       little2_skipS              00000001800140e0 f   libexpat:xmltok.obj
 0001:00013140       little2_updatePosition     0000000180014140 f   libexpat:xmltok.obj
 0001:00013230       big2_scanComment           0000000180014230 f   libexpat:xmltok.obj
 0001:00013370       $LN51                      0000000180014370     libexpat:xmltok.obj
 0001:00013388       $LN50                      0000000180014388     libexpat:xmltok.obj
 0001:000133b0       big2_scanDecl              00000001800143b0 f   libexpat:xmltok.obj
 0001:00013544       $LN57                      0000000180014544     libexpat:xmltok.obj
 0001:00013554       $LN56                      0000000180014554     libexpat:xmltok.obj
 0001:00013570       big2_scanPi                0000000180014570 f   libexpat:xmltok.obj
 0001:00013930       $LN172                     0000000180014930     libexpat:xmltok.obj
 0001:00013948       $LN171                     0000000180014948     libexpat:xmltok.obj
 0001:00013964       $LN170                     0000000180014964     libexpat:xmltok.obj
 0001:00013984       $LN169                     0000000180014984     libexpat:xmltok.obj
 0001:000139a0       $LN168                     00000001800149a0     libexpat:xmltok.obj
 0001:000139e0       big2_cdataSectionTok       00000001800149e0 f   libexpat:xmltok.obj
 0001:00013cc0       $LN83                      0000000180014cc0     libexpat:xmltok.obj
 0001:00013cec       $LN82                      0000000180014cec     libexpat:xmltok.obj
 0001:00013d20       big2_scanEndTag            0000000180014d20 f   libexpat:xmltok.obj
 0001:00013fa4       $LN88                      0000000180014fa4     libexpat:xmltok.obj
 0001:00013fbc       $LN87                      0000000180014fbc     libexpat:xmltok.obj
 0001:00013fd8       $LN86                      0000000180014fd8     libexpat:xmltok.obj
 0001:00013ff8       $LN85                      0000000180014ff8     libexpat:xmltok.obj
 0001:00014020       big2_scanCharRef           0000000180015020 f   libexpat:xmltok.obj
 0001:000141e0       big2_scanRef               00000001800151e0 f   libexpat:xmltok.obj
 0001:0001441c       $LN71                      000000018001541c     libexpat:xmltok.obj
 0001:00014438       $LN70                      0000000180015438     libexpat:xmltok.obj
 0001:00014454       $LN69                      0000000180015454     libexpat:xmltok.obj
 0001:00014470       $LN68                      0000000180015470     libexpat:xmltok.obj
 0001:00014490       big2_scanAtts              0000000180015490 f   libexpat:xmltok.obj
 0001:000149b0       $LN247                     00000001800159b0     libexpat:xmltok.obj
 0001:000149d4       $LN246                     00000001800159d4     libexpat:xmltok.obj
 0001:000149f0       $LN245                     00000001800159f0     libexpat:xmltok.obj
 0001:00014a08       $LN244                     0000000180015a08     libexpat:xmltok.obj
 0001:00014a24       $LN243                     0000000180015a24     libexpat:xmltok.obj
 0001:00014a48       $LN242                     0000000180015a48     libexpat:xmltok.obj
 0001:00014a6c       $LN241                     0000000180015a6c     libexpat:xmltok.obj
 0001:00014a90       big2_scanLt                0000000180015a90 f   libexpat:xmltok.obj
 0001:00014fa0       $LN164                     0000000180015fa0     libexpat:xmltok.obj
 0001:00014fc4       $LN163                     0000000180015fc4     libexpat:xmltok.obj
 0001:00014fe0       $LN162                     0000000180015fe0     libexpat:xmltok.obj
 0001:00015044       $LN161                     0000000180016044     libexpat:xmltok.obj
 0001:0001505c       $LN160                     000000018001605c     libexpat:xmltok.obj
 0001:00015078       $LN159                     0000000180016078     libexpat:xmltok.obj
 0001:0001509c       $LN158                     000000018001609c     libexpat:xmltok.obj
 0001:000150c0       big2_contentTok            00000001800160c0 f   libexpat:xmltok.obj
 0001:00015404       $LN92                      0000000180016404     libexpat:xmltok.obj
 0001:00015430       $LN91                      0000000180016430     libexpat:xmltok.obj
 0001:00015460       big2_scanPercent           0000000180016460 f   libexpat:xmltok.obj
 0001:00015680       $LN71                      0000000180016680     libexpat:xmltok.obj
 0001:0001569c       $LN70                      000000018001669c     libexpat:xmltok.obj
 0001:000156b8       $LN69                      00000001800166b8     libexpat:xmltok.obj
 0001:000156d4       $LN68                      00000001800166d4     libexpat:xmltok.obj
 0001:000156f0       big2_scanPoundName         00000001800166f0 f   libexpat:xmltok.obj
 0001:000158f4       $LN70                      00000001800168f4     libexpat:xmltok.obj
 0001:0001590c       $LN69                      000000018001690c     libexpat:xmltok.obj
 0001:00015928       $LN68                      0000000180016928     libexpat:xmltok.obj
 0001:00015944       $LN67                      0000000180016944     libexpat:xmltok.obj
 0001:00015970       big2_scanLit               0000000180016970 f   libexpat:xmltok.obj
 0001:00015acc       $LN48                      0000000180016acc     libexpat:xmltok.obj
 0001:00015b10       big2_prologTok             0000000180016b10 f   libexpat:xmltok.obj
 0001:000160fc       $LN178                     00000001800170fc     libexpat:xmltok.obj
 0001:00016188       $LN177                     0000000180017188     libexpat:xmltok.obj
 0001:00016198       $LN176                     0000000180017198     libexpat:xmltok.obj
 0001:000161b4       $LN175                     00000001800171b4     libexpat:xmltok.obj
 0001:000161c8       $LN174                     00000001800171c8     libexpat:xmltok.obj
 0001:000161e4       $LN173                     00000001800171e4     libexpat:xmltok.obj
 0001:00016210       $LN172                     0000000180017210     libexpat:xmltok.obj
 0001:00016230       $LN171                     0000000180017230     libexpat:xmltok.obj
 0001:00016248       $LN170                     0000000180017248     libexpat:xmltok.obj
 0001:00016270       big2_attributeValueTok     0000000180017270 f   libexpat:xmltok.obj
 0001:00016400       $LN44                      0000000180017400     libexpat:xmltok.obj
 0001:00016450       big2_entityValueTok        0000000180017450 f   libexpat:xmltok.obj
 0001:000165f0       $LN44                      00000001800175f0     libexpat:xmltok.obj
 0001:00016610       $LN43                      0000000180017610     libexpat:xmltok.obj
 0001:00016630       big2_ignoreSectionTok      0000000180017630 f   libexpat:xmltok.obj
 0001:000167d0       $LN57                      00000001800177d0     libexpat:xmltok.obj
 0001:00016800       big2_isPublicId            0000000180017800 f   libexpat:xmltok.obj
 0001:000168e8       $LN44                      00000001800178e8     libexpat:xmltok.obj
 0001:000168f8       $LN43                      00000001800178f8     libexpat:xmltok.obj
 0001:00016920       big2_getAtts               0000000180017920 f   libexpat:xmltok.obj
 0001:00016b9c       $LN73                      0000000180017b9c     libexpat:xmltok.obj
 0001:00016c10       big2_charRefNumber         0000000180017c10 f   libexpat:xmltok.obj
 0001:00016d28       $LN51                      0000000180017d28     libexpat:xmltok.obj
 0001:00016d38       $LN50                      0000000180017d38     libexpat:xmltok.obj
 0001:00016d70       big2_predefinedEntityName  0000000180017d70 f   libexpat:xmltok.obj
 0001:00016ea0       big2_sameName              0000000180017ea0 f   libexpat:xmltok.obj
 0001:0001700c       $LN66                      000000018001800c     libexpat:xmltok.obj
 0001:00017020       $LN65                      0000000180018020     libexpat:xmltok.obj
 0001:00017040       big2_nameMatchesAscii      0000000180018040 f   libexpat:xmltok.obj
 0001:00017080       big2_nameLength            0000000180018080 f   libexpat:xmltok.obj
 0001:0001711c       $LN30                      000000018001811c     libexpat:xmltok.obj
 0001:0001712c       $LN29                      000000018001812c     libexpat:xmltok.obj
 0001:00017150       big2_skipS                 0000000180018150 f   libexpat:xmltok.obj
 0001:000171b0       big2_updatePosition        00000001800181b0 f   libexpat:xmltok.obj
 0001:000172a0       initUpdatePosition         00000001800182a0 f   libexpat:xmltok.obj
 0001:00017360       toAscii                    0000000180018360 f   libexpat:xmltok.obj
 0001:000173b0       parsePseudoAttribute       00000001800183b0 f   libexpat:xmltok.obj
 0001:00017710       doParseXmlDecl             0000000180018710 f   libexpat:xmltok.obj
 0001:00017aa0       unknown_isName             0000000180018aa0 f   libexpat:xmltok.obj
 0001:00017b10       unknown_isNmstrt           0000000180018b10 f   libexpat:xmltok.obj
 0001:00017b80       unknown_isInvalid          0000000180018b80 f   libexpat:xmltok.obj
 0001:00017bf0       unknown_toUtf8             0000000180018bf0 f   libexpat:xmltok.obj
 0001:00017d80       unknown_toUtf16            0000000180018d80 f   libexpat:xmltok.obj
 0001:00018160       getEncodingIndex           0000000180019160 f   libexpat:xmltok.obj
 0001:00018210       initScanProlog             0000000180019210 f   libexpat:xmltok.obj
 0001:00018390       initScanContent            0000000180019390 f   libexpat:xmltok.obj
 0001:000185a0       findEncoding               00000001800195a0 f   libexpat:xmltok.obj
 0001:00018770       initScanPrologNS           0000000180019770 f   libexpat:xmltok.obj
 0001:000188f0       initScanContentNS          00000001800198f0 f   libexpat:xmltok.obj
 0001:00018b00       findEncodingNS             0000000180019b00 f   libexpat:xmltok.obj
 0001:00018cf0       prolog0                    0000000180019cf0 f   libexpat:xmlrole.obj
 0001:00018e1c       $LN16                      0000000180019e1c     libexpat:xmlrole.obj
 0001:00018e70       prolog1                    0000000180019e70 f   libexpat:xmlrole.obj
 0001:00018f64       $LN15                      0000000180019f64     libexpat:xmlrole.obj
 0001:00018fb0       prolog2                    0000000180019fb0 f   libexpat:xmlrole.obj
 0001:00019010       doctype0                   000000018001a010 f   libexpat:xmlrole.obj
 0001:00019060       doctype1                   000000018001a060 f   libexpat:xmlrole.obj
 0001:00019160       doctype2                   000000018001a160 f   libexpat:xmlrole.obj
 0001:000191b0       doctype3                   000000018001a1b0 f   libexpat:xmlrole.obj
 0001:00019200       doctype4                   000000018001a200 f   libexpat:xmlrole.obj
 0001:00019260       doctype5                   000000018001a260 f   libexpat:xmlrole.obj
 0001:000192b0       internalSubset             000000018001a2b0 f   libexpat:xmlrole.obj
 0001:0001943c       $LN20                      000000018001a43c     libexpat:xmlrole.obj
 0001:00019458       $LN19                      000000018001a458     libexpat:xmlrole.obj
 0001:00019480       externalSubset1            000000018001a480 f   libexpat:xmlrole.obj
 0001:000194e0       entity0                    000000018001a4e0 f   libexpat:xmlrole.obj
 0001:00019530       entity1                    000000018001a530 f   libexpat:xmlrole.obj
 0001:00019580       entity2                    000000018001a580 f   libexpat:xmlrole.obj
 0001:00019660       entity3                    000000018001a660 f   libexpat:xmlrole.obj
 0001:000196b0       entity4                    000000018001a6b0 f   libexpat:xmlrole.obj
 0001:00019700       entity5                    000000018001a700 f   libexpat:xmlrole.obj
 0001:000197c0       entity6                    000000018001a7c0 f   libexpat:xmlrole.obj
 0001:00019810       entity7                    000000018001a810 f   libexpat:xmlrole.obj
 0001:000198f0       entity8                    000000018001a8f0 f   libexpat:xmlrole.obj
 0001:00019940       entity9                    000000018001a940 f   libexpat:xmlrole.obj
 0001:00019990       entity10                   000000018001a990 f   libexpat:xmlrole.obj
 0001:000199f0       notation0                  000000018001a9f0 f   libexpat:xmlrole.obj
 0001:00019a40       notation1                  000000018001aa40 f   libexpat:xmlrole.obj
 0001:00019b10       notation2                  000000018001ab10 f   libexpat:xmlrole.obj
 0001:00019b60       notation3                  000000018001ab60 f   libexpat:xmlrole.obj
 0001:00019bb0       notation4                  000000018001abb0 f   libexpat:xmlrole.obj
 0001:00019c20       attlist0                   000000018001ac20 f   libexpat:xmlrole.obj
 0001:00019c70       attlist1                   000000018001ac70 f   libexpat:xmlrole.obj
 0001:00019ce0       attlist2                   000000018001ace0 f   libexpat:xmlrole.obj
 0001:00019e00       attlist3                   000000018001ae00 f   libexpat:xmlrole.obj
 0001:00019e50       attlist4                   000000018001ae50 f   libexpat:xmlrole.obj
 0001:00019ea0       attlist5                   000000018001aea0 f   libexpat:xmlrole.obj
 0001:00019ee0       attlist6                   000000018001aee0 f   libexpat:xmlrole.obj
 0001:00019f30       attlist7                   000000018001af30 f   libexpat:xmlrole.obj
 0001:00019f80       attlist8                   000000018001af80 f   libexpat:xmlrole.obj
 0001:0001a0b0       attlist9                   000000018001b0b0 f   libexpat:xmlrole.obj
 0001:0001a100       element0                   000000018001b100 f   libexpat:xmlrole.obj
 0001:0001a150       element1                   000000018001b150 f   libexpat:xmlrole.obj
 0001:0001a250       element2                   000000018001b250 f   libexpat:xmlrole.obj
 0001:0001a39c       $LN17                      000000018001b39c     libexpat:xmlrole.obj
 0001:0001a3bc       $LN16                      000000018001b3bc     libexpat:xmlrole.obj
 0001:0001a3e0       element3                   000000018001b3e0 f   libexpat:xmlrole.obj
 0001:0001a460       element4                   000000018001b460 f   libexpat:xmlrole.obj
 0001:0001a4b0       element5                   000000018001b4b0 f   libexpat:xmlrole.obj
 0001:0001a510       element6                   000000018001b510 f   libexpat:xmlrole.obj
 0001:0001a5a8       $LN15                      000000018001b5a8     libexpat:xmlrole.obj
 0001:0001a5c4       $LN14                      000000018001b5c4     libexpat:xmlrole.obj
 0001:0001a5e0       element7                   000000018001b5e0 f   libexpat:xmlrole.obj
 0001:0001a6c8       $LN20                      000000018001b6c8     libexpat:xmlrole.obj
 0001:0001a6e8       $LN19                      000000018001b6e8     libexpat:xmlrole.obj
 0001:0001a700       condSect0                  000000018001b700 f   libexpat:xmlrole.obj
 0001:0001a7c0       condSect1                  000000018001b7c0 f   libexpat:xmlrole.obj
 0001:0001a800       condSect2                  000000018001b800 f   libexpat:xmlrole.obj
 0001:0001a840       declClose                  000000018001b840 f   libexpat:xmlrole.obj
 0001:0001abc0       $$000000                   000000018001bbc0     LIBCMT:amdsecgs.obj
 0001:0001ac40       ?dllmain_crt_dispatch@@YAHQEAUHINSTANCE__@@KQEAX@Z 000000018001bc40 f   LIBCMT:dll_dllmain.obj
 0001:0001ac90       ?dllmain_crt_process_attach@@YAHQEAUHINSTANCE__@@QEAX@Z 000000018001bc90 f   LIBCMT:dll_dllmain.obj
 0001:0001adac       ?dllmain_crt_process_detach@@YAH_N@Z 000000018001bdac f   LIBCMT:dll_dllmain.obj
 0001:0001ae3c       ?dllmain_dispatch@@YAHQEAUHINSTANCE__@@KQEAX@Z 000000018001be3c f   LIBCMT:dll_dllmain.obj
 0001:0001b168       capture_current_context    000000018001c168 f   LIBCMT:gs_report.obj
 0001:0001b1d8       capture_previous_context   000000018001c1d8 f   LIBCMT:gs_report.obj
 0001:0001c080       $$000000                   000000018001d080     libvcruntime:memset.obj
 0001:0001c17c       MsetTab                    000000018001d17c     libvcruntime:memset.obj
 0001:0001c240       $$000000                   000000018001d240     libvcruntime:notify.obj
 0001:0001c568       ?try_get_function@@YAPEAXW4function_id@?A0xa3b92138@@QEBDQEBW4module_id@2@2@Z 000000018001d568 f   libvcruntime:winapi_downlevel.obj
 0001:0001c950       $$000000                   000000018001d950     libvcruntime:memcpy.obj
 0001:0001ca07       MoveSmall                  000000018001da07     libvcruntime:memcpy.obj
 0001:0001cdc0       $$000000                   000000018001ddc0     libvcruntime:handlers.obj
 0001:0001ce7c       ??$common_assert_to_message_box@_W@@YAXQEB_W0IQEAX@Z 000000018001de7c f   libucrt:assert.obj
 0001:0001cf40       ??$common_assert_to_message_box_build_string@_W@@YAXQEA_W_KQEB_W2IQEAX@Z 000000018001df40 f   libucrt:assert.obj
 0001:0001d444       ??$common_assert_to_stderr@_W@@YAXQEB_W0I@Z 000000018001e444 f   libucrt:assert.obj
 0001:0001d5b4       ?get_assert_format@@YAPEB_W_W@Z 000000018001e5b4 f   libucrt:assert.obj
 0001:0001da58       ??$?RV<lambda_0d412022a4b28cc8a401ea49574e8ae6>@@AEAV<lambda_a775ed57af18ba8e4d5dc780aa9068fe>@@V<lambda_975a71a6baa488a08f4e15f6b0339b9e>@@@?$__crt_seh_guarded_call@H@@QEAAH$$QEAV<lambda_0d412022a4b28cc8a401ea49574e8ae6>@@AEAV<lambda_a775ed57af18ba8e4d5dc780aa9068fe>@@$$QEAV<lambda_975a71a6baa488a08f4e15f6b0339b9e>@@@Z 000000018001ea58 f   libucrt:output.obj
 0001:0001da98       ??$?RV<lambda_a62c933ada0517137acf5807a1eeac1f>@@AEAV<lambda_a31071773b9a94e445cbd5d04ef99106>@@V<lambda_56065050dbf3ada7e59a83db45153de3>@@@?$__crt_seh_guarded_call@H@@QEAAH$$QEAV<lambda_a62c933ada0517137acf5807a1eeac1f>@@AEAV<lambda_a31071773b9a94e445cbd5d04ef99106>@@$$QEAV<lambda_56065050dbf3ada7e59a83db45153de3>@@@Z 000000018001ea98 f   libucrt:output.obj
 0001:0001dad8       ??$common_vsprintf@Vstandard_base@__crt_stdio_output@@_W@@YAH_KQEA_W0QEB_WQEAU__crt_locale_pointers@@QEAD@Z 000000018001ead8 f   libucrt:output.obj
 0001:0001e248       ??R<lambda_a31071773b9a94e445cbd5d04ef99106>@@QEBAHXZ 000000018001f248 f   libucrt:output.obj
 0001:0001e378       ??R<lambda_a775ed57af18ba8e4d5dc780aa9068fe>@@QEBAHXZ 000000018001f378 f   libucrt:output.obj
 0001:00020ef4       ??$common_getenv@D@@YAPEADQEBD@Z 0000000180021ef4 f   libucrt:getenv.obj
 0001:00020f54       ??$common_getenv_nolock@D@@YAPEADQEBD@Z 0000000180021f54 f   libucrt:getenv.obj
 0001:00021290       ??$?RV<lambda_d80eeec6fff315bfe5c115232f3240e3>@@AEAV<lambda_6e4b09c48022b2350581041d5f6b0c4c>@@V<lambda_2358e3775559c9db80273638284d5e45>@@@?$__crt_seh_guarded_call@X@@QEAAX$$QEAV<lambda_d80eeec6fff315bfe5c115232f3240e3>@@AEAV<lambda_6e4b09c48022b2350581041d5f6b0c4c>@@$$QEAV<lambda_2358e3775559c9db80273638284d5e45>@@@Z 0000000180022290 f   libucrt:exit.obj
 0001:000212c8       ??R<lambda_6e4b09c48022b2350581041d5f6b0c4c>@@QEBA@XZ 00000001800222c8 f   libucrt:exit.obj
 0001:0002138c       ?atexit_exception_filter@@YAHK@Z 000000018002238c f   libucrt:exit.obj
 0001:00021398       ?common_exit@@YAXHW4_crt_exit_cleanup_mode@@W4_crt_exit_return_mode@@@Z 0000000180022398 f   libucrt:exit.obj
 0001:00021454       ?exit_or_terminate_process@@YAXI@Z 0000000180022454 f   libucrt:exit.obj
 0001:000214a0       ?try_cor_exit_process@@YAXI@Z 00000001800224a0 f   libucrt:exit.obj
 0001:00021528       ??$parse_command_line@D@@YAXPEADPEAPEAD0PEA_K2@Z 0000000180022528 f   libucrt:argv_parsing.obj
 0001:000218d4       ??$common_initialize_environment_nolock@D@@YAHXZ 00000001800228d4 f   libucrt:environment_initialization.obj
 0001:00021940       ??$create_environment@D@@YAQEAPEADQEAD@Z 0000000180022940 f   libucrt:environment_initialization.obj
 0001:00021a48       ??$free_environment@_W@@YAXQEAPEA_W@Z 0000000180022a48 f   libucrt:environment_initialization.obj
 0001:00021a48       ??$free_environment@D@@YAXQEAPEAD@Z 0000000180022a48 f   libucrt:environment_initialization.obj
 0001:00021a8c       ??$initialize_environment_by_cloning_nolock@D@@YAHXZ 0000000180022a8c f   libucrt:environment_initialization.obj
 0001:00021b60       ??$uninitialize_environment_internal@D@@YAXAEAPEAPEAD@Z 0000000180022b60 f   libucrt:environment_initialization.obj
 0001:00021b7c       ??$uninitialize_environment_internal@_W@@YAXAEAPEAPEA_W@Z 0000000180022b7c f   libucrt:environment_initialization.obj
 0001:00021c14       ??$?RV<lambda_7777bce6b2f8c936911f934f8298dc43>@@AEAV<lambda_f03950bc5685219e0bcd2087efbe011e>@@V<lambda_3883c3dff614d5e0c5f61bb1ac94921c>@@@?$__crt_seh_guarded_call@H@@QEAAH$$QEAV<lambda_7777bce6b2f8c936911f934f8298dc43>@@AEAV<lambda_f03950bc5685219e0bcd2087efbe011e>@@$$QEAV<lambda_3883c3dff614d5e0c5f61bb1ac94921c>@@@Z 0000000180022c14 f   libucrt:onexit.obj
 0001:00021c50       ??R<lambda_f03950bc5685219e0bcd2087efbe011e>@@QEBAHXZ 0000000180022c50 f   libucrt:onexit.obj
 0001:00021dcc       initialize_global_variables 0000000180022dcc f   libucrt:initialization.obj
 0001:00021de0       initialize_c               0000000180022de0 f   libucrt:initialization.obj
 0001:00021e04       initialize_global_state_isolation 0000000180022e04 f   libucrt:initialization.obj
 0001:00021e04       initialize_environment     0000000180022e04 f   libucrt:initialization.obj
 0001:00021e04       report_memory_leaks        0000000180022e04 f   libucrt:initialization.obj
 0001:00021e04       uninitialize_c             0000000180022e04 f   libucrt:initialization.obj
 0001:00021e04       uninitialize_global_state_isolation 0000000180022e04 f   libucrt:initialization.obj
 0001:00021e08       uninitialize_environment   0000000180022e08 f   libucrt:initialization.obj
 0001:00021e18       initialize_pointers        0000000180022e18 f   libucrt:initialization.obj
 0001:00021e58       uninitialize_vcruntime     0000000180022e58 f   libucrt:initialization.obj
 0001:00021e60       uninitialize_allocated_memory 0000000180022e60 f   libucrt:initialization.obj
 0001:00021ea0       uninitialize_allocated_io_buffers 0000000180022ea0 f   libucrt:initialization.obj
 0001:000229f0       $$000000                   00000001800239f0     libucrt:strncmp.obj
 0001:00022ea8       ??$common_xtox@K_W@@YAHKQEA_W_KI_N@Z 0000000180023ea8 f   libucrt:xtoa.obj
 0001:00022f7c       ??$common_xtox_s@K_W@@YAHKQEA_W_KI_N@Z 0000000180023f7c f   libucrt:xtoa.obj
 0001:00023508       ??$?RV<lambda_842d9ff0dc9ef11c61343bbaebe7f885>@@AEAV<lambda_c5860995281e5c4ce005b3de8f5874ee>@@V<lambda_d90129c13df834fdcbf8d2b88dafcf2d>@@@?$__crt_seh_guarded_call@X@@QEAAX$$QEAV<lambda_842d9ff0dc9ef11c61343bbaebe7f885>@@AEAV<lambda_c5860995281e5c4ce005b3de8f5874ee>@@$$QEAV<lambda_d90129c13df834fdcbf8d2b88dafcf2d>@@@Z 0000000180024508 f   libucrt:fflush.obj
 0001:000235a4       ??$?RV<lambda_886d6c58226a84441f68b9f2b8217b83>@@AEAV<lambda_ab61a845afdef5b7c387490eaf3616ee>@@V<lambda_f7f22ab5edc0698d5f6905b0d3f44752>@@@?$__crt_seh_guarded_call@X@@QEAAX$$QEAV<lambda_886d6c58226a84441f68b9f2b8217b83>@@AEAV<lambda_ab61a845afdef5b7c387490eaf3616ee>@@$$QEAV<lambda_f7f22ab5edc0698d5f6905b0d3f44752>@@@Z 00000001800245a4 f   libucrt:fflush.obj
 0001:00023684       ??$?RV<lambda_c376a267cfb53b6959b3b692ec76b120>@@AEAV<lambda_9a32fed5bf61b6b509b2d3f6003082a1>@@V<lambda_572fbb9fa0ab338edf41edfd4b5fcc8d>@@@?$__crt_seh_guarded_call@H@@QEAAH$$QEAV<lambda_c376a267cfb53b6959b3b692ec76b120>@@AEAV<lambda_9a32fed5bf61b6b509b2d3f6003082a1>@@$$QEAV<lambda_572fbb9fa0ab338edf41edfd4b5fcc8d>@@@Z 0000000180024684 f   libucrt:fflush.obj
 0001:000236c4       ?common_flush_all@@YAH_N@Z 00000001800246c4 f   libucrt:fflush.obj
 0001:0002385c       ??$?RV<lambda_84ec643ea9557e2f7dc01bb0e9624395>@@AEAV<lambda_ca71763b3c0644891230e4f79ea54fa6>@@V<lambda_439a761618c59b0600e24586724d733b>@@@?$__crt_seh_guarded_call@H@@QEAAH$$QEAV<lambda_84ec643ea9557e2f7dc01bb0e9624395>@@AEAV<lambda_ca71763b3c0644891230e4f79ea54fa6>@@$$QEAV<lambda_439a761618c59b0600e24586724d733b>@@@Z 000000018002485c f   libucrt:setvbuf.obj
 0001:0002389c       ??R<lambda_ca71763b3c0644891230e4f79ea54fa6>@@QEBAHXZ 000000018002489c f   libucrt:setvbuf.obj
 0001:00023a18       ??$?RV<lambda_450d765d439847d4c735a33c368b5fc0>@@AEAV<lambda_44731a7d0e6d81c3e6aa82d741081786>@@V<lambda_601a2a7da3b7a96e9554ac7215c4b07c>@@@?$__crt_seh_guarded_call@P6AXH@Z@@QEAAP6AXH@Z$$QEAV<lambda_450d765d439847d4c735a33c368b5fc0>@@AEAV<lambda_44731a7d0e6d81c3e6aa82d741081786>@@$$QEAV<lambda_601a2a7da3b7a96e9554ac7215c4b07c>@@@Z 0000000180024a18 f   libucrt:signal.obj
 0001:00023d7c       ?internal_isupper_l@@YA_NHQEAU__crt_locale_pointers@@@Z 0000000180024d7c f   libucrt:tolower_toupper.obj
 0001:00023f48       ??$?RV<lambda_0ae27a3a962d80f24befdcbee591983d>@@AEAV<lambda_8d0ee55de4b1038c4002e0adecdf1839>@@V<lambda_dc504788e8f1664fe9b84e20bfb512f2>@@@?$__crt_seh_guarded_call@X@@QEAAX$$QEAV<lambda_0ae27a3a962d80f24befdcbee591983d>@@AEAV<lambda_8d0ee55de4b1038c4002e0adecdf1839>@@$$QEAV<lambda_dc504788e8f1664fe9b84e20bfb512f2>@@@Z 0000000180024f48 f   libucrt:per_thread_data.obj
 0001:00023f88       ??$?RV<lambda_2d41944a1d46af3157314b8a01080d33>@@AEAV<lambda_8f455de75cd7d7f24b4096f044d8b9e6>@@V<lambda_aa500f224e6afead328df44964fe2772>@@@?$__crt_seh_guarded_call@X@@QEAAX$$QEAV<lambda_2d41944a1d46af3157314b8a01080d33>@@AEAV<lambda_8f455de75cd7d7f24b4096f044d8b9e6>@@$$QEAV<lambda_aa500f224e6afead328df44964fe2772>@@@Z 0000000180024f88 f   libucrt:per_thread_data.obj
 0001:00023fc8       ??$?RV<lambda_aa87e3671a710a21b5dc78c0bdf72e11>@@AEAV<lambda_92619d2358a28f41a33ba319515a20b9>@@V<lambda_6992ecaafeb10aed2b74cb1fae11a551>@@@?$__crt_seh_guarded_call@X@@QEAAX$$QEAV<lambda_aa87e3671a710a21b5dc78c0bdf72e11>@@AEAV<lambda_92619d2358a28f41a33ba319515a20b9>@@$$QEAV<lambda_6992ecaafeb10aed2b74cb1fae11a551>@@@Z 0000000180024fc8 f   libucrt:per_thread_data.obj
 0001:00024010       ??$?RV<lambda_f2e299630e499de9f9a165e60fcd3db5>@@AEAV<lambda_2ae9d31cdba2644fcbeaf08da7c24588>@@V<lambda_40d01ff24d0e7b3814fdbdcee8eab3c7>@@@?$__crt_seh_guarded_call@X@@QEAAX$$QEAV<lambda_f2e299630e499de9f9a165e60fcd3db5>@@AEAV<lambda_2ae9d31cdba2644fcbeaf08da7c24588>@@$$QEAV<lambda_40d01ff24d0e7b3814fdbdcee8eab3c7>@@@Z 0000000180025010 f   libucrt:per_thread_data.obj
 0001:00024070       ?construct_ptd_array@@YAXQEAU__acrt_ptd@@@Z 0000000180025070 f   libucrt:per_thread_data.obj
 0001:00024140       ?destroy_fls@@YAXPEAX@Z    0000000180025140 f   libucrt:per_thread_data.obj
 0001:00024160       ?destroy_ptd_array@@YAXQEAU__acrt_ptd@@@Z 0000000180025160 f   libucrt:per_thread_data.obj
 0001:00024258       ?replace_current_thread_locale_nolock@@YAXQEAU__acrt_ptd@@QEAU__crt_locale_data@@@Z 0000000180025258 f   libucrt:per_thread_data.obj
 0001:00024614       ??$?RV<lambda_410d79af7f07d98d83a3f525b3859a53>@@AEAV<lambda_3e16ef9562a7dcce91392c22ab16ea36>@@V<lambda_38119f0e861e05405d8a144b9b982f0a>@@@?$__crt_seh_guarded_call@X@@QEAAX$$QEAV<lambda_410d79af7f07d98d83a3f525b3859a53>@@AEAV<lambda_3e16ef9562a7dcce91392c22ab16ea36>@@$$QEAV<lambda_38119f0e861e05405d8a144b9b982f0a>@@@Z 0000000180025614 f   libucrt:wsetlocale.obj
 0001:00024738       ?try_get_function@@YAPEAXW4function_id@?A0x391cf84c@@QEBDQEBW4module_id@2@2@Z 0000000180025738 f   libucrt:winapi_thunks.obj
 0001:00025164       ?initialize_inherited_file_handles_nolock@@YAXXZ 0000000180026164 f   libucrt:ioinit.obj
 0001:00025254       ?initialize_stdio_handles_nolock@@YAXXZ 0000000180026254 f   libucrt:ioinit.obj
 0001:00025ba4       ?fp_format_a@@YAHQEBNPEAD_KQEAD2H_NIQEAU__crt_locale_pointers@@@Z 0000000180026ba4 f   libucrt:cvt.obj
 0001:00025f14       ?fp_format_e@@YAHQEBNQEAD_K12H_NIQEAU__crt_locale_pointers@@@Z 0000000180026f14 f   libucrt:cvt.obj
 0001:00025ff0       ?fp_format_e_internal@@YAHQEAD_KH_NIQEAU_strflt@@2QEAU__crt_locale_pointers@@@Z 0000000180026ff0 f   libucrt:cvt.obj
 0001:000261c4       ?fp_format_f_internal@@YAHQEAD_KHQEAU_strflt@@_NQEAU__crt_locale_pointers@@@Z 00000001800271c4 f   libucrt:cvt.obj
 0001:00026308       ?fp_format_g@@YAHQEBNQEAD_K12H_NIQEAU__crt_locale_pointers@@@Z 0000000180027308 f   libucrt:cvt.obj
 0001:0002643c       ?fp_format_nan_or_infinity@@YAHW4__acrt_fp_class@@_NPEAD_K1@Z 000000018002743c f   libucrt:cvt.obj
 0001:00026dac       ?<lambda_invoker_cdecl>@<lambda_c2303d2482d7c3675ea2e24c4cfb6115>@@CAHPEBX0@Z 0000000180027dac f   libucrt:argv_wildcards.obj
 0001:000270c4       ??$common_expand_argv_wildcards@D@@YAHQEAPEADQEAPEAPEAD@Z 00000001800280c4 f   libucrt:argv_wildcards.obj
 0001:000272d0       ??$copy_and_add_argument_to_buffer@D@@YAHQEBD0_KAEAV?$argument_list@D@?A0x5f5c8891@@@Z 00000001800282d0 f   libucrt:argv_wildcards.obj
 0001:00027458       ??$expand_argument_wildcards@D@@YAHQEAD0AEAV?$argument_list@D@?A0x5f5c8891@@@Z 0000000180028458 f   libucrt:argv_wildcards.obj
 0001:00027770       ??$?RV<lambda_efdfa57d1f175319df784efa44bb7b81>@@AEAV<lambda_5f0a4c1567f8adc6734073e5d1e1b35c>@@V<lambda_2e8a7d3640ea6ccb4c2413664c2db6fd>@@@?$__crt_seh_guarded_call@X@@QEAAX$$QEAV<lambda_efdfa57d1f175319df784efa44bb7b81>@@AEAV<lambda_5f0a4c1567f8adc6734073e5d1e1b35c>@@$$QEAV<lambda_2e8a7d3640ea6ccb4c2413664c2db6fd>@@@Z 0000000180028770 f   libucrt:mbctype.obj
 0001:0002792c       ?getSystemCP@@YAHH@Z       000000018002892c f   libucrt:mbctype.obj
 0001:000279ac       ?setSBCS@@YAXPEAU__crt_multibyte_data@@@Z 00000001800289ac f   libucrt:mbctype.obj
 0001:00027a3c       ?setSBUpLow@@YAXPEAU__crt_multibyte_data@@@Z 0000000180028a3c f   libucrt:mbctype.obj
 0001:00027c20       ?setmbcp_internal@@YAHH_NQEAU__acrt_ptd@@QEAPEAU__crt_multibyte_data@@@Z 0000000180028c20 f   libucrt:mbctype.obj
 0001:00027de4       ?update_thread_multibyte_data_internal@@YAPEAU__crt_multibyte_data@@QEAU__acrt_ptd@@QEAPEAU1@@Z 0000000180028de4 f   libucrt:mbctype.obj
 0001:000281d4       ?x_ismbbtype_l@@YAHPEAU__crt_locale_pointers@@IHH@Z 00000001800291d4 f   libucrt:ismbbyte.obj
 0001:00028480       ??$common_set_variable_in_environment_nolock@D@@YAHQEADH@Z 0000000180029480 f   libucrt:setenv.obj
 0001:000287a0       ??$copy_environment@D@@YAPEAPEADQEAPEAD@Z 00000001800297a0 f   libucrt:setenv.obj
 0001:00028c14       ??$?RV<lambda_a37b2b86f63e897a80ea819b0eb08c01>@@AEAV<lambda_38ce7e780aa69e748d6df282ebc68efe>@@V<lambda_99fb1378e971ab6e7edea83e3a7a83a2>@@@?$__crt_seh_guarded_call@H@@QEAAH$$QEAV<lambda_a37b2b86f63e897a80ea819b0eb08c01>@@AEAV<lambda_38ce7e780aa69e748d6df282ebc68efe>@@$$QEAV<lambda_99fb1378e971ab6e7edea83e3a7a83a2>@@@Z 0000000180029c14 f   libucrt:commit.obj
 0001:00028d34       ?write_double_translated_ansi_nolock@@YA?AUwrite_result@?A0x17268360@@HQEBDI@Z 0000000180029d34 f   libucrt:write.obj
 0001:00029210       ?write_text_ansi_nolock@@YA?AUwrite_result@?A0x17268360@@HQEBDI@Z 000000018002a210 f   libucrt:write.obj
 0001:00029314       ?write_text_utf16le_nolock@@YA?AUwrite_result@?A0x17268360@@HQEBDI@Z 000000018002a314 f   libucrt:write.obj
 0001:00029430       ?write_text_utf8_nolock@@YA?AUwrite_result@?A0x17268360@@HQEBDI@Z 000000018002a430 f   libucrt:write.obj
 0001:000299bc       ?__acrt_LCMapStringA_stat@@YAHPEAU__crt_locale_pointers@@PEB_WKPEBDHPEADHHH@Z 000000018002a9bc f   libucrt:lcmapstringa.obj
 0001:0002a2f0       ?free_crt_array_internal@@YAXQEAPEBX_K@Z 000000018002b2f0 f   libucrt:inittime.obj
 0001:0002a5e0       ?GetTableIndexFromLocaleName@@YAHPEB_W@Z 000000018002b5e0 f   libucrt:lcidtoname_downlevel.obj
 0001:0002c4c0       memcpy_s                   000000018002d4c0 f   libucrt:cfout.obj
 0001:0002c548       ??$write_buffer_nolock@D@@YA_NDV__crt_stdio_stream@@@Z 000000018002d548 f   libucrt:_flsbuf.obj
 0001:0002c62c       ??$write_buffer_nolock@_W@@YA_N_WV__crt_stdio_stream@@@Z 000000018002d62c f   libucrt:_flsbuf.obj
 0001:0002c714       ?stream_is_at_end_of_file_nolock@@YA_NV__crt_stdio_stream@@@Z 000000018002d714 f   libucrt:_flsbuf.obj
 0001:0002cb4c       ?InternalCompareStringA@@YAHPEAU__crt_locale_pointers@@PEB_WKPEBDH2HH@Z 000000018002db4c f   libucrt:comparestringa.obj
 0001:0002d3d4       fallbackMethod             000000018002e3d4 f   libucrt:strpbrk.obj
 0001:0002d7a4       $LN78                      000000018002e7a4     libucrt:strpbrk.obj
 0001:0002d7e0       $LN77                      000000018002e7e0     libucrt:strpbrk.obj
 0001:0002d820       $LN76                      000000018002e820     libucrt:strpbrk.obj
 0001:0002d8fc       ?initialize_multibyte@@YAHXZ 000000018002e8fc f   libucrt:multibyte_initializer.obj
 0001:0002daf0       ??$common_lseek@_J@@YA_JH_JH@Z 000000018002eaf0 f   libucrt:lseek.obj
 0001:0002dbe0       ??$common_lseek_nolock@_J@@YA_JH_JH@Z 000000018002ebe0 f   libucrt:lseek.obj
 0001:0002dce0       ??$?RV<lambda_751a882b2c74d4b022dec766aa51a29a>@@AEAV<lambda_628dfdc04ba53c8bfc02c9951375f3f5>@@V<lambda_f6c7be5f7998530c34de24c7437d6b54>@@@?$__crt_seh_guarded_call@H@@QEAAH$$QEAV<lambda_751a882b2c74d4b022dec766aa51a29a>@@AEAV<lambda_628dfdc04ba53c8bfc02c9951375f3f5>@@$$QEAV<lambda_f6c7be5f7998530c34de24c7437d6b54>@@@Z 000000018002ece0 f   libucrt:close.obj
 0001:0002e240       $$000000                   000000018002f240     libucrt:log10.obj
 0001:0002ed08       _call_matherr              000000018002fd08 f   libucrt:libm_error.obj
 0001:0002ed70       _exception_enabled         000000018002fd70 f   libucrt:libm_error.obj
 0001:0002f000       _log_special_common        0000000180030000 f   libucrt:log_special.obj
 0001:0002f0a0       $$000000                   00000001800300a0     libucrt:fpsr.obj
 0001:0002fcf0       $$000000                   0000000180030cf0     LIBCMT:chkstk.obj
 0001:0002fd60       $$000000                   0000000180030d60     libvcruntime:memcmp.obj
 0001:00030010       $$000000                   0000000180031010     LIBCMT:guard_dispatch.obj
 0001:00030030       ?fin$0@?0??dllmain_crt_process_attach@@YAHQEAUHINSTANCE__@@QEAX@Z@4HA 0000000180031030 f   LIBCMT:dll_dllmain.obj
 0001:00030047       ?fin$0@?0??dllmain_crt_process_detach@@YAH_N@Z@4HA 0000000180031047 f   LIBCMT:dll_dllmain.obj
 0001:00030063       ?filt$0@?0??dllmain_dispatch@@YAHQEAUHINSTANCE__@@KQEAX@Z@4HA 0000000180031063 f   LIBCMT:dll_dllmain.obj
 0001:00030099       __scrt_is_nonwritable_in_current_image$filt$0 0000000180031099 f   LIBCMT:utility.obj
 0001:000300b1       __DestructExceptionObject$filt$0 00000001800310b1 f   libvcruntime:ehhelpers.obj
 0001:000300c9       ?fin$0@?0???$?RV<lambda_0d412022a4b28cc8a401ea49574e8ae6>@@AEAV<lambda_a775ed57af18ba8e4d5dc780aa9068fe>@@V<lambda_975a71a6baa488a08f4e15f6b0339b9e>@@@?$__crt_seh_guarded_call@H@@QEAAH$$QEAV<lambda_0d412022a4b28cc8a401ea49574e8ae6>@@AEAV<lambda_a775ed57af18ba8e4d5dc780aa9068fe>@@$$QEAV<lambda_975a71a6baa488a08f4e15f6b0339b9e>@@@Z@4HA 00000001800310c9 f   libucrt:output.obj
 0001:000300c9       ?fin$0@?0???$?RV<lambda_a62c933ada0517137acf5807a1eeac1f>@@AEAV<lambda_a31071773b9a94e445cbd5d04ef99106>@@V<lambda_56065050dbf3ada7e59a83db45153de3>@@@?$__crt_seh_guarded_call@H@@QEAAH$$QEAV<lambda_a62c933ada0517137acf5807a1eeac1f>@@AEAV<lambda_a31071773b9a94e445cbd5d04ef99106>@@$$QEAV<lambda_56065050dbf3ada7e59a83db45153de3>@@@Z@4HA 00000001800310c9 f   libucrt:output.obj
 0001:000300c9       ?fin$0@?0???$?RV<lambda_84ec643ea9557e2f7dc01bb0e9624395>@@AEAV<lambda_ca71763b3c0644891230e4f79ea54fa6>@@V<lambda_439a761618c59b0600e24586724d733b>@@@?$__crt_seh_guarded_call@H@@QEAAH$$QEAV<lambda_84ec643ea9557e2f7dc01bb0e9624395>@@AEAV<lambda_ca71763b3c0644891230e4f79ea54fa6>@@$$QEAV<lambda_439a761618c59b0600e24586724d733b>@@@Z@4HA 00000001800310c9 f   libucrt:setvbuf.obj
 0001:000300c9       ?fin$0@?0???$?RV<lambda_c376a267cfb53b6959b3b692ec76b120>@@AEAV<lambda_9a32fed5bf61b6b509b2d3f6003082a1>@@V<lambda_572fbb9fa0ab338edf41edfd4b5fcc8d>@@@?$__crt_seh_guarded_call@H@@QEAAH$$QEAV<lambda_c376a267cfb53b6959b3b692ec76b120>@@AEAV<lambda_9a32fed5bf61b6b509b2d3f6003082a1>@@$$QEAV<lambda_572fbb9fa0ab338edf41edfd4b5fcc8d>@@@Z@4HA 00000001800310c9 f   libucrt:fflush.obj
 0001:000300c9       ?fin$0@?0???$?RV<lambda_842d9ff0dc9ef11c61343bbaebe7f885>@@AEAV<lambda_c5860995281e5c4ce005b3de8f5874ee>@@V<lambda_d90129c13df834fdcbf8d2b88dafcf2d>@@@?$__crt_seh_guarded_call@X@@QEAAX$$QEAV<lambda_842d9ff0dc9ef11c61343bbaebe7f885>@@AEAV<lambda_c5860995281e5c4ce005b3de8f5874ee>@@$$QEAV<lambda_d90129c13df834fdcbf8d2b88dafcf2d>@@@Z@4HA 00000001800310c9 f   libucrt:fflush.obj
 0001:000300e4       ?fin$0@?0???$common_getenv@D@@YAPEADQEBD@Z@4HA 00000001800310e4 f   libucrt:getenv.obj
 0001:000300fd       _query_new_handler$fin$0   00000001800310fd f   libucrt:new_handler.obj
 0001:00030113       ?fin$0@?0???$?RV<lambda_2d41944a1d46af3157314b8a01080d33>@@AEAV<lambda_8f455de75cd7d7f24b4096f044d8b9e6>@@V<lambda_aa500f224e6afead328df44964fe2772>@@@?$__crt_seh_guarded_call@X@@QEAAX$$QEAV<lambda_2d41944a1d46af3157314b8a01080d33>@@AEAV<lambda_8f455de75cd7d7f24b4096f044d8b9e6>@@$$QEAV<lambda_aa500f224e6afead328df44964fe2772>@@@Z@4HA 0000000180031113 f   libucrt:per_thread_data.obj
 0001:00030113       ?fin$0@?0???$?RV<lambda_450d765d439847d4c735a33c368b5fc0>@@AEAV<lambda_44731a7d0e6d81c3e6aa82d741081786>@@V<lambda_601a2a7da3b7a96e9554ac7215c4b07c>@@@?$__crt_seh_guarded_call@P6AXH@Z@@QEAAP6AXH@Z$$QEAV<lambda_450d765d439847d4c735a33c368b5fc0>@@AEAV<lambda_44731a7d0e6d81c3e6aa82d741081786>@@$$QEAV<lambda_601a2a7da3b7a96e9554ac7215c4b07c>@@@Z@4HA 0000000180031113 f   libucrt:signal.obj
 0001:00030113       ?fin$0@?0???$?RV<lambda_aa87e3671a710a21b5dc78c0bdf72e11>@@AEAV<lambda_92619d2358a28f41a33ba319515a20b9>@@V<lambda_6992ecaafeb10aed2b74cb1fae11a551>@@@?$__crt_seh_guarded_call@X@@QEAAX$$QEAV<lambda_aa87e3671a710a21b5dc78c0bdf72e11>@@AEAV<lambda_92619d2358a28f41a33ba319515a20b9>@@$$QEAV<lambda_6992ecaafeb10aed2b74cb1fae11a551>@@@Z@4HA 0000000180031113 f   libucrt:per_thread_data.obj
 0001:00030113       ?fin$0@?0???$?RV<lambda_0ae27a3a962d80f24befdcbee591983d>@@AEAV<lambda_8d0ee55de4b1038c4002e0adecdf1839>@@V<lambda_dc504788e8f1664fe9b84e20bfb512f2>@@@?$__crt_seh_guarded_call@X@@QEAAX$$QEAV<lambda_0ae27a3a962d80f24befdcbee591983d>@@AEAV<lambda_8d0ee55de4b1038c4002e0adecdf1839>@@$$QEAV<lambda_dc504788e8f1664fe9b84e20bfb512f2>@@@Z@4HA 0000000180031113 f   libucrt:per_thread_data.obj
 0001:00030113       ?fin$0@?0???$?RV<lambda_d80eeec6fff315bfe5c115232f3240e3>@@AEAV<lambda_6e4b09c48022b2350581041d5f6b0c4c>@@V<lambda_2358e3775559c9db80273638284d5e45>@@@?$__crt_seh_guarded_call@X@@QEAAX$$QEAV<lambda_d80eeec6fff315bfe5c115232f3240e3>@@AEAV<lambda_6e4b09c48022b2350581041d5f6b0c4c>@@$$QEAV<lambda_2358e3775559c9db80273638284d5e45>@@@Z@4HA 0000000180031113 f   libucrt:exit.obj
 0001:00030113       ?fin$0@?0???$?RV<lambda_efdfa57d1f175319df784efa44bb7b81>@@AEAV<lambda_5f0a4c1567f8adc6734073e5d1e1b35c>@@V<lambda_2e8a7d3640ea6ccb4c2413664c2db6fd>@@@?$__crt_seh_guarded_call@X@@QEAAX$$QEAV<lambda_efdfa57d1f175319df784efa44bb7b81>@@AEAV<lambda_5f0a4c1567f8adc6734073e5d1e1b35c>@@$$QEAV<lambda_2e8a7d3640ea6ccb4c2413664c2db6fd>@@@Z@4HA 0000000180031113 f   libucrt:mbctype.obj
 0001:00030113       ?fin$0@?0???$?RV<lambda_f2e299630e499de9f9a165e60fcd3db5>@@AEAV<lambda_2ae9d31cdba2644fcbeaf08da7c24588>@@V<lambda_40d01ff24d0e7b3814fdbdcee8eab3c7>@@@?$__crt_seh_guarded_call@X@@QEAAX$$QEAV<lambda_f2e299630e499de9f9a165e60fcd3db5>@@AEAV<lambda_2ae9d31cdba2644fcbeaf08da7c24588>@@$$QEAV<lambda_40d01ff24d0e7b3814fdbdcee8eab3c7>@@@Z@4HA 0000000180031113 f   libucrt:per_thread_data.obj
 0001:00030113       ?fin$0@?0???$?RV<lambda_7777bce6b2f8c936911f934f8298dc43>@@AEAV<lambda_f03950bc5685219e0bcd2087efbe011e>@@V<lambda_3883c3dff614d5e0c5f61bb1ac94921c>@@@?$__crt_seh_guarded_call@H@@QEAAH$$QEAV<lambda_7777bce6b2f8c936911f934f8298dc43>@@AEAV<lambda_f03950bc5685219e0bcd2087efbe011e>@@$$QEAV<lambda_3883c3dff614d5e0c5f61bb1ac94921c>@@@Z@4HA 0000000180031113 f   libucrt:onexit.obj
 0001:0003012d       ?filt$0@?0???R<lambda_6e4b09c48022b2350581041d5f6b0c4c>@@QEBA@XZ@4HA 000000018003112d f   libucrt:exit.obj
 0001:00030148       ?fin$0@?0???$?RV<lambda_886d6c58226a84441f68b9f2b8217b83>@@AEAV<lambda_ab61a845afdef5b7c387490eaf3616ee>@@V<lambda_f7f22ab5edc0698d5f6905b0d3f44752>@@@?$__crt_seh_guarded_call@X@@QEAAX$$QEAV<lambda_886d6c58226a84441f68b9f2b8217b83>@@AEAV<lambda_ab61a845afdef5b7c387490eaf3616ee>@@$$QEAV<lambda_f7f22ab5edc0698d5f6905b0d3f44752>@@@Z@4HA 0000000180031148 f   libucrt:fflush.obj
 0001:00030165       raise$fin$0                0000000180031165 f   libucrt:signal.obj
 0001:00030186       ?fin$0@?0???$?RV<lambda_410d79af7f07d98d83a3f525b3859a53>@@AEAV<lambda_3e16ef9562a7dcce91392c22ab16ea36>@@V<lambda_38119f0e861e05405d8a144b9b982f0a>@@@?$__crt_seh_guarded_call@X@@QEAAX$$QEAV<lambda_410d79af7f07d98d83a3f525b3859a53>@@AEAV<lambda_3e16ef9562a7dcce91392c22ab16ea36>@@$$QEAV<lambda_38119f0e861e05405d8a144b9b982f0a>@@@Z@4HA 0000000180031186 f   libucrt:wsetlocale.obj
 0001:000301a0       _fcloseall$fin$0           00000001800311a0 f   libucrt:closeall.obj
 0001:000301b9       __acrt_lowio_ensure_fh_exists$fin$0 00000001800311b9 f   libucrt:osfinfo.obj
 0001:000301b9       __acrt_initialize_lowio$fin$0 00000001800311b9 f   libucrt:ioinit.obj
 0001:000301d2       ?fin$0@?0??update_thread_multibyte_data_internal@@YAPEAU__crt_multibyte_data@@QEAU__acrt_ptd@@QEAPEAU1@@Z@4HA 00000001800311d2 f   libucrt:mbctype.obj
 0001:000301eb       ?fin$0@?0???$?RV<lambda_a37b2b86f63e897a80ea819b0eb08c01>@@AEAV<lambda_38ce7e780aa69e748d6df282ebc68efe>@@V<lambda_99fb1378e971ab6e7edea83e3a7a83a2>@@@?$__crt_seh_guarded_call@H@@QEAAH$$QEAV<lambda_a37b2b86f63e897a80ea819b0eb08c01>@@AEAV<lambda_38ce7e780aa69e748d6df282ebc68efe>@@$$QEAV<lambda_99fb1378e971ab6e7edea83e3a7a83a2>@@@Z@4HA 00000001800311eb f   libucrt:commit.obj
 0001:000301eb       ?fin$0@?0???$?RV<lambda_751a882b2c74d4b022dec766aa51a29a>@@AEAV<lambda_628dfdc04ba53c8bfc02c9951375f3f5>@@V<lambda_f6c7be5f7998530c34de24c7437d6b54>@@@?$__crt_seh_guarded_call@H@@QEAAH$$QEAV<lambda_751a882b2c74d4b022dec766aa51a29a>@@AEAV<lambda_628dfdc04ba53c8bfc02c9951375f3f5>@@$$QEAV<lambda_f6c7be5f7998530c34de24c7437d6b54>@@@Z@4HA 00000001800311eb f   libucrt:close.obj
 0001:00030205       ?fin$0@?0???$common_lseek@_J@@YA_JH_JH@Z@4HA 0000000180031205 f   libucrt:lseek.obj
 0001:00030205       _write$fin$0               0000000180031205 f   libucrt:write.obj
 0001:0003021c       __acrt_update_thread_locale_data$fin$0 000000018003121c f   libucrt:locale_refcounting.obj
 0001:00030235       fclose$fin$0               0000000180031235 f   libucrt:fclose.obj
 0001:0003024d       _ctrlfp$filt$0             000000018003124d f   libucrt:fpctrl.obj
 0001:00030280       _IsNonwritableInCurrentImage$filt$0 0000000180031280 f   LIBCMT:pesect.obj
 0002:00000318       GS_ExceptionPointers       0000000180032318     LIBCMT:gs_report.obj
 0002:000003c0       ?ExceptionTemplate@?1??_CxxThrowException@@9@4UEHExceptionRecord@@B 00000001800323c0     libvcruntime:throw.obj
 0002:00000410       ?tokenTable@@3QBQEBDB      0000000180032410     libvcruntime:undname.obj
 0002:00000490       ?nameTable@@3QBQEBDB       0000000180032490     libvcruntime:undname.obj
 0002:00000720       ?rttiTable@@3QBQEBDB       0000000180032720     libvcruntime:undname.obj
 0002:00000dd8       ?module_names@?A0xa3b92138@@3QBQEB_WB 0000000180032dd8     libvcruntime:winapi_downlevel.obj
 0002:00000ea8       ?candidate_modules@?1??try_get_FlsAlloc@@YAP6AKP6AXPEAX@Z@ZXZ@4QBW4module_id@?A0xa3b92138@@B 0000000180032ea8     libvcruntime:winapi_downlevel.obj
 0002:00000ec0       ?candidate_modules@?1??try_get_FlsFree@@YAP6AHK@ZXZ@4QBW4module_id@?A0xa3b92138@@B 0000000180032ec0     libvcruntime:winapi_downlevel.obj
 0002:00000ed0       ?candidate_modules@?1??try_get_FlsGetValue@@YAP6APEAXK@ZXZ@4QBW4module_id@?A0xa3b92138@@B 0000000180032ed0     libvcruntime:winapi_downlevel.obj
 0002:00000ee8       ?candidate_modules@?1??try_get_FlsSetValue@@YAP6AHKPEAX@ZXZ@4QBW4module_id@?A0xa3b92138@@B 0000000180032ee8     libvcruntime:winapi_downlevel.obj
 0002:00000f00       ?candidate_modules@?1??try_get_InitializeCriticalSectionEx@@YAP6AHPEAU_RTL_CRITICAL_SECTION@@KK@ZXZ@4QBW4module_id@?A0xa3b92138@@B 0000000180032f00     libvcruntime:winapi_downlevel.obj
 0002:00001390       __acrt_initializers        0000000180033390     libucrt:initialization.obj
 0002:00001490       ?errtable@@3QBUerrentry@?A0x31fdb9ec@@B 0000000180033490     libucrt:errno.obj
 0002:00001c80       ?module_names@?A0x391cf84c@@3QBQEB_WB 0000000180033c80     libucrt:winapi_thunks.obj
 0002:00002228       ?candidate_modules@?1??try_get_AreFileApisANSI@@YAP6AHXZXZ@4QBW4module_id@?A0x391cf84c@@B 0000000180034228     libucrt:winapi_thunks.obj
 0002:00002240       ?candidate_modules@?1??try_get_CompareStringEx@@YAP6AHPEB_WK0H0HPEAU_nlsversioninfo@@PEAX_J@ZXZ@4QBW4module_id@?A0x391cf84c@@B 0000000180034240     libucrt:winapi_thunks.obj
 0002:00002258       ?candidate_modules@?1??try_get_FlsAlloc@@YAP6AKP6AXPEAX@Z@ZXZ@4QBW4module_id@?A0x391cf84c@@B 0000000180034258     libucrt:winapi_thunks.obj
 0002:00002270       ?candidate_modules@?1??try_get_FlsFree@@YAP6AHK@ZXZ@4QBW4module_id@?A0x391cf84c@@B 0000000180034270     libucrt:winapi_thunks.obj
 0002:00002280       ?candidate_modules@?1??try_get_FlsGetValue@@YAP6APEAXK@ZXZ@4QBW4module_id@?A0x391cf84c@@B 0000000180034280     libucrt:winapi_thunks.obj
 0002:00002298       ?candidate_modules@?1??try_get_FlsSetValue@@YAP6AHKPEAX@ZXZ@4QBW4module_id@?A0x391cf84c@@B 0000000180034298     libucrt:winapi_thunks.obj
 0002:000022b0       ?candidate_modules@?1??try_get_GetActiveWindow@@YAP6APEAUHWND__@@XZXZ@4QBW4module_id@?A0x391cf84c@@B 00000001800342b0     libucrt:winapi_thunks.obj
 0002:000022c8       ?candidate_modules@?1??try_get_GetLastActivePopup@@YAP6APEAUHWND__@@PEAU2@@ZXZ@4QBW4module_id@?A0x391cf84c@@B 00000001800342c8     libucrt:winapi_thunks.obj
 0002:000022e8       ?candidate_modules@?1??try_get_GetProcessWindowStation@@YAP6APEAUHWINSTA__@@XZXZ@4QBW4module_id@?A0x391cf84c@@B 00000001800342e8     libucrt:winapi_thunks.obj
 0002:00002308       ?candidate_modules@?1??try_get_GetUserObjectInformationW@@YAP6AHPEAXH0KPEAK@ZXZ@4QBW4module_id@?A0x391cf84c@@B 0000000180034308     libucrt:winapi_thunks.obj
 0002:00002330       ?candidate_modules@?1??try_get_InitializeCriticalSectionEx@@YAP6AHPEAU_RTL_CRITICAL_SECTION@@KK@ZXZ@4QBW4module_id@?A0x391cf84c@@B 0000000180034330     libucrt:winapi_thunks.obj
 0002:00002358       ?candidate_modules@?1??try_get_LCMapStringEx@@YAP6AHPEB_WK0HPEA_WHPEAU_nlsversioninfo@@PEAX_J@ZXZ@4QBW4module_id@?A0x391cf84c@@B 0000000180034358     libucrt:winapi_thunks.obj
 0002:00002370       ?candidate_modules@?1??try_get_LocaleNameToLCID@@YAP6AKPEB_WK@ZXZ@4QBW4module_id@?A0x391cf84c@@B 0000000180034370     libucrt:winapi_thunks.obj
 0002:00002390       ?candidate_modules@?1??try_get_MessageBoxA@@YAP6AHPEAUHWND__@@PEBD1I@ZXZ@4QBW4module_id@?A0x391cf84c@@B 0000000180034390     libucrt:winapi_thunks.obj
 0002:000023a8       ?candidate_modules@?1??try_get_MessageBoxW@@YAP6AHPEAUHWND__@@PEB_W1I@ZXZ@4QBW4module_id@?A0x391cf84c@@B 00000001800343a8     libucrt:winapi_thunks.obj
 0002:000023bc       ?candidate_modules@?1??try_get_AppPolicyGetProcessTerminationMethod@@YAP6AJPEAXPEAW4AppPolicyProcessTerminationMethod@@@ZXZ@4QBW4module_id@?A0x391cf84c@@B 00000001800343bc     libucrt:winapi_thunks.obj
 0002:000023e8       ?candidate_modules@?1??try_get_AppPolicyGetShowDeveloperDiagnostic@@YAP6AJPEAXPEAW4AppPolicyShowDeveloperDiagnostic@@@ZXZ@4QBW4module_id@?A0x391cf84c@@B 00000001800343e8     libucrt:winapi_thunks.obj
 0002:00002414       ?candidate_modules@?1??try_get_AppPolicyGetWindowingModel@@YAP6AJPEAXPEAW4AppPolicyWindowingModel@@@ZXZ@4QBW4module_id@?A0x391cf84c@@B 0000000180034414     libucrt:winapi_thunks.obj
 0002:00002490       ?_mb_locale_names@@3QBQEB_WB 0000000180034490     libucrt:mbctype.obj
 0002:00002d00       ?LcidToLocaleNameTable@?A0x881e4c05@@3QBULcidToLocaleName@1@B 0000000180034d00     libucrt:lcidtoname_downlevel.obj
 0002:00004760       ?LocaleNameToIndexTable@?A0x881e4c05@@3QBULocaleNameIndex@1@B 0000000180036760     libucrt:lcidtoname_downlevel.obj
 0002:00006a00       __real_ninf                0000000180038a00     libucrt:log10.obj
 0002:00006a10       __real_inf                 0000000180038a10     libucrt:log10.obj
 0002:00006a20       __real_neg_qnan            0000000180038a20     libucrt:log10.obj
 0002:00006a30       __real_qnanbit             0000000180038a30     libucrt:log10.obj
 0002:00006a40       __int_1023                 0000000180038a40     libucrt:log10.obj
 0002:00006a50       __mask_001                 0000000180038a50     libucrt:log10.obj
 0002:00006a60       __mask_mant                0000000180038a60     libucrt:log10.obj
 0002:00006a70       __mask_mant_top8           0000000180038a70     libucrt:log10.obj
 0002:00006a80       __mask_mant9               0000000180038a80     libucrt:log10.obj
 0002:00006a90       __real_log10_e             0000000180038a90     libucrt:log10.obj
 0002:00006aa0       __real_log10_e_lead        0000000180038aa0     libucrt:log10.obj
 0002:00006ab0       __real_log10_e_tail        0000000180038ab0     libucrt:log10.obj
 0002:00006ac0       __real_log10_2_lead        0000000180038ac0     libucrt:log10.obj
 0002:00006ad0       __real_log10_2_tail        0000000180038ad0     libucrt:log10.obj
 0002:00006ae0       __real_two                 0000000180038ae0     libucrt:log10.obj
 0002:00006af0       __real_one                 0000000180038af0     libucrt:log10.obj
 0002:00006b00       __real_half                0000000180038b00     libucrt:log10.obj
 0002:00006b10       __mask_100                 0000000180038b10     libucrt:log10.obj
 0002:00006b20       __real_1_over_512          0000000180038b20     libucrt:log10.obj
 0002:00006b30       __real_1_over_2            0000000180038b30     libucrt:log10.obj
 0002:00006b40       __real_1_over_3            0000000180038b40     libucrt:log10.obj
 0002:00006b50       __real_1_over_4            0000000180038b50     libucrt:log10.obj
 0002:00006b60       __real_1_over_5            0000000180038b60     libucrt:log10.obj
 0002:00006b70       __real_1_over_6            0000000180038b70     libucrt:log10.obj
 0002:00006b80       __real_neg_1023            0000000180038b80     libucrt:log10.obj
 0002:00006b90       __mask_2045                0000000180038b90     libucrt:log10.obj
 0002:00006ba0       __real_threshold           0000000180038ba0     libucrt:log10.obj
 0002:00006bb0       __real_near_one_lt         0000000180038bb0     libucrt:log10.obj
 0002:00006bc0       __real_near_one_gt         0000000180038bc0     libucrt:log10.obj
 0002:00006bd0       __real_min_norm            0000000180038bd0     libucrt:log10.obj
 0002:00006be0       __real_notsign             0000000180038be0     libucrt:log10.obj
 0002:00006bf0       __real_ca1                 0000000180038bf0     libucrt:log10.obj
 0002:00006c00       __real_ca2                 0000000180038c00     libucrt:log10.obj
 0002:00006c10       __real_ca3                 0000000180038c10     libucrt:log10.obj
 0002:00006c20       __real_ca4                 0000000180038c20     libucrt:log10.obj
 0002:00006c30       __mask_lower               0000000180038c30     libucrt:log10.obj
 0002:00006c40       __flag_x_zero              0000000180038c40     libucrt:log10.obj
 0002:00006c44       __flag_x_neg               0000000180038c44     libucrt:log10.obj
 0002:00006c48       __flag_x_nan               0000000180038c48     libucrt:log10.obj
 0002:000084a0       __real@433fffffffffffff    000000018003a4a0     libucrt:fpsr.obj
 0002:000084a8       __real@c33fffffffffffff    000000018003a4a8     libucrt:fpsr.obj
 0002:00008e38       ?externalSubsetName@?1??doProlog@@9@9 000000018003ae38     libexpat:xmlparse.obj
 0002:00008e40       ?message@?1??XML_ErrorString@@9@9 000000018003ae40     libexpat:xmlparse.obj
 0002:00008f88       ?xmlLen@?1??addBinding@@9@9 000000018003af88     libexpat:xmlparse.obj
 0002:00008f8c       ?xmlnsLen@?1??addBinding@@9@9 000000018003af8c     libexpat:xmlparse.obj
 0002:00008f90       ?atypeNMTOKENS@?1??doProlog@@9@9 000000018003af90     libexpat:xmlparse.obj
 0002:00008fa0       ?features@?1??XML_GetFeatureList@@9@9 000000018003afa0     libexpat:xmlparse.obj
 0002:00009030       ?vectors@?1??sip24_valid@@9@9 000000018003b030     libexpat:xmlparse.obj
 0002:00009230       ?atypeNMTOKEN@?1??doProlog@@9@9 000000018003b230     libexpat:xmlparse.obj
 0002:00009238       ?atypeIDREF@?1??doProlog@@9@9 000000018003b238     libexpat:xmlparse.obj
 0002:00009240       ?atypeIDREFS@?1??doProlog@@9@9 000000018003b240     libexpat:xmlparse.obj
 0002:00009248       ?enumValueStart@?1??doProlog@@9@9 000000018003b248     libexpat:xmlparse.obj
 0002:0000924c       ?atypeENTITY@?1??doProlog@@9@9 000000018003b24c     libexpat:xmlparse.obj
 0002:00009254       ?atypeID@?1??doProlog@@9@9 000000018003b254     libexpat:xmlparse.obj
 0002:00009258       implicitContext            000000018003b258     libexpat:xmlparse.obj
 0002:00009284       ?atypeCDATA@?1??doProlog@@9@9 000000018003b284     libexpat:xmlparse.obj
 0002:0000928c       ?enumValueSep@?1??doProlog@@9@9 000000018003b28c     libexpat:xmlparse.obj
 0002:00009290       ?notationPrefix@?1??doProlog@@9@9 000000018003b290     libexpat:xmlparse.obj
 0002:0000929c       KW_yes                     000000018003b29c     libexpat:xmltok.obj
 0002:000092a0       ?xmlnsNamespace@?1??addBinding@@9@9 000000018003b2a0     libexpat:xmlparse.obj
 0002:000092c0       ?atypeENTITIES@?1??doProlog@@9@9 000000018003b2c0     libexpat:xmlparse.obj
 0002:000092cc       ?CDATA_LSQB@?1??big2_scanCdataSection@@9@9 000000018003b2cc     libexpat:xmltok.obj
 0002:000092d4       KW_UTF_16                  000000018003b2d4     libexpat:xmltok.obj
 0002:000092dc       KW_no                      000000018003b2dc     libexpat:xmltok.obj
 0002:000092e0       ?xmlNamespace@?1??addBinding@@9@9 000000018003b2e0     libexpat:xmlparse.obj
 0002:00009308       ?encodingNames@?1??getEncodingIndex@@9@9 000000018003b308     libexpat:xmltok.obj
 0002:00009338       KW_version                 000000018003b338     libexpat:xmltok.obj
 0002:00009340       nmstrtPages                000000018003b340     libexpat:xmltok.obj
 0002:00009440       internal_little2_encoding  000000018003b440     libexpat:xmltok.obj
 0002:00009618       encodings                  000000018003b618     libexpat:xmltok.obj
 0002:00009650       latin1_encoding_ns         000000018003b650     libexpat:xmltok.obj
 0002:00009828       KW_UTF_8                   000000018003b828     libexpat:xmltok.obj
 0002:00009830       internal_utf8_encoding     000000018003b830     libexpat:xmltok.obj
 0002:00009a08       ?CDATA_LSQB@?1??little2_scanCdataSection@@9@9 000000018003ba08     libexpat:xmltok.obj
 0002:00009a10       little2_encoding           000000018003ba10     libexpat:xmltok.obj
 0002:00009be8       ?CDATA_LSQB@?1??normal_scanCdataSection@@9@9 000000018003bbe8     libexpat:xmltok.obj
 0002:00009bf0       ascii_encoding_ns          000000018003bbf0     libexpat:xmltok.obj
 0002:00009dc8       encodingsNS                000000018003bdc8     libexpat:xmltok.obj
 0002:00009e00       namingBitmap               000000018003be00     libexpat:xmltok.obj
 0002:0000a300       internal_little2_encoding_ns 000000018003c300     libexpat:xmltok.obj
 0002:0000a4d8       KW_NMTOKEN                 000000018003c4d8     libexpat:xmlrole.obj
 0002:0000a4e0       big2_encoding_ns           000000018003c4e0     libexpat:xmltok.obj
 0002:0000a6b8       KW_ANY                     000000018003c6b8     libexpat:xmlrole.obj
 0002:0000a6c0       namePages                  000000018003c6c0     libexpat:xmltok.obj
 0002:0000a7c0       ascii_encoding             000000018003c7c0     libexpat:xmltok.obj
 0002:0000a998       KW_UTF_16LE                000000018003c998     libexpat:xmltok.obj
 0002:0000a9a8       KW_standalone              000000018003c9a8     libexpat:xmltok.obj
 0002:0000a9b4       KW_EMPTY                   000000018003c9b4     libexpat:xmlrole.obj
 0002:0000a9c0       internal_utf8_encoding_ns  000000018003c9c0     libexpat:xmltok.obj
 0002:0000ab98       KW_NDATA                   000000018003cb98     libexpat:xmlrole.obj
 0002:0000aba0       utf8_encoding              000000018003cba0     libexpat:xmltok.obj
 0002:0000ad78       KW_ENTITY                  000000018003cd78     libexpat:xmlrole.obj
 0002:0000ad80       utf8_encoding_ns           000000018003cd80     libexpat:xmltok.obj
 0002:0000af58       KW_UTF_16BE                000000018003cf58     libexpat:xmltok.obj
 0002:0000af68       KW_ISO_8859_1              000000018003cf68     libexpat:xmltok.obj
 0002:0000af74       KW_PUBLIC                  000000018003cf74     libexpat:xmlrole.obj
 0002:0000af80       latin1_encoding            000000018003cf80     libexpat:xmltok.obj
 0002:0000b158       KW_US_ASCII                000000018003d158     libexpat:xmltok.obj
 0002:0000b164       KW_IDREFS                  000000018003d164     libexpat:xmlrole.obj
 0002:0000b16c       KW_ID                      000000018003d16c     libexpat:xmlrole.obj
 0002:0000b170       KW_encoding                000000018003d170     libexpat:xmltok.obj
 0002:0000b180       little2_encoding_ns        000000018003d180     libexpat:xmltok.obj
 0002:0000b358       KW_PCDATA                  000000018003d358     libexpat:xmlrole.obj
 0002:0000b360       big2_encoding              000000018003d360     libexpat:xmltok.obj
 0002:0000b538       KW_NOTATION                000000018003d538     libexpat:xmlrole.obj
 0002:0000b544       KW_SYSTEM                  000000018003d544     libexpat:xmlrole.obj
 0002:0000b550       KW_REQUIRED                000000018003d550     libexpat:xmlrole.obj
 0002:0000b55c       KW_CDATA                   000000018003d55c     libexpat:xmlrole.obj
 0002:0000b568       KW_NMTOKENS                000000018003d568     libexpat:xmlrole.obj
 0002:0000b574       KW_IDREF                   000000018003d574     libexpat:xmlrole.obj
 0002:0000b580       KW_DOCTYPE                 000000018003d580     libexpat:xmlrole.obj
 0002:0000b588       KW_ELEMENT                 000000018003d588     libexpat:xmlrole.obj
 0002:0000b590       KW_IMPLIED                 000000018003d590     libexpat:xmlrole.obj
 0002:0000b598       KW_INCLUDE                 000000018003d598     libexpat:xmlrole.obj
 0002:0000b5a0       ?types@?3??attlist2@@9@9   000000018003d5a0     libexpat:xmlrole.obj
 0002:0000b5e0       KW_ATTLIST                 000000018003d5e0     libexpat:xmlrole.obj
 0002:0000b5e8       KW_ENTITIES                000000018003d5e8     libexpat:xmlrole.obj
 0002:0000b5f4       KW_IGNORE                  000000018003d5f4     libexpat:xmlrole.obj
 0002:0000b5fc       KW_FIXED                   000000018003d5fc     libexpat:xmlrole.obj
 0002:0000c2f0       $unwind$?FunctionCallbackWrapper@imp@Nan@@YAXAEBV?$FunctionCallbackInfo@VValue@v8@@@v8@@@Z 000000018003e2f0     node-expat.obj
 0002:0000c304       $unwind$?New@?$Factory@VFunctionTemplate@v8@@@imp@Nan@@SA?AV?$Local@VFunctionTemplate@v8@@@v8@@P6AXAEBV?$FunctionCallbackInfo@VValue@v8@@@3@@ZV?$Local@VValue@v8@@@5@V?$Local@VSignature@v8@@@5@@Z 000000018003e304     node-expat.obj
 0002:0000c318       $chain$0$?New@?$Factory@VFunctionTemplate@v8@@@imp@Nan@@SA?AV?$Local@VFunctionTemplate@v8@@@v8@@P6AXAEBV?$FunctionCallbackInfo@VValue@v8@@@3@@ZV?$Local@VValue@v8@@@5@V?$Local@VSignature@v8@@@5@@Z 000000018003e318     node-expat.obj
 0002:0000c32c       $chain$1$?New@?$Factory@VFunctionTemplate@v8@@@imp@Nan@@SA?AV?$Local@VFunctionTemplate@v8@@@v8@@P6AXAEBV?$FunctionCallbackInfo@VValue@v8@@@3@@ZV?$Local@VValue@v8@@@5@V?$Local@VSignature@v8@@@5@@Z 000000018003e32c     node-expat.obj
 0002:0000c340       $chain$2$?New@?$Factory@VFunctionTemplate@v8@@@imp@Nan@@SA?AV?$Local@VFunctionTemplate@v8@@@v8@@P6AXAEBV?$FunctionCallbackInfo@VValue@v8@@@3@@ZV?$Local@VValue@v8@@@5@V?$Local@VSignature@v8@@@5@@Z 000000018003e340     node-expat.obj
 0002:0000c350       $chain$3$?New@?$Factory@VFunctionTemplate@v8@@@imp@Nan@@SA?AV?$Local@VFunctionTemplate@v8@@@v8@@P6AXAEBV?$FunctionCallbackInfo@VValue@v8@@@3@@ZV?$Local@VValue@v8@@@5@V?$Local@VSignature@v8@@@5@@Z 000000018003e350     node-expat.obj
 0002:0000c360       $unwind$?StartCdata@Parser@@CAXPEAX@Z 000000018003e360     node-expat.obj
 0002:0000c360       $unwind$?ThrowTypeError@Nan@@YAXPEBD@Z 000000018003e360     node-expat.obj
 0002:0000c360       $unwind$?EndCdata@Parser@@CAXPEAX@Z 000000018003e360     node-expat.obj
 0002:0000c368       $unwind$??0Utf8String@Nan@@QEAA@V?$Local@VValue@v8@@@v8@@@Z 000000018003e368     node-expat.obj
 0002:0000c374       $chain$1$??0Utf8String@Nan@@QEAA@V?$Local@VValue@v8@@@v8@@@Z 000000018003e374     node-expat.obj
 0002:0000c38c       $chain$2$??0Utf8String@Nan@@QEAA@V?$Local@VValue@v8@@@v8@@@Z 000000018003e38c     node-expat.obj
 0002:0000c39c       $unwind$?Emit@Parser@@AEAAXHQEAV?$Local@VValue@v8@@@v8@@@Z 000000018003e39c     node-expat.obj
 0002:0000c39c       $unwind$?SetPrototypeMethod@Nan@@YAXV?$Local@VFunctionTemplate@v8@@@v8@@PEBDP6AXAEBV?$FunctionCallbackInfo@VValue@v8@@@1@@Z@Z 000000018003e39c     node-expat.obj
 0002:0000c3ac       $unwind$wcscat_s           000000018003e3ac     libucrt:wcscat_s.obj
 0002:0000c3ac       $unwind$XML_GetBuffer      000000018003e3ac     libexpat:xmlparse.obj
 0002:0000c3ac       $unwind$?WeakCallback@ObjectWrap@Nan@@CAXAEBV?$WeakCallbackInfo@VObjectWrap@Nan@@@v8@@@Z 000000018003e3ac     node-expat.obj
 0002:0000c3ac       $unwind$wcscpy_s           000000018003e3ac     libucrt:wcscpy_s.obj
 0002:0000c3ac       $unwind$?Ref@ObjectWrap@Nan@@MEAAXXZ 000000018003e3ac     node-expat.obj
 0002:0000c3ac       $unwind$__acrt_get_windowing_model_policy 000000018003e3ac     libucrt:win_policies.obj
 0002:0000c3ac       $unwind$__acrt_get_developer_information_policy 000000018003e3ac     libucrt:win_policies.obj
 0002:0000c3ac       $unwind$__acrt_get_process_end_policy 000000018003e3ac     libucrt:win_policies.obj
 0002:0000c3ac       $unwind$?try_cor_exit_process@@YAXI@Z 000000018003e3ac     libucrt:exit.obj
 0002:0000c3ac       $unwind$__acrt_uninitialize_locks 000000018003e3ac     libucrt:locks.obj
 0002:0000c3ac       $unwind$?exit_or_terminate_process@@YAXI@Z 000000018003e3ac     libucrt:exit.obj
 0002:0000c3ac       $unwind$__acrt_initialize_locks 000000018003e3ac     libucrt:locks.obj
 0002:0000c3ac       $unwind$?load_exe_hook@@YAP6A_JXZIPEAUDelayLoadInfo@@@Z 000000018003e3ac     win_delay_load_hook.obj
 0002:0000c3ac       $unwind$__acrt_stdio_free_buffer_nolock 000000018003e3ac     libucrt:_freebuf.obj
 0002:0000c3ac       $unwind$?stream_is_at_end_of_file_nolock@@YA_NV__crt_stdio_stream@@@Z 000000018003e3ac     libucrt:_flsbuf.obj
 0002:0000c3ac       $unwind$_fflush_nolock     000000018003e3ac     libucrt:fflush.obj
 0002:0000c3ac       $unwind$?type_case_s@?$output_processor@DV?$stream_output_adapter@D@__crt_stdio_output@@V?$standard_base@DV?$stream_output_adapter@D@__crt_stdio_output@@@2@@__crt_stdio_output@@AEAA_NXZ 000000018003e3ac     libucrt:output.obj
 0002:0000c3ac       $unwind$?type_case_c_tchar@?$output_processor@DV?$stream_output_adapter@D@__crt_stdio_output@@V?$standard_base@DV?$stream_output_adapter@D@__crt_stdio_output@@@2@@__crt_stdio_output@@AEAA_ND@Z 000000018003e3ac     libucrt:output.obj
 0002:0000c3ac       $unwind$??2@YAPEAX_K@Z     000000018003e3ac     LIBCMT:new_scalar.obj
 0002:0000c3ac       $unwind$?state_case_normal_tchar@?$output_processor@DV?$stream_output_adapter@D@__crt_stdio_output@@V?$standard_base@DV?$stream_output_adapter@D@__crt_stdio_output@@@2@@__crt_stdio_output@@AEAA_ND@Z 000000018003e3ac     libucrt:output.obj
 0002:0000c3ac       $unwind$?state_case_normal@?$output_processor@DV?$stream_output_adapter@D@__crt_stdio_output@@V?$standard_base@DV?$stream_output_adapter@D@__crt_stdio_output@@@2@@__crt_stdio_output@@AEAA_NXZ 000000018003e3ac     libucrt:output.obj
 0002:0000c3ac       $unwind$__acrt_get_parent_window 000000018003e3ac     libucrt:winapi_thunks.obj
 0002:0000c3ac       $unwind$_callnewh          000000018003e3ac     libucrt:new_handler.obj
 0002:0000c3ac       $unwind$__acrt_AppPolicyGetWindowingModelInternal 000000018003e3ac     libucrt:winapi_thunks.obj
 0002:0000c3ac       $unwind$__acrt_AppPolicyGetShowDeveloperDiagnosticInternal 000000018003e3ac     libucrt:winapi_thunks.obj
 0002:0000c3ac       $unwind$__acrt_AppPolicyGetProcessTerminationMethodInternal 000000018003e3ac     libucrt:winapi_thunks.obj
 0002:0000c3ac       $unwind$__acrt_allocate_buffer_for_argv 000000018003e3ac     libucrt:argv_parsing.obj
 0002:0000c3ac       $unwind$fegetenv           000000018003e3ac     libucrt:fegetenv.obj
 0002:0000c3ac       $unwind$_malloc_base       000000018003e3ac     libucrt:malloc_base.obj
 0002:0000c3ac       $unwind$fesetenv           000000018003e3ac     libucrt:fesetenv.obj
 0002:0000c3ac       $unwind$poolStoreString    000000018003e3ac     libexpat:xmlparse.obj
 0002:0000c3ac       $unwind$?internal_isupper_l@@YA_NHQEAU__crt_locale_pointers@@@Z 000000018003e3ac     libucrt:tolower_toupper.obj
 0002:0000c3ac       $unwind$__acrt_FlsGetValue 000000018003e3ac     libucrt:winapi_thunks.obj
 0002:0000c3ac       $unwind$strcpy_s           000000018003e3ac     libucrt:strcpy_s.obj
 0002:0000c3ac       $unwind$feholdexcept       000000018003e3ac     libucrt:feholdexcept.obj
 0002:0000c3ac       $unwind$__acrt_uninitialize_stdio 000000018003e3ac     libucrt:_file.obj
 0002:0000c3ac       $unwind$normal_attributeValueTok 000000018003e3ac     libexpat:xmltok.obj
 0002:0000c3ac       $unwind$__acrt_FlsFree     000000018003e3ac     libucrt:winapi_thunks.obj
 0002:0000c3ac       $unwind$__raise_securityfailure 000000018003e3ac     LIBCMT:gs_report.obj
 0002:0000c3ac       $unwind$uninitialize_allocated_memory 000000018003e3ac     libucrt:initialization.obj
 0002:0000c3ac       $unwind$??0exception@std@@QEAA@AEBV01@@Z 000000018003e3ac     LIBCMT:throw_bad_alloc.obj
 0002:0000c3ac       $unwind$initialize_pointers 000000018003e3ac     libucrt:initialization.obj
 0002:0000c3ac       $unwind$?Unref@ObjectWrap@Nan@@MEAAXXZ 000000018003e3ac     node-expat.obj
 0002:0000c3ac       $unwind$??$Unwrap@VParser@@@ObjectWrap@Nan@@SAPEAVParser@@V?$Local@VObject@v8@@@v8@@@Z 000000018003e3ac     node-expat.obj
 0002:0000c3ac       $unwind$??0bad_alloc@std@@QEAA@AEBV01@@Z 000000018003e3ac     LIBCMT:throw_bad_alloc.obj
 0002:0000c3ac       $unwind$big2_scanDecl      000000018003e3ac     libexpat:xmltok.obj
 0002:0000c3ac       $unwind$__acrt_FlsAlloc    000000018003e3ac     libucrt:winapi_thunks.obj
 0002:0000c3ac       $unwind$__acrt_uninitialize_winapi_thunks 000000018003e3ac     libucrt:winapi_thunks.obj
 0002:0000c3ac       $unwind$_clearfp           000000018003e3ac     libucrt:ieee.obj
 0002:0000c3ac       $unwind$__vcrt_FlsGetValue 000000018003e3ac     libvcruntime:winapi_downlevel.obj
 0002:0000c3ac       $unwind$??0bad_array_new_length@std@@QEAA@AEBV01@@Z 000000018003e3ac     LIBCMT:throw_bad_alloc.obj
 0002:0000c3ac       $unwind$__vcrt_FlsFree     000000018003e3ac     libvcruntime:winapi_downlevel.obj
 0002:0000c3ac       $unwind$__vcrt_FlsAlloc    000000018003e3ac     libvcruntime:winapi_downlevel.obj
 0002:0000c3ac       $unwind$_calloc_base       000000018003e3ac     libucrt:calloc_base.obj
 0002:0000c3ac       $unwind$__vcrt_uninitialize_locks 000000018003e3ac     libvcruntime:locks.obj
 0002:0000c3ac       $unwind$__vcrt_initialize_locks 000000018003e3ac     libvcruntime:locks.obj
 0002:0000c3ac       $unwind$__vcrt_freeptd     000000018003e3ac     libvcruntime:per_thread_data.obj
 0002:0000c3ac       $unwind$__acrt_update_multibyte_info 000000018003e3ac     libucrt:locale_update.obj
 0002:0000c3ac       $unwind$little2_scanDecl   000000018003e3ac     libexpat:xmltok.obj
 0002:0000c3ac       $unwind$__acrt_update_locale_info 000000018003e3ac     libucrt:locale_update.obj
 0002:0000c3ac       $unwind$__scrt_release_startup_lock 000000018003e3ac     LIBCMT:utility.obj
 0002:0000c3ac       $unwind$_clrfp             000000018003e3ac     libucrt:fpctrl.obj
 0002:0000c3ac       $unwind$__scrt_initialize_crt 000000018003e3ac     LIBCMT:utility.obj
 0002:0000c3ac       $unwind$__scrt_uninitialize_crt 000000018003e3ac     LIBCMT:utility.obj
 0002:0000c3ac       $unwind$_set_statfp        000000018003e3ac     libucrt:fpctrl.obj
 0002:0000c3ac       $unwind$__acrt_getptd_head 000000018003e3ac     libucrt:per_thread_data.obj
 0002:0000c3ac       $unwind$__std_type_info_destroy_list 000000018003e3ac     libvcruntime:std_type_info.obj
 0002:0000c3ac       $unwind$__acrt_freeptd     000000018003e3ac     libucrt:per_thread_data.obj
 0002:0000c3ac       $unwind$?DloadAcquireSectionWriteAccess@@YAXXZ 000000018003e3ac     DelayImp:delayhlp.obj
 0002:0000c3ac       $unwind$__std_exception_destroy 000000018003e3ac     libvcruntime:std_exception.obj
 0002:0000c3ac       $unwind$??_Gtype_info@@UEAAPEAXI@Z 000000018003e3ac     LIBCMT:std_type_info_static.obj
 0002:0000c3b4       $unwind$_RTC_Initialize    000000018003e3b4     LIBCMT:initsect.obj
 0002:0000c3b4       $unwind$_RTC_Terminate     000000018003e3b4     LIBCMT:initsect.obj
 0002:0000c3b4       $unwind$?DloadGetSRWLockFunctionPointers@@YAEXZ 000000018003e3b4     DelayImp:delayhlp.obj
 0002:0000c3b4       $unwind$?replace_current_thread_locale_nolock@@YAXQEAU__acrt_ptd@@QEAU__crt_locale_data@@@Z 000000018003e3b4     libucrt:per_thread_data.obj
 0002:0000c3b4       $unwind$?force_decimal_point@__crt_stdio_output@@YAXPEADQEAU__crt_locale_pointers@@@Z 000000018003e3b4     libucrt:output.obj
 0002:0000c3b4       $unwind$_close_nolock      000000018003e3b4     libucrt:close.obj
 0002:0000c3b4       $unwind$element2           000000018003e3b4     libexpat:xmlrole.obj
 0002:0000c3b4       $unwind$__acrt_stdio_begin_temporary_buffering_nolock 000000018003e3b4     libucrt:_sftbuf.obj
 0002:0000c3b4       $unwind$_updatetlocinfoEx_nolock 000000018003e3b4     libucrt:locale_refcounting.obj
 0002:0000c3b4       $unwind$_fclose_nolock     000000018003e3b4     libucrt:fclose.obj
 0002:0000c3b4       $unwind$_realloc_base      000000018003e3b4     libucrt:realloc_base.obj
 0002:0000c3b4       $unwind$entity5            000000018003e3b4     libexpat:xmlrole.obj
 0002:0000c3b4       $unwind$__acrt_uninitialize_lowio 000000018003e3b4     libucrt:ioinit.obj
 0002:0000c3b4       $unwind$__acrt_LocaleNameToLCID 000000018003e3b4     libucrt:winapi_thunks.obj
 0002:0000c3b4       $unwind$__acrt_fp_strflt_to_string 000000018003e3b4     libucrt:_fptostr.obj
 0002:0000c3b4       $unwind$prolog1            000000018003e3b4     libexpat:xmlrole.obj
 0002:0000c3b4       $unwind$prolog0            000000018003e3b4     libexpat:xmlrole.obj
 0002:0000c3b4       $unwind$little2_scanLit    000000018003e3b4     libexpat:xmltok.obj
 0002:0000c3b4       $unwind$__acrt_errno_map_os_error 000000018003e3b4     libucrt:errno.obj
 0002:0000c3b4       $unwind$wcsncat_s          000000018003e3b4     libucrt:wcsncat_s.obj
 0002:0000c3b4       $unwind$_initterm_e        000000018003e3b4     libucrt:initterm.obj
 0002:0000c3b4       $unwind$__acrt_FlsSetValue 000000018003e3b4     libucrt:winapi_thunks.obj
 0002:0000c3b4       $unwind$XmlInitEncodingNS  000000018003e3b4     libexpat:xmltok.obj
 0002:0000c3b4       $unwind$big2_scanLit       000000018003e3b4     libexpat:xmltok.obj
 0002:0000c3b4       $unwind$XmlInitEncoding    000000018003e3b4     libexpat:xmltok.obj
 0002:0000c3b4       $unwind$poolCopyString     000000018003e3b4     libexpat:xmlparse.obj
 0002:0000c3b4       $unwind$__acrt_execute_uninitializers 000000018003e3b4     libucrt:shared_initialization.obj
 0002:0000c3b4       $unwind$??_Gbad_array_new_length@std@@UEAAPEAXI@Z 000000018003e3b4     LIBCMT:throw_bad_alloc.obj
 0002:0000c3b4       $unwind$??_GParser@@MEAAPEAXI@Z 000000018003e3b4     node-expat.obj
 0002:0000c3b4       $unwind$strncpy_s          000000018003e3b4     libucrt:strncpy_s.obj
 0002:0000c3b4       $unwind$__vcrt_FlsSetValue 000000018003e3b4     libvcruntime:winapi_downlevel.obj
 0002:0000c3b4       $unwind$??$common_initialize_environment_nolock@D@@YAHXZ 000000018003e3b4     libucrt:environment_initialization.obj
 0002:0000c3b4       $unwind$??_GObjectWrap@Nan@@UEAAPEAXI@Z 000000018003e3b4     node-expat.obj
 0002:0000c3b4       $unwind$??_Gexception@std@@UEAAPEAXI@Z 000000018003e3b4     LIBCMT:throw_bad_alloc.obj
 0002:0000c3b4       $unwind$??_Gbad_alloc@std@@UEAAPEAXI@Z 000000018003e3b4     LIBCMT:throw_bad_alloc.obj
 0002:0000c3b4       $unwind$__acrt_stdio_allocate_buffer_nolock 000000018003e3b4     libucrt:_getbuf.obj
 0002:0000c3b4       $unwind$__acrt_can_show_message_box 000000018003e3b4     libucrt:winapi_thunks.obj
 0002:0000c3c0       $unwind$?Initialize@Parser@@SAXV?$Local@VObject@v8@@@v8@@@Z 000000018003e3c0     node-expat.obj
 0002:0000c3d0       $unwind$?New@Parser@@KAXAEBV?$FunctionCallbackInfo@VValue@v8@@@Nan@@@Z 000000018003e3d0     node-expat.obj
 0002:0000c3f0       $unwind$?Parse@Parser@@KAXAEBV?$FunctionCallbackInfo@VValue@v8@@@Nan@@@Z 000000018003e3f0     node-expat.obj
 0002:0000c400       $chain$2$?Parse@Parser@@KAXAEBV?$FunctionCallbackInfo@VValue@v8@@@Nan@@@Z 000000018003e400     node-expat.obj
 0002:0000c418       $chain$3$?Parse@Parser@@KAXAEBV?$FunctionCallbackInfo@VValue@v8@@@Nan@@@Z 000000018003e418     node-expat.obj
 0002:0000c42c       $chain$4$?Parse@Parser@@KAXAEBV?$FunctionCallbackInfo@VValue@v8@@@Nan@@@Z 000000018003e42c     node-expat.obj
 0002:0000c43c       $chain$5$?Parse@Parser@@KAXAEBV?$FunctionCallbackInfo@VValue@v8@@@Nan@@@Z 000000018003e43c     node-expat.obj
 0002:0000c44c       $unwind$internalSubset     000000018003e44c     libexpat:xmlrole.obj
 0002:0000c44c       $unwind$storeRawNames      000000018003e44c     libexpat:xmlparse.obj
 0002:0000c44c       $unwind$unknown_toUtf16    000000018003e44c     libexpat:xmltok.obj
 0002:0000c44c       $unwind$dtdDestroy         000000018003e44c     libexpat:xmlparse.obj
 0002:0000c44c       $unwind$setElementTypePrefix 000000018003e44c     libexpat:xmlparse.obj
 0002:0000c44c       $unwind$?parseBuffer@Parser@@IEAA_NV?$Local@VObject@v8@@@v8@@H@Z 000000018003e44c     node-expat.obj
 0002:0000c44c       $unwind$normal_scanEndTag  000000018003e44c     libexpat:xmltok.obj
 0002:0000c464       $unwind$?SetEncoding@Parser@@KAXAEBV?$FunctionCallbackInfo@VValue@v8@@@Nan@@@Z 000000018003e464     node-expat.obj
 0002:0000c480       $unwind$?type_case_a@?$output_processor@DV?$stream_output_adapter@D@__crt_stdio_output@@V?$standard_base@DV?$stream_output_adapter@D@__crt_stdio_output@@@2@@__crt_stdio_output@@AEAA_NXZ 000000018003e480     libucrt:output.obj
 0002:0000c480       $unwind$?GetError@Parser@@KAXAEBV?$FunctionCallbackInfo@VValue@v8@@@Nan@@@Z 000000018003e480     node-expat.obj
 0002:0000c48c       $unwind$__scrt_initialize_onexit_tables 000000018003e48c     LIBCMT:utility.obj
 0002:0000c48c       $unwind$?Stop@Parser@@KAXAEBV?$FunctionCallbackInfo@VValue@v8@@@Nan@@@Z 000000018003e48c     node-expat.obj
 0002:0000c48c       $unwind$?getSystemCP@@YAHH@Z 000000018003e48c     libucrt:mbctype.obj
 0002:0000c48c       $unwind$__dcrt_lowio_ensure_console_output_initialized 000000018003e48c     libucrt:initcon.obj
 0002:0000c48c       $unwind$_isleadbyte_l      000000018003e48c     libucrt:_wctype.obj
 0002:0000c494       $unwind$?Resume@Parser@@KAXAEBV?$FunctionCallbackInfo@VValue@v8@@@Nan@@@Z 000000018003e494     node-expat.obj
 0002:0000c494       $unwind$?__scrt_throw_std_bad_array_new_length@@YAXXZ 000000018003e494     LIBCMT:throw_bad_alloc.obj
 0002:0000c494       $unwind$_raise_exc         000000018003e494     libucrt:fpexcept.obj
 0002:0000c494       $unwind$?__scrt_throw_std_bad_alloc@@YAXXZ 000000018003e494     LIBCMT:throw_bad_alloc.obj
 0002:0000c49c       $chain$2$?Resume@Parser@@KAXAEBV?$FunctionCallbackInfo@VValue@v8@@@Nan@@@Z 000000018003e49c     node-expat.obj
 0002:0000c4b8       $chain$3$?Resume@Parser@@KAXAEBV?$FunctionCallbackInfo@VValue@v8@@@Nan@@@Z 000000018003e4b8     node-expat.obj
 0002:0000c4c8       $chain$4$?Resume@Parser@@KAXAEBV?$FunctionCallbackInfo@VValue@v8@@@Nan@@@Z 000000018003e4c8     node-expat.obj
 0002:0000c4e4       $unwind$?Reset@Parser@@KAXAEBV?$FunctionCallbackInfo@VValue@v8@@@Nan@@@Z 000000018003e4e4     node-expat.obj
 0002:0000c508       $unwind$?GetCurrentLineNumber@Parser@@KAXAEBV?$FunctionCallbackInfo@VValue@v8@@@Nan@@@Z 000000018003e508     node-expat.obj
 0002:0000c508       $unwind$?GetCurrentByteIndex@Parser@@KAXAEBV?$FunctionCallbackInfo@VValue@v8@@@Nan@@@Z 000000018003e508     node-expat.obj
 0002:0000c508       $unwind$?GetCurrentColumnNumber@Parser@@KAXAEBV?$FunctionCallbackInfo@VValue@v8@@@Nan@@@Z 000000018003e508     node-expat.obj
 0002:0000c514       $unwind$?StartElement@Parser@@CAXPEAXPEBDPEAPEBD@Z 000000018003e514     node-expat.obj
 0002:0000c528       $chain$2$?StartElement@Parser@@CAXPEAXPEBDPEAPEBD@Z 000000018003e528     node-expat.obj
 0002:0000c544       $chain$3$?StartElement@Parser@@CAXPEAXPEBDPEAPEBD@Z 000000018003e544     node-expat.obj
 0002:0000c558       $chain$4$?StartElement@Parser@@CAXPEAXPEBDPEAPEBD@Z 000000018003e558     node-expat.obj
 0002:0000c568       $chain$5$?StartElement@Parser@@CAXPEAXPEBDPEAPEBD@Z 000000018003e568     node-expat.obj
 0002:0000c580       $chain$6$?StartElement@Parser@@CAXPEAXPEBDPEAPEBD@Z 000000018003e580     node-expat.obj
 0002:0000c594       $chain$7$?StartElement@Parser@@CAXPEAXPEBDPEAPEBD@Z 000000018003e594     node-expat.obj
 0002:0000c5a4       $unwind$?EndElement@Parser@@CAXPEAXPEBD@Z 000000018003e5a4     node-expat.obj
 0002:0000c5a4       $unwind$?Comment@Parser@@CAXPEAXPEBD@Z 000000018003e5a4     node-expat.obj
 0002:0000c5b0       $unwind$?Text@Parser@@CAXPEAXPEBDH@Z 000000018003e5b0     node-expat.obj
 0002:0000c5b0       $unwind$?UnknownEncoding@Parser@@CAHPEAXPEBDPEAUXML_Encoding@@@Z 000000018003e5b0     node-expat.obj
 0002:0000c5c0       $unwind$?ProcessingInstruction@Parser@@CAXPEAXPEBD1@Z 000000018003e5c0     node-expat.obj
 0002:0000c5d4       $unwind$?XmlDecl@Parser@@CAXPEAXPEBD1H@Z 000000018003e5d4     node-expat.obj
 0002:0000c5ec       $unwind$?EntityDecl@Parser@@CAXPEAXPEBDH1H1111@Z 000000018003e5ec     node-expat.obj
 0002:0000c610       $unwind$?SetUnknownEncoding@Parser@@CAXAEBV?$FunctionCallbackInfo@VValue@v8@@@Nan@@@Z 000000018003e610     node-expat.obj
 0002:0000c620       $chain$2$?SetUnknownEncoding@Parser@@CAXAEBV?$FunctionCallbackInfo@VValue@v8@@@Nan@@@Z 000000018003e620     node-expat.obj
 0002:0000c63c       $chain$3$?SetUnknownEncoding@Parser@@CAXAEBV?$FunctionCallbackInfo@VValue@v8@@@Nan@@@Z 000000018003e63c     node-expat.obj
 0002:0000c64c       $unwind$fprintf            000000018003e64c     libexpat:xmlparse.obj
 0002:0000c64c       $unwind$fwprintf           000000018003e64c     libucrt:assert.obj
 0002:0000c658       $unwind$sip24_update       000000018003e658     libexpat:xmlparse.obj
 0002:0000c670       $unwind$startParsing       000000018003e670     libexpat:xmlparse.obj
 0002:0000c678       $chain$1$startParsing      000000018003e678     libexpat:xmlparse.obj
 0002:0000c690       $chain$2$startParsing      000000018003e690     libexpat:xmlparse.obj
 0002:0000c6a0       $unwind$parserCreate       000000018003e6a0     libexpat:xmlparse.obj
 0002:0000c6ac       $chain$1$parserCreate      000000018003e6ac     libexpat:xmlparse.obj
 0002:0000c6c4       $chain$3$parserCreate      000000018003e6c4     libexpat:xmlparse.obj
 0002:0000c6dc       $chain$4$parserCreate      000000018003e6dc     libexpat:xmlparse.obj
 0002:0000c6ec       $unwind$getElementType     000000018003e6ec     libexpat:xmlparse.obj
 0002:0000c6ec       $unwind$??$ensure_buffer_is_big_enough@D@formatting_buffer@__crt_stdio_output@@QEAA_N_K@Z 000000018003e6ec     libucrt:output.obj
 0002:0000c6ec       $unwind$__acrt_free_locale 000000018003e6ec     libucrt:locale_refcounting.obj
 0002:0000c6ec       $unwind$__scrt_dllmain_exception_filter 000000018003e6ec     LIBCMT:utility.obj
 0002:0000c6ec       $unwind$??$ensure_buffer_is_big_enough@_W@formatting_buffer@__crt_stdio_output@@QEAA_N_K@Z 000000018003e6ec     libucrt:output.obj
 0002:0000c6ec       $unwind$__acrt_lowio_create_handle_array 000000018003e6ec     libucrt:osfinfo.obj
 0002:0000c6ec       $unwind$dtdReset           000000018003e6ec     libexpat:xmlparse.obj
 0002:0000c6ec       $unwind$?setSBCS@@YAXPEAU__crt_multibyte_data@@@Z 000000018003e6ec     libucrt:mbctype.obj
 0002:0000c6ec       $unwind$parserInit         000000018003e6ec     libexpat:xmlparse.obj
 0002:0000c6ec       $unwind$_wassert           000000018003e6ec     libucrt:assert.obj
 0002:0000c6ec       $unwind$_seh_filter_exe    000000018003e6ec     libucrt:exception_filter.obj
 0002:0000c6ec       $unwind$__acrt_show_wide_message_box 000000018003e6ec     libucrt:crtmbox.obj
 0002:0000c6ec       $unwind$_initterm          000000018003e6ec     libucrt:initterm.obj
 0002:0000c6ec       $unwind$prologInitProcessor 000000018003e6ec     libexpat:xmlparse.obj
 0002:0000c6ec       $unwind$_recalloc_base     000000018003e6ec     libucrt:recalloc.obj
 0002:0000c700       $unwind$XML_ParserFree     000000018003e700     libexpat:xmlparse.obj
 0002:0000c708       $chain$1$XML_ParserFree    000000018003e708     libexpat:xmlparse.obj
 0002:0000c720       $chain$4$XML_ParserFree    000000018003e720     libexpat:xmlparse.obj
 0002:0000c73c       $chain$5$XML_ParserFree    000000018003e73c     libexpat:xmlparse.obj
 0002:0000c750       $chain$6$XML_ParserFree    000000018003e750     libexpat:xmlparse.obj
 0002:0000c760       $chain$7$XML_ParserFree    000000018003e760     libexpat:xmlparse.obj
 0002:0000c774       $chain$8$XML_ParserFree    000000018003e774     libexpat:xmlparse.obj
 0002:0000c784       $unwind$doctype1           000000018003e784     libexpat:xmlrole.obj
 0002:0000c784       $unwind$element1           000000018003e784     libexpat:xmlrole.obj
 0002:0000c784       $unwind$condSect0          000000018003e784     libexpat:xmlrole.obj
 0002:0000c784       $unwind$entity7            000000018003e784     libexpat:xmlrole.obj
 0002:0000c784       $unwind$defineAttribute    000000018003e784     libexpat:xmlparse.obj
 0002:0000c784       $unwind$XML_ParseBuffer    000000018003e784     libexpat:xmlparse.obj
 0002:0000c784       $unwind$notation1          000000018003e784     libexpat:xmlrole.obj
 0002:0000c784       $unwind$attlist8           000000018003e784     libexpat:xmlrole.obj
 0002:0000c784       $unwind$entity2            000000018003e784     libexpat:xmlrole.obj
 0002:0000c798       $chain$0$XML_ParseBuffer   000000018003e798     libexpat:xmlparse.obj
 0002:0000c7ac       $chain$1$XML_ParseBuffer   000000018003e7ac     libexpat:xmlparse.obj
 0002:0000c7bc       $chain$2$XML_ParseBuffer   000000018003e7bc     libexpat:xmlparse.obj
 0002:0000c7d0       $chain$2$XML_GetBuffer     000000018003e7d0     libexpat:xmlparse.obj
 0002:0000c7ec       $chain$4$XML_GetBuffer     000000018003e7ec     libexpat:xmlparse.obj
 0002:0000c808       $unwind$isdigit            000000018003e808     libucrt:_ctype.obj
 0002:0000c808       $unwind$_mbsdec_l          000000018003e808     libucrt:mbsdec.obj
 0002:0000c808       $unwind$externalEntityContentProcessor 000000018003e808     libexpat:xmlparse.obj
 0002:0000c808       $unwind$contentProcessor   000000018003e808     libexpat:xmlparse.obj
 0002:0000c814       $unwind$doContent          000000018003e814     libexpat:xmlparse.obj
 0002:0000c82c       $unwind$freeBindings       000000018003e82c     libexpat:xmlparse.obj
 0002:0000c838       $chain$0$freeBindings      000000018003e838     libexpat:xmlparse.obj
 0002:0000c84c       $chain$1$freeBindings      000000018003e84c     libexpat:xmlparse.obj
 0002:0000c85c       $unwind$storeAtts          000000018003e85c     libexpat:xmlparse.obj
 0002:0000c87c       $unwind$addBinding         000000018003e87c     libexpat:xmlparse.obj
 0002:0000c88c       $chain$0$addBinding        000000018003e88c     libexpat:xmlparse.obj
 0002:0000c8a0       $chain$2$addBinding        000000018003e8a0     libexpat:xmlparse.obj
 0002:0000c8b4       $chain$6$addBinding        000000018003e8b4     libexpat:xmlparse.obj
 0002:0000c8d0       $unwind$cdataSectionProcessor 000000018003e8d0     libexpat:xmlparse.obj
 0002:0000c8d0       $unwind$ignoreSectionProcessor 000000018003e8d0     libexpat:xmlparse.obj
 0002:0000c8e0       $unwind$doCdataSection     000000018003e8e0     libexpat:xmlparse.obj
 0002:0000c8f8       $unwind$doIgnoreSection    000000018003e8f8     libexpat:xmlparse.obj
 0002:0000c910       $unwind$processXmlDecl     000000018003e910     libexpat:xmlparse.obj
 0002:0000c928       $unwind$handleUnknownEncoding 000000018003e928     libexpat:xmlparse.obj
 0002:0000c93c       $unwind$prologProcessor    000000018003e93c     libexpat:xmlparse.obj
 0002:0000c950       $unwind$doProlog           000000018003e950     libexpat:xmlparse.obj
 0002:0000c968       $unwind$?process@?$output_processor@_WV?$string_output_adapter@_W@__crt_stdio_output@@V?$standard_base@_WV?$string_output_adapter@_W@__crt_stdio_output@@@2@@__crt_stdio_output@@QEAAHXZ 000000018003e968     libucrt:output.obj
 0002:0000c968       $unwind$epilogProcessor    000000018003e968     libexpat:xmlparse.obj
 0002:0000c968       $unwind$?process@?$output_processor@_WV?$stream_output_adapter@_W@__crt_stdio_output@@V?$standard_base@_WV?$stream_output_adapter@_W@__crt_stdio_output@@@2@@__crt_stdio_output@@QEAAHXZ 000000018003e968     libucrt:output.obj
 0002:0000c968       $unwind$unknown_toUtf8     000000018003e968     libexpat:xmltok.obj
 0002:0000c968       $unwind$?parse_int_from_format_string@?$output_processor@DV?$stream_output_adapter@D@__crt_stdio_output@@V?$standard_base@DV?$stream_output_adapter@D@__crt_stdio_output@@@2@@__crt_stdio_output@@AEAA_NQEAH@Z 000000018003e968     libucrt:output.obj
 0002:0000c97c       $unwind$processInternalEntity 000000018003e97c     libexpat:xmlparse.obj
 0002:0000c98c       $chain$0$processInternalEntity 000000018003e98c     libexpat:xmlparse.obj
 0002:0000c9a0       $chain$1$processInternalEntity 000000018003e9a0     libexpat:xmlparse.obj
 0002:0000c9b0       $chain$2$processInternalEntity 000000018003e9b0     libexpat:xmlparse.obj
 0002:0000c9c4       $unwind$internalEntityProcessor 000000018003e9c4     libexpat:xmlparse.obj
 0002:0000c9dc       $chain$2$internalEntityProcessor 000000018003e9dc     libexpat:xmlparse.obj
 0002:0000c9f0       $chain$3$internalEntityProcessor 000000018003e9f0     libexpat:xmlparse.obj
 0002:0000ca00       $unwind$appendAttributeValue 000000018003ea00     libexpat:xmlparse.obj
 0002:0000ca18       $unwind$storeEntityValue   000000018003ea18     libexpat:xmlparse.obj
 0002:0000ca2c       $chain$0$storeEntityValue  000000018003ea2c     libexpat:xmlparse.obj
 0002:0000ca40       $chain$1$storeEntityValue  000000018003ea40     libexpat:xmlparse.obj
 0002:0000ca50       $unwind$reportProcessingInstruction 000000018003ea50     libexpat:xmlparse.obj
 0002:0000ca68       $unwind$reportComment      000000018003ea68     libexpat:xmlparse.obj
 0002:0000ca68       $unwind$little2_contentTok 000000018003ea68     libexpat:xmltok.obj
 0002:0000ca68       $unwind$big2_contentTok    000000018003ea68     libexpat:xmltok.obj
 0002:0000ca70       $chain$0$reportComment     000000018003ea70     libexpat:xmlparse.obj
 0002:0000ca84       $chain$2$reportComment     000000018003ea84     libexpat:xmlparse.obj
 0002:0000ca98       $unwind$reportDefault      000000018003ea98     libexpat:xmlparse.obj
 0002:0000caa4       $chain$2$reportDefault     000000018003eaa4     libexpat:xmlparse.obj
 0002:0000cac0       $chain$3$reportDefault     000000018003eac0     libexpat:xmlparse.obj
 0002:0000cad0       $chain$0$defineAttribute   000000018003ead0     libexpat:xmlparse.obj
 0002:0000cae4       $chain$3$defineAttribute   000000018003eae4     libexpat:xmlparse.obj
 0002:0000cae4       $chain$1$defineAttribute   000000018003eae4     libexpat:xmlparse.obj
 0002:0000caf4       $chain$2$defineAttribute   000000018003eaf4     libexpat:xmlparse.obj
 0002:0000cb08       $unwind$getAttributeId     000000018003eb08     libexpat:xmlparse.obj
 0002:0000cb24       $unwind$?try_get_function@@YAPEAXW4function_id@?A0x391cf84c@@QEBDQEBW4module_id@2@2@Z 000000018003eb24     libucrt:winapi_thunks.obj
 0002:0000cb24       $unwind$?try_get_function@@YAPEAXW4function_id@?A0xa3b92138@@QEBDQEBW4module_id@2@2@Z 000000018003eb24     libvcruntime:winapi_downlevel.obj
 0002:0000cb24       $unwind$getContext         000000018003eb24     libexpat:xmlparse.obj
 0002:0000cb24       $unwind$normal_scanLt      000000018003eb24     libexpat:xmltok.obj
 0002:0000cb40       $unwind$setContext         000000018003eb40     libexpat:xmlparse.obj
 0002:0000cb58       $unwind$hash               000000018003eb58     libexpat:xmlparse.obj
 0002:0000cb68       $unwind$lookup             000000018003eb68     libexpat:xmlparse.obj
 0002:0000cb80       $unwind$poolAppend         000000018003eb80     libexpat:xmlparse.obj
 0002:0000cb94       $unwind$poolGrow           000000018003eb94     libexpat:xmlparse.obj
 0002:0000cbac       $unwind$?type_case_n@?$output_processor@DV?$stream_output_adapter@D@__crt_stdio_output@@V?$standard_base@DV?$stream_output_adapter@D@__crt_stdio_output@@@2@@__crt_stdio_output@@AEAA_NXZ 000000018003ebac     libucrt:output.obj
 0002:0000cbac       $unwind$__vcrt_InitializeCriticalSectionEx 000000018003ebac     libvcruntime:winapi_downlevel.obj
 0002:0000cbac       $unwind$?type_case_n@?$output_processor@_WV?$string_output_adapter@_W@__crt_stdio_output@@V?$standard_base@_WV?$string_output_adapter@_W@__crt_stdio_output@@@2@@__crt_stdio_output@@AEAA_NXZ 000000018003ebac     libucrt:output.obj
 0002:0000cbac       $unwind$__acrt_stdio_flush_nolock 000000018003ebac     libucrt:fflush.obj
 0002:0000cbac       $unwind$__acrt_execute_initializers 000000018003ebac     libucrt:shared_initialization.obj
 0002:0000cbac       $unwind$_DllMainCRTStartup 000000018003ebac     LIBCMT:dll_dllmain.obj
 0002:0000cbac       $unwind$memcpy_s           000000018003ebac     libucrt:cfout.obj
 0002:0000cbac       $unwind$?type_case_s@?$output_processor@_WV?$string_output_adapter@_W@__crt_stdio_output@@V?$standard_base@_WV?$string_output_adapter@_W@__crt_stdio_output@@@2@@__crt_stdio_output@@AEAA_NXZ 000000018003ebac     libucrt:output.obj
 0002:0000cbac       $unwind$__acrt_getptd_noexit 000000018003ebac     libucrt:per_thread_data.obj
 0002:0000cbac       $unwind$?free_crt_array_internal@@YAXQEAPEBX_K@Z 000000018003ebac     libucrt:inittime.obj
 0002:0000cbac       $unwind$__vcrt_getptd_noexit 000000018003ebac     libvcruntime:per_thread_data.obj
 0002:0000cbac       $unwind$nextScaffoldPart   000000018003ebac     libexpat:xmlparse.obj
 0002:0000cbac       $unwind$__acrt_InitializeCriticalSectionEx 000000018003ebac     libucrt:winapi_thunks.obj
 0002:0000cbac       $unwind$??R<lambda_ca71763b3c0644891230e4f79ea54fa6>@@QEBAHXZ 000000018003ebac     libucrt:setvbuf.obj
 0002:0000cbac       $unwind$??0_LocaleUpdate@@QEAA@QEAU__crt_locale_pointers@@@Z 000000018003ebac     libucrt:stricmp.obj
 0002:0000cbac       $unwind$?type_case_Z@?$output_processor@_WV?$stream_output_adapter@_W@__crt_stdio_output@@V?$standard_base@_WV?$stream_output_adapter@_W@__crt_stdio_output@@@2@@__crt_stdio_output@@AEAA_NXZ 000000018003ebac     libucrt:output.obj
 0002:0000cbac       $unwind$__acrt_getptd      000000018003ebac     libucrt:per_thread_data.obj
 0002:0000cbac       $unwind$?type_case_Z@?$output_processor@_WV?$string_output_adapter@_W@__crt_stdio_output@@V?$standard_base@_WV?$string_output_adapter@_W@__crt_stdio_output@@@2@@__crt_stdio_output@@AEAA_NXZ 000000018003ebac     libucrt:output.obj
 0002:0000cbac       $unwind$?type_case_n@?$output_processor@_WV?$stream_output_adapter@_W@__crt_stdio_output@@V?$standard_base@_WV?$stream_output_adapter@_W@__crt_stdio_output@@@2@@__crt_stdio_output@@AEAA_NXZ 000000018003ebac     libucrt:output.obj
 0002:0000cbac       $unwind$__acrt_stdio_flush_and_write_narrow_nolock 000000018003ebac     libucrt:_flsbuf.obj
 0002:0000cbac       $unwind$??$common_lseek_nolock@_J@@YA_JH_JH@Z 000000018003ebac     libucrt:lseek.obj
 0002:0000cbac       $unwind$??$common_getenv_nolock@D@@YAPEADQEBD@Z 000000018003ebac     libucrt:getenv.obj
 0002:0000cbac       $unwind$?type_case_s@?$output_processor@_WV?$stream_output_adapter@_W@__crt_stdio_output@@V?$standard_base@_WV?$stream_output_adapter@_W@__crt_stdio_output@@@2@@__crt_stdio_output@@AEAA_NXZ 000000018003ebac     libucrt:output.obj
 0002:0000cbac       $unwind$__acrt_stdio_flush_and_write_wide_nolock 000000018003ebac     libucrt:_flsbuf.obj
 0002:0000cbac       $unwind$_exception_enabled 000000018003ebac     libucrt:libm_error.obj
 0002:0000cbbc       $unwind$build_node         000000018003ebbc     libexpat:xmlparse.obj
 0002:0000cbd4       $chain$2$build_node        000000018003ebd4     libexpat:xmlparse.obj
 0002:0000cbe8       $chain$3$build_node        000000018003ebe8     libexpat:xmlparse.obj
 0002:0000cbf8       $unwind$?type_case_integer@?$output_processor@_WV?$stream_output_adapter@_W@__crt_stdio_output@@V?$standard_base@_WV?$stream_output_adapter@_W@__crt_stdio_output@@@2@@__crt_stdio_output@@AEAA_NI_N@Z 000000018003ebf8     libucrt:output.obj
 0002:0000cbf8       $unwind$little2_scanPi     000000018003ebf8     libexpat:xmltok.obj
 0002:0000cbf8       $unwind$big2_getAtts       000000018003ebf8     libexpat:xmltok.obj
 0002:0000cbf8       $unwind$?type_case_integer@?$output_processor@_WV?$string_output_adapter@_W@__crt_stdio_output@@V?$standard_base@_WV?$string_output_adapter@_W@__crt_stdio_output@@@2@@__crt_stdio_output@@AEAA_NI_N@Z 000000018003ebf8     libucrt:output.obj
 0002:0000cbf8       $unwind$normal_scanLit     000000018003ebf8     libexpat:xmltok.obj
 0002:0000cbf8       $unwind$normal_scanComment 000000018003ebf8     libexpat:xmltok.obj
 0002:0000cbf8       $unwind$normal_ignoreSectionTok 000000018003ebf8     libexpat:xmltok.obj
 0002:0000cbf8       $unwind$little2_getAtts    000000018003ebf8     libexpat:xmltok.obj
 0002:0000cbf8       $unwind$big2_scanPi        000000018003ebf8     libexpat:xmltok.obj
 0002:0000cbf8       $unwind$little2_scanLt     000000018003ebf8     libexpat:xmltok.obj
 0002:0000cbf8       $unwind$big2_scanLt        000000018003ebf8     libexpat:xmltok.obj
 0002:0000cbf8       $unwind$??$common_xtox@K_W@@YAHKQEA_W_KI_N@Z 000000018003ebf8     libucrt:xtoa.obj
 0002:0000cbf8       $unwind$?type_case_integer@?$output_processor@DV?$stream_output_adapter@D@__crt_stdio_output@@V?$standard_base@DV?$stream_output_adapter@D@__crt_stdio_output@@@2@@__crt_stdio_output@@AEAA_NI_N@Z 000000018003ebf8     libucrt:output.obj
 0002:0000cbf8       $unwind$??R<lambda_f03950bc5685219e0bcd2087efbe011e>@@QEBAHXZ 000000018003ebf8     libucrt:onexit.obj
 0002:0000cc10       $unwind$normal_scanPi      000000018003ec10     libexpat:xmltok.obj
 0002:0000cc2c       $unwind$?parse_int_from_format_string@?$output_processor@_WV?$string_output_adapter@_W@__crt_stdio_output@@V?$standard_base@_WV?$string_output_adapter@_W@__crt_stdio_output@@@2@@__crt_stdio_output@@AEAA_NQEAH@Z 000000018003ec2c     libucrt:output.obj
 0002:0000cc2c       $unwind$normal_cdataSectionTok 000000018003ec2c     libexpat:xmltok.obj
 0002:0000cc2c       $unwind$normal_scanRef     000000018003ec2c     libexpat:xmltok.obj
 0002:0000cc2c       $unwind$normal_contentTok  000000018003ec2c     libexpat:xmltok.obj
 0002:0000cc2c       $unwind$normal_scanPercent 000000018003ec2c     libexpat:xmltok.obj
 0002:0000cc2c       $unwind$?parse_int_from_format_string@?$output_processor@_WV?$stream_output_adapter@_W@__crt_stdio_output@@V?$standard_base@_WV?$stream_output_adapter@_W@__crt_stdio_output@@@2@@__crt_stdio_output@@AEAA_NQEAH@Z 000000018003ec2c     libucrt:output.obj
 0002:0000cc40       $chain$0$normal_cdataSectionTok 000000018003ec40     libexpat:xmltok.obj
 0002:0000cc54       $chain$1$normal_cdataSectionTok 000000018003ec54     libexpat:xmltok.obj
 0002:0000cc64       $chain$0$normal_scanRef    000000018003ec64     libexpat:xmltok.obj
 0002:0000cc78       $chain$1$normal_scanRef    000000018003ec78     libexpat:xmltok.obj
 0002:0000cc88       $unwind$normal_scanAtts    000000018003ec88     libexpat:xmltok.obj
 0002:0000cca0       $chain$0$normal_contentTok 000000018003eca0     libexpat:xmltok.obj
 0002:0000ccb4       $chain$1$normal_contentTok 000000018003ecb4     libexpat:xmltok.obj
 0002:0000ccc4       $chain$2$normal_contentTok 000000018003ecc4     libexpat:xmltok.obj
 0002:0000ccd8       $chain$0$normal_scanPercent 000000018003ecd8     libexpat:xmltok.obj
 0002:0000ccec       $chain$1$normal_scanPercent 000000018003ecec     libexpat:xmltok.obj
 0002:0000ccfc       $unwind$normal_prologTok   000000018003ecfc     libexpat:xmltok.obj
 0002:0000cd0c       $chain$1$normal_prologTok  000000018003ed0c     libexpat:xmltok.obj
 0002:0000cd24       $chain$2$normal_prologTok  000000018003ed24     libexpat:xmltok.obj
 0002:0000cd34       $chain$0$normal_attributeValueTok 000000018003ed34     libexpat:xmltok.obj
 0002:0000cd48       $chain$12$normal_attributeValueTok 000000018003ed48     libexpat:xmltok.obj
 0002:0000cd48       $chain$10$normal_attributeValueTok 000000018003ed48     libexpat:xmltok.obj
 0002:0000cd48       $chain$4$normal_attributeValueTok 000000018003ed48     libexpat:xmltok.obj
 0002:0000cd48       $chain$6$normal_attributeValueTok 000000018003ed48     libexpat:xmltok.obj
 0002:0000cd48       $chain$8$normal_attributeValueTok 000000018003ed48     libexpat:xmltok.obj
 0002:0000cd48       $chain$2$normal_attributeValueTok 000000018003ed48     libexpat:xmltok.obj
 0002:0000cd5c       $chain$13$normal_attributeValueTok 000000018003ed5c     libexpat:xmltok.obj
 0002:0000cd6c       $unwind$initScanPrologNS   000000018003ed6c     libexpat:xmltok.obj
 0002:0000cd6c       $unwind$__acrt_uninitialize_ptd 000000018003ed6c     libucrt:per_thread_data.obj
 0002:0000cd6c       $unwind$__GSHandlerCheck   000000018003ed6c     LIBCMT:gshandler.obj
 0002:0000cd6c       $unwind$__acrt_uninitialize 000000018003ed6c     libucrt:initialization.obj
 0002:0000cd6c       $unwind$?__c32rtomb_utf8@__crt_mbstring@@YA_KPEAD_UPEAU_Mbstatet@@@Z 000000018003ed6c     libucrt:c32rtomb.obj
 0002:0000cd6c       $unwind$unknown_isNmstrt   000000018003ed6c     libexpat:xmltok.obj
 0002:0000cd6c       $unwind$__acrt_initialize_ptd 000000018003ed6c     libucrt:per_thread_data.obj
 0002:0000cd6c       $unwind$__vcrt_freefls     000000018003ed6c     libvcruntime:per_thread_data.obj
 0002:0000cd6c       $unwind$_fileno            000000018003ed6c     libucrt:fileno.obj
 0002:0000cd6c       $unwind$_set_errno_from_matherr 000000018003ed6c     libucrt:fpexcept.obj
 0002:0000cd6c       $unwind$__acrt_DownlevelLocaleNameToLCID 000000018003ed6c     libucrt:lcidtoname_downlevel.obj
 0002:0000cd6c       $unwind$?validate_stream_is_ansi_if_required@?$__acrt_stdio_char_traits@D@@SA_NQEAU_iobuf@@@Z 000000018003ed6c     libucrt:output.obj
 0002:0000cd6c       $unwind$__acrt_uninitialize_critical 000000018003ed6c     libucrt:initialization.obj
 0002:0000cd6c       $unwind$_get_osfhandle     000000018003ed6c     libucrt:osfinfo.obj
 0002:0000cd6c       $unwind$abort              000000018003ed6c     libucrt:abort.obj
 0002:0000cd6c       $unwind$__acrt_thread_attach 000000018003ed6c     libucrt:initialization.obj
 0002:0000cd6c       $unwind$__acrt_thread_detach 000000018003ed6c     libucrt:initialization.obj
 0002:0000cd6c       $unwind$initialize_c       000000018003ed6c     libucrt:initialization.obj
 0002:0000cd6c       $unwind$?DloadReleaseSectionWriteAccess@@YAXXZ 000000018003ed6c     DelayImp:delayhlp.obj
 0002:0000cd6c       $unwind$??$uninitialize_environment_internal@_W@@YAXAEAPEAPEA_W@Z 000000018003ed6c     libucrt:environment_initialization.obj
 0002:0000cd6c       $unwind$??$uninitialize_environment_internal@D@@YAXAEAPEAPEAD@Z 000000018003ed6c     libucrt:environment_initialization.obj
 0002:0000cd6c       $unwind$__dcrt_uninitialize_environments_nolock 000000018003ed6c     libucrt:environment_initialization.obj
 0002:0000cd6c       $unwind$__dcrt_get_or_create_narrow_environment_nolock 000000018003ed6c     libucrt:environment_initialization.obj
 0002:0000cd6c       $unwind$__acrt_release_locale_ref 000000018003ed6c     libucrt:locale_refcounting.obj
 0002:0000cd6c       $unwind$initScanProlog     000000018003ed6c     libexpat:xmltok.obj
 0002:0000cd6c       $unwind$_statfp            000000018003ed6c     libucrt:fpctrl.obj
 0002:0000cd6c       $unwind$__vcrt_initialize_ptd 000000018003ed6c     libvcruntime:per_thread_data.obj
 0002:0000cd6c       $unwind$__scrt_dllmain_after_initialize_c 000000018003ed6c     LIBCMT:utility.obj
 0002:0000cd6c       $unwind$_invoke_watson     000000018003ed6c     libucrt:invalid_parameter.obj
 0002:0000cd6c       $unwind$unknown_isName     000000018003ed6c     libexpat:xmltok.obj
 0002:0000cd6c       $unwind$__vcrt_uninitialize_ptd 000000018003ed6c     libvcruntime:per_thread_data.obj
 0002:0000cd6c       $unwind$__acrt_initialize_heap 000000018003ed6c     libucrt:heap_handle.obj
 0002:0000cd6c       $unwind$__dcrt_terminate_console_output 000000018003ed6c     libucrt:initcon.obj
 0002:0000cd6c       $unwind$unknown_isInvalid  000000018003ed6c     libexpat:xmltok.obj
 0002:0000cd6c       $unwind$tolower            000000018003ed6c     libucrt:tolower_toupper.obj
 0002:0000cd6c       $unwind$__scrt_dllmain_before_initialize_c 000000018003ed6c     LIBCMT:utility.obj
 0002:0000cd6c       $unwind$__acrt_update_thread_multibyte_data 000000018003ed6c     libucrt:mbctype.obj
 0002:0000cd6c       $unwind$?dllmain_crt_dispatch@@YAHQEAUHINSTANCE__@@KQEAX@Z 000000018003ed6c     LIBCMT:dll_dllmain.obj
 0002:0000cd6c       $unwind$uninitialize_allocated_io_buffers 000000018003ed6c     libucrt:initialization.obj
 0002:0000cd6c       $unwind$__scrt_dllmain_uninitialize_c 000000018003ed6c     LIBCMT:utility.obj
 0002:0000cd6c       $unwind$__scrt_acquire_startup_lock 000000018003ed6c     LIBCMT:utility.obj
 0002:0000cd6c       $unwind$__acrt_initialize_command_line 000000018003ed6c     libucrt:argv_data.obj
 0002:0000cd6c       $unwind$__scrt_dllmain_uninitialize_critical 000000018003ed6c     LIBCMT:utility.obj
 0002:0000cd6c       $unwind$XmlInitUnknownEncodingNS 000000018003ed6c     libexpat:xmltok.obj
 0002:0000cd6c       $unwind$?state_case_size@?$output_processor@_WV?$string_output_adapter@_W@__crt_stdio_output@@V?$standard_base@_WV?$string_output_adapter@_W@__crt_stdio_output@@@2@@__crt_stdio_output@@AEAA_NXZ 000000018003ed6c     libucrt:output.obj
 0002:0000cd6c       $unwind$__scrt_dllmain_crt_thread_attach 000000018003ed6c     LIBCMT:utility.obj
 0002:0000cd6c       $unwind$__scrt_dllmain_crt_thread_detach 000000018003ed6c     LIBCMT:utility.obj
 0002:0000cd6c       $unwind$normal_entityValueTok 000000018003ed6c     libexpat:xmltok.obj
 0002:0000cd6c       $unwind$_isatty            000000018003ed6c     libucrt:isatty.obj
 0002:0000cd6c       $unwind$__acrt_AreFileApisANSI 000000018003ed6c     libucrt:winapi_thunks.obj
 0002:0000cd6c       $unwind$__report_rangecheckfailure 000000018003ed6c     LIBCMT:gs_report.obj
 0002:0000cd6c       $unwind$_errno             000000018003ed6c     libucrt:errno.obj
 0002:0000cd6c       $unwind$__pctype_func      000000018003ed6c     libucrt:ctype.obj
 0002:0000cd6c       $unwind$__doserrno         000000018003ed6c     libucrt:errno.obj
 0002:0000cd6c       $unwind$_strnicmp          000000018003ed6c     libucrt:strnicmp.obj
 0002:0000cd6c       $unwind$_msize_base        000000018003ed6c     libucrt:msize.obj
 0002:0000cd6c       $unwind$?state_case_size@?$output_processor@_WV?$stream_output_adapter@_W@__crt_stdio_output@@V?$standard_base@_WV?$stream_output_adapter@_W@__crt_stdio_output@@@2@@__crt_stdio_output@@AEAA_NXZ 000000018003ed6c     libucrt:output.obj
 0002:0000cd6c       $unwind$?initialize_multibyte@@YAHXZ 000000018003ed6c     libucrt:multibyte_initializer.obj
 0002:0000cd6c       $unwind$?state_case_size@?$output_processor@DV?$stream_output_adapter@D@__crt_stdio_output@@V?$standard_base@DV?$stream_output_adapter@D@__crt_stdio_output@@@2@@__crt_stdio_output@@AEAA_NXZ 000000018003ed6c     libucrt:output.obj
 0002:0000cd6c       $unwind$__vcrt_thread_detach 000000018003ed6c     libvcruntime:initialization.obj
 0002:0000cd6c       $unwind$__vcrt_thread_attach 000000018003ed6c     libvcruntime:initialization.obj
 0002:0000cd6c       $unwind$__vcrt_uninitialize_critical 000000018003ed6c     libvcruntime:initialization.obj
 0002:0000cd6c       $unwind$_set_error_mode    000000018003ed6c     libucrt:set_error_mode.obj
 0002:0000cd6c       $unwind$__vcrt_uninitialize 000000018003ed6c     libvcruntime:initialization.obj
 0002:0000cd6c       $unwind$__vcrt_initialize  000000018003ed6c     libvcruntime:initialization.obj
 0002:0000cd6c       $unwind$__scrt_initialize_default_local_stdio_options 000000018003ed6c     LIBCMT:default_local_stdio_options.obj
 0002:0000cd6c       $unwind$_stricmp           000000018003ed6c     libucrt:stricmp.obj
 0002:0000cd6c       $unwind$uninitialize_environment 000000018003ed6c     libucrt:initialization.obj
 0002:0000cd6c       $unwind$__acrt_initialize_multibyte 000000018003ed6c     libucrt:mbctype.obj
 0002:0000cd74       $chain$1$normal_entityValueTok 000000018003ed74     libexpat:xmltok.obj
 0002:0000cd8c       $chain$11$normal_entityValueTok 000000018003ed8c     libexpat:xmltok.obj
 0002:0000cd8c       $chain$9$normal_entityValueTok 000000018003ed8c     libexpat:xmltok.obj
 0002:0000cd8c       $chain$3$normal_entityValueTok 000000018003ed8c     libexpat:xmltok.obj
 0002:0000cd8c       $chain$5$normal_entityValueTok 000000018003ed8c     libexpat:xmltok.obj
 0002:0000cd8c       $chain$7$normal_entityValueTok 000000018003ed8c     libexpat:xmltok.obj
 0002:0000cda4       $chain$12$normal_entityValueTok 000000018003eda4     libexpat:xmltok.obj
 0002:0000cdb4       $unwind$normal_isPublicId  000000018003edb4     libexpat:xmltok.obj
 0002:0000cdb4       $unwind$big2_isPublicId    000000018003edb4     libexpat:xmltok.obj
 0002:0000cdb4       $unwind$__ascii_strnicmp   000000018003edb4     libucrt:strnicmp.obj
 0002:0000cdb4       $unwind$big2_charRefNumber 000000018003edb4     libexpat:xmltok.obj
 0002:0000cdb4       $unwind$big2_sameName      000000018003edb4     libexpat:xmltok.obj
 0002:0000cdb4       $unwind$??$type_case_integer_parse_into_buffer@_K@?$output_processor@_WV?$string_output_adapter@_W@__crt_stdio_output@@V?$standard_base@_WV?$string_output_adapter@_W@__crt_stdio_output@@@2@@__crt_stdio_output@@AEAAX_KI_N@Z 000000018003edb4     libucrt:output.obj
 0002:0000cdb4       $unwind$??$type_case_integer_parse_into_buffer@I@?$output_processor@_WV?$string_output_adapter@_W@__crt_stdio_output@@V?$standard_base@_WV?$string_output_adapter@_W@__crt_stdio_output@@@2@@__crt_stdio_output@@AEAAXII_N@Z 000000018003edb4     libucrt:output.obj
 0002:0000cdb4       $unwind$??$type_case_integer_parse_into_buffer@_K@?$output_processor@_WV?$stream_output_adapter@_W@__crt_stdio_output@@V?$standard_base@_WV?$stream_output_adapter@_W@__crt_stdio_output@@@2@@__crt_stdio_output@@AEAAX_KI_N@Z 000000018003edb4     libucrt:output.obj
 0002:0000cdb4       $unwind$??$type_case_integer_parse_into_buffer@I@?$output_processor@DV?$stream_output_adapter@D@__crt_stdio_output@@V?$standard_base@DV?$stream_output_adapter@D@__crt_stdio_output@@@2@@__crt_stdio_output@@AEAAXII_N@Z 000000018003edb4     libucrt:output.obj
 0002:0000cdb4       $unwind$??$type_case_integer_parse_into_buffer@I@?$output_processor@_WV?$stream_output_adapter@_W@__crt_stdio_output@@V?$standard_base@_WV?$stream_output_adapter@_W@__crt_stdio_output@@@2@@__crt_stdio_output@@AEAAXII_N@Z 000000018003edb4     libucrt:output.obj
 0002:0000cdb4       $unwind$little2_isPublicId 000000018003edb4     libexpat:xmltok.obj
 0002:0000cdb4       $unwind$little2_charRefNumber 000000018003edb4     libexpat:xmltok.obj
 0002:0000cdb4       $unwind$??$type_case_integer_parse_into_buffer@_K@?$output_processor@DV?$stream_output_adapter@D@__crt_stdio_output@@V?$standard_base@DV?$stream_output_adapter@D@__crt_stdio_output@@@2@@__crt_stdio_output@@AEAAX_KI_N@Z 000000018003edb4     libucrt:output.obj
 0002:0000cdb4       $unwind$big2_scanComment   000000018003edb4     libexpat:xmltok.obj
 0002:0000cdb4       $unwind$little2_scanComment 000000018003edb4     libexpat:xmltok.obj
 0002:0000cdbc       $unwind$normal_getAtts     000000018003edbc     libexpat:xmltok.obj
 0002:0000cdd4       $unwind$?DloadObtainSection@@YAPEAXPEAK0@Z 000000018003edd4     DelayImp:delayhlp.obj
 0002:0000cdd4       $unwind$big2_toUtf8        000000018003edd4     libexpat:xmltok.obj
 0002:0000cdd4       $unwind$little2_toUtf8     000000018003edd4     libexpat:xmltok.obj
 0002:0000cdd4       $unwind$utf8_toUtf8        000000018003edd4     libexpat:xmltok.obj
 0002:0000cde4       $unwind$utf8_toUtf16       000000018003ede4     libexpat:xmltok.obj
 0002:0000cdf4       $chain$2$utf8_toUtf16      000000018003edf4     libexpat:xmltok.obj
 0002:0000ce10       $chain$3$utf8_toUtf16      000000018003ee10     libexpat:xmltok.obj
 0002:0000ce20       $chain$4$utf8_toUtf16      000000018003ee20     libexpat:xmltok.obj
 0002:0000ce3c       $unwind$little2_sameName   000000018003ee3c     libexpat:xmltok.obj
 0002:0000ce3c       $unwind$little2_toUtf16    000000018003ee3c     libexpat:xmltok.obj
 0002:0000ce3c       $unwind$big2_toUtf16       000000018003ee3c     libexpat:xmltok.obj
 0002:0000ce48       $unwind$little2_cdataSectionTok 000000018003ee48     libexpat:xmltok.obj
 0002:0000ce48       $unwind$big2_cdataSectionTok 000000018003ee48     libexpat:xmltok.obj
 0002:0000ce48       $unwind$big2_scanRef       000000018003ee48     libexpat:xmltok.obj
 0002:0000ce48       $unwind$little2_scanRef    000000018003ee48     libexpat:xmltok.obj
 0002:0000ce48       $unwind$iswctype           000000018003ee48     libucrt:iswctype.obj
 0002:0000ce54       $chain$0$little2_cdataSectionTok 000000018003ee54     libexpat:xmltok.obj
 0002:0000ce68       $chain$8$little2_cdataSectionTok 000000018003ee68     libexpat:xmltok.obj
 0002:0000ce68       $chain$14$little2_cdataSectionTok 000000018003ee68     libexpat:xmltok.obj
 0002:0000ce68       $chain$10$little2_cdataSectionTok 000000018003ee68     libexpat:xmltok.obj
 0002:0000ce68       $chain$6$little2_cdataSectionTok 000000018003ee68     libexpat:xmltok.obj
 0002:0000ce68       $chain$12$little2_cdataSectionTok 000000018003ee68     libexpat:xmltok.obj
 0002:0000ce68       $chain$2$little2_cdataSectionTok 000000018003ee68     libexpat:xmltok.obj
 0002:0000ce68       $chain$4$little2_cdataSectionTok 000000018003ee68     libexpat:xmltok.obj
 0002:0000ce7c       $unwind$big2_scanEndTag    000000018003ee7c     libexpat:xmltok.obj
 0002:0000ce7c       $unwind$_free_osfhnd       000000018003ee7c     libucrt:osfinfo.obj
 0002:0000ce7c       $unwind$__std_exception_copy 000000018003ee7c     libvcruntime:std_exception.obj
 0002:0000ce7c       $unwind$little2_scanEndTag 000000018003ee7c     libexpat:xmltok.obj
 0002:0000ce90       $chain$0$little2_scanRef   000000018003ee90     libexpat:xmltok.obj
 0002:0000cea4       $chain$8$little2_scanRef   000000018003eea4     libexpat:xmltok.obj
 0002:0000cea4       $chain$4$little2_scanRef   000000018003eea4     libexpat:xmltok.obj
 0002:0000cea4       $chain$2$little2_scanRef   000000018003eea4     libexpat:xmltok.obj
 0002:0000cea4       $chain$6$little2_scanRef   000000018003eea4     libexpat:xmltok.obj
 0002:0000ceb8       $chain$9$little2_scanRef   000000018003eeb8     libexpat:xmltok.obj
 0002:0000cec8       $unwind$big2_scanAtts      000000018003eec8     libexpat:xmltok.obj
 0002:0000cec8       $unwind$little2_scanAtts   000000018003eec8     libexpat:xmltok.obj
 0002:0000cee0       $chain$1$little2_contentTok 000000018003eee0     libexpat:xmltok.obj
 0002:0000cef8       $chain$13$little2_contentTok 000000018003eef8     libexpat:xmltok.obj
 0002:0000cef8       $chain$7$little2_contentTok 000000018003eef8     libexpat:xmltok.obj
 0002:0000cef8       $chain$5$little2_contentTok 000000018003eef8     libexpat:xmltok.obj
 0002:0000cef8       $chain$3$little2_contentTok 000000018003eef8     libexpat:xmltok.obj
 0002:0000cef8       $chain$15$little2_contentTok 000000018003eef8     libexpat:xmltok.obj
 0002:0000cef8       $chain$9$little2_contentTok 000000018003eef8     libexpat:xmltok.obj
 0002:0000cef8       $chain$11$little2_contentTok 000000018003eef8     libexpat:xmltok.obj
 0002:0000cef8       $chain$19$little2_contentTok 000000018003eef8     libexpat:xmltok.obj
 0002:0000cef8       $chain$17$little2_contentTok 000000018003eef8     libexpat:xmltok.obj
 0002:0000cf10       $chain$20$little2_contentTok 000000018003ef10     libexpat:xmltok.obj
 0002:0000cf20       $unwind$big2_scanPoundName 000000018003ef20     libexpat:xmltok.obj
 0002:0000cf20       $unwind$little2_scanPoundName 000000018003ef20     libexpat:xmltok.obj
 0002:0000cf20       $unwind$big2_scanPercent   000000018003ef20     libexpat:xmltok.obj
 0002:0000cf20       $unwind$little2_scanPercent 000000018003ef20     libexpat:xmltok.obj
 0002:0000cf2c       $chain$0$little2_scanPercent 000000018003ef2c     libexpat:xmltok.obj
 0002:0000cf40       $chain$4$little2_scanPercent 000000018003ef40     libexpat:xmltok.obj
 0002:0000cf40       $chain$2$little2_scanPercent 000000018003ef40     libexpat:xmltok.obj
 0002:0000cf40       $chain$6$little2_scanPercent 000000018003ef40     libexpat:xmltok.obj
 0002:0000cf40       $chain$8$little2_scanPercent 000000018003ef40     libexpat:xmltok.obj
 0002:0000cf54       $chain$9$little2_scanPercent 000000018003ef54     libexpat:xmltok.obj
 0002:0000cf64       $chain$0$little2_scanPoundName 000000018003ef64     libexpat:xmltok.obj
 0002:0000cf78       $chain$6$little2_scanPoundName 000000018003ef78     libexpat:xmltok.obj
 0002:0000cf78       $chain$2$little2_scanPoundName 000000018003ef78     libexpat:xmltok.obj
 0002:0000cf78       $chain$4$little2_scanPoundName 000000018003ef78     libexpat:xmltok.obj
 0002:0000cf8c       $chain$7$little2_scanPoundName 000000018003ef8c     libexpat:xmltok.obj
 0002:0000cf9c       $unwind$little2_prologTok  000000018003ef9c     libexpat:xmltok.obj
 0002:0000cf9c       $unwind$big2_prologTok     000000018003ef9c     libexpat:xmltok.obj
 0002:0000cfa8       $chain$2$little2_prologTok 000000018003efa8     libexpat:xmltok.obj
 0002:0000cfc4       $chain$4$little2_prologTok 000000018003efc4     libexpat:xmltok.obj
 0002:0000cfe0       $unwind$big2_attributeValueTok 000000018003efe0     libexpat:xmltok.obj
 0002:0000cfe0       $unwind$little2_attributeValueTok 000000018003efe0     libexpat:xmltok.obj
 0002:0000cfe8       $chain$3$little2_attributeValueTok 000000018003efe8     libexpat:xmltok.obj
 0002:0000d008       $chain$5$little2_attributeValueTok 000000018003f008     libexpat:xmltok.obj
 0002:0000d028       $unwind$wctomb_s           000000018003f028     libucrt:wctomb.obj
 0002:0000d028       $unwind$fflush             000000018003f028     libucrt:fflush.obj
 0002:0000d028       $unwind$_invalid_parameter_noinfo 000000018003f028     libucrt:invalid_parameter.obj
 0002:0000d028       $unwind$_itow_s            000000018003f028     libucrt:xtoa.obj
 0002:0000d028       $unwind$strtol             000000018003f028     libucrt:strtox.obj
 0002:0000d028       $unwind$little2_entityValueTok 000000018003f028     libexpat:xmltok.obj
 0002:0000d028       $unwind$_log10_special     000000018003f028     libucrt:log_special.obj
 0002:0000d028       $unwind$wcstol             000000018003f028     libucrt:strtox.obj
 0002:0000d030       $chain$5$little2_entityValueTok 000000018003f030     libexpat:xmltok.obj
 0002:0000d058       $chain$7$little2_entityValueTok 000000018003f058     libexpat:xmltok.obj
 0002:0000d080       $unwind$big2_ignoreSectionTok 000000018003f080     libexpat:xmltok.obj
 0002:0000d080       $unwind$little2_ignoreSectionTok 000000018003f080     libexpat:xmltok.obj
 0002:0000d08c       $chain$0$big2_cdataSectionTok 000000018003f08c     libexpat:xmltok.obj
 0002:0000d0a0       $chain$8$big2_cdataSectionTok 000000018003f0a0     libexpat:xmltok.obj
 0002:0000d0a0       $chain$2$big2_cdataSectionTok 000000018003f0a0     libexpat:xmltok.obj
 0002:0000d0a0       $chain$10$big2_cdataSectionTok 000000018003f0a0     libexpat:xmltok.obj
 0002:0000d0a0       $chain$14$big2_cdataSectionTok 000000018003f0a0     libexpat:xmltok.obj
 0002:0000d0a0       $chain$4$big2_cdataSectionTok 000000018003f0a0     libexpat:xmltok.obj
 0002:0000d0a0       $chain$6$big2_cdataSectionTok 000000018003f0a0     libexpat:xmltok.obj
 0002:0000d0a0       $chain$12$big2_cdataSectionTok 000000018003f0a0     libexpat:xmltok.obj
 0002:0000d0b4       $chain$0$big2_scanRef      000000018003f0b4     libexpat:xmltok.obj
 0002:0000d0c8       $chain$8$big2_scanRef      000000018003f0c8     libexpat:xmltok.obj
 0002:0000d0c8       $chain$6$big2_scanRef      000000018003f0c8     libexpat:xmltok.obj
 0002:0000d0c8       $chain$4$big2_scanRef      000000018003f0c8     libexpat:xmltok.obj
 0002:0000d0c8       $chain$2$big2_scanRef      000000018003f0c8     libexpat:xmltok.obj
 0002:0000d0dc       $chain$9$big2_scanRef      000000018003f0dc     libexpat:xmltok.obj
 0002:0000d0ec       $chain$1$big2_contentTok   000000018003f0ec     libexpat:xmltok.obj
 0002:0000d104       $chain$15$big2_contentTok  000000018003f104     libexpat:xmltok.obj
 0002:0000d104       $chain$17$big2_contentTok  000000018003f104     libexpat:xmltok.obj
 0002:0000d104       $chain$3$big2_contentTok   000000018003f104     libexpat:xmltok.obj
 0002:0000d104       $chain$5$big2_contentTok   000000018003f104     libexpat:xmltok.obj
 0002:0000d104       $chain$7$big2_contentTok   000000018003f104     libexpat:xmltok.obj
 0002:0000d104       $chain$9$big2_contentTok   000000018003f104     libexpat:xmltok.obj
 0002:0000d104       $chain$11$big2_contentTok  000000018003f104     libexpat:xmltok.obj
 0002:0000d104       $chain$13$big2_contentTok  000000018003f104     libexpat:xmltok.obj
 0002:0000d104       $chain$19$big2_contentTok  000000018003f104     libexpat:xmltok.obj
 0002:0000d11c       $chain$20$big2_contentTok  000000018003f11c     libexpat:xmltok.obj
 0002:0000d12c       $chain$0$big2_scanPercent  000000018003f12c     libexpat:xmltok.obj
 0002:0000d140       $chain$2$big2_scanPercent  000000018003f140     libexpat:xmltok.obj
 0002:0000d140       $chain$4$big2_scanPercent  000000018003f140     libexpat:xmltok.obj
 0002:0000d140       $chain$6$big2_scanPercent  000000018003f140     libexpat:xmltok.obj
 0002:0000d140       $chain$8$big2_scanPercent  000000018003f140     libexpat:xmltok.obj
 0002:0000d154       $chain$9$big2_scanPercent  000000018003f154     libexpat:xmltok.obj
 0002:0000d164       $chain$0$big2_scanPoundName 000000018003f164     libexpat:xmltok.obj
 0002:0000d178       $chain$2$big2_scanPoundName 000000018003f178     libexpat:xmltok.obj
 0002:0000d178       $chain$6$big2_scanPoundName 000000018003f178     libexpat:xmltok.obj
 0002:0000d178       $chain$4$big2_scanPoundName 000000018003f178     libexpat:xmltok.obj
 0002:0000d18c       $chain$7$big2_scanPoundName 000000018003f18c     libexpat:xmltok.obj
 0002:0000d19c       $chain$2$big2_prologTok    000000018003f19c     libexpat:xmltok.obj
 0002:0000d1b8       $chain$4$big2_prologTok    000000018003f1b8     libexpat:xmltok.obj
 0002:0000d1d4       $chain$3$big2_attributeValueTok 000000018003f1d4     libexpat:xmltok.obj
 0002:0000d1f4       $chain$5$big2_attributeValueTok 000000018003f1f4     libexpat:xmltok.obj
 0002:0000d214       $unwind$?__mbrtowc_utf8@__crt_mbstring@@YA_KPEA_WPEBD_KPEAU_Mbstatet@@@Z 000000018003f214     libucrt:mbrtowc.obj
 0002:0000d214       $unwind$big2_entityValueTok 000000018003f214     libexpat:xmltok.obj
 0002:0000d214       $unwind$??$common_xtox_s@K_W@@YAHKQEA_W_KI_N@Z 000000018003f214     libucrt:xtoa.obj
 0002:0000d21c       $chain$4$big2_entityValueTok 000000018003f21c     libexpat:xmltok.obj
 0002:0000d240       $chain$6$big2_entityValueTok 000000018003f240     libexpat:xmltok.obj
 0002:0000d264       $unwind$toAscii            000000018003f264     libexpat:xmltok.obj
 0002:0000d26c       $unwind$parsePseudoAttribute 000000018003f26c     libexpat:xmltok.obj
 0002:0000d27c       $chain$0$parsePseudoAttribute 000000018003f27c     libexpat:xmltok.obj
 0002:0000d290       $chain$4$parsePseudoAttribute 000000018003f290     libexpat:xmltok.obj
 0002:0000d290       $chain$2$parsePseudoAttribute 000000018003f290     libexpat:xmltok.obj
 0002:0000d2a4       $unwind$doParseXmlDecl     000000018003f2a4     libexpat:xmltok.obj
 0002:0000d2bc       $unwind$XmlInitUnknownEncoding 000000018003f2bc     libexpat:xmltok.obj
 0002:0000d2d8       $unwind$getEncodingIndex   000000018003f2d8     libexpat:xmltok.obj
 0002:0000d2e0       $chain$2$getEncodingIndex  000000018003f2e0     libexpat:xmltok.obj
 0002:0000d2fc       $chain$4$getEncodingIndex  000000018003f2fc     libexpat:xmltok.obj
 0002:0000d318       $chain$0$initScanProlog    000000018003f318     libexpat:xmltok.obj
 0002:0000d32c       $chain$10$initScanProlog   000000018003f32c     libexpat:xmltok.obj
 0002:0000d32c       $chain$12$initScanProlog   000000018003f32c     libexpat:xmltok.obj
 0002:0000d32c       $chain$2$initScanProlog    000000018003f32c     libexpat:xmltok.obj
 0002:0000d32c       $chain$6$initScanProlog    000000018003f32c     libexpat:xmltok.obj
 0002:0000d32c       $chain$4$initScanProlog    000000018003f32c     libexpat:xmltok.obj
 0002:0000d32c       $chain$8$initScanProlog    000000018003f32c     libexpat:xmltok.obj
 0002:0000d340       $unwind$initScanContent    000000018003f340     libexpat:xmltok.obj
 0002:0000d340       $unwind$initScanContentNS  000000018003f340     libexpat:xmltok.obj
 0002:0000d340       $unwind$__GSHandlerCheckCommon 000000018003f340     LIBCMT:gshandler.obj
 0002:0000d340       $unwind$__acrt_WideCharToMultiByte 000000018003f340     libucrt:widechartomultibyte.obj
 0002:0000d348       $unwind$findEncodingNS     000000018003f348     libexpat:xmltok.obj
 0002:0000d348       $unwind$findEncoding       000000018003f348     libexpat:xmltok.obj
 0002:0000d364       $unwind$XmlParseXmlDeclNS  000000018003f364     libexpat:xmltok.obj
 0002:0000d364       $unwind$XmlParseXmlDecl    000000018003f364     libexpat:xmltok.obj
 0002:0000d36c       $chain$0$initScanPrologNS  000000018003f36c     libexpat:xmltok.obj
 0002:0000d380       $chain$4$initScanPrologNS  000000018003f380     libexpat:xmltok.obj
 0002:0000d380       $chain$10$initScanPrologNS 000000018003f380     libexpat:xmltok.obj
 0002:0000d380       $chain$8$initScanPrologNS  000000018003f380     libexpat:xmltok.obj
 0002:0000d380       $chain$12$initScanPrologNS 000000018003f380     libexpat:xmltok.obj
 0002:0000d380       $chain$2$initScanPrologNS  000000018003f380     libexpat:xmltok.obj
 0002:0000d380       $chain$6$initScanPrologNS  000000018003f380     libexpat:xmltok.obj
 0002:0000d394       $chain$0$doctype1          000000018003f394     libexpat:xmlrole.obj
 0002:0000d3a8       $chain$1$doctype1          000000018003f3a8     libexpat:xmlrole.obj
 0002:0000d3a8       $chain$3$doctype1          000000018003f3a8     libexpat:xmlrole.obj
 0002:0000d3b8       $chain$2$doctype1          000000018003f3b8     libexpat:xmlrole.obj
 0002:0000d3cc       $chain$0$entity2           000000018003f3cc     libexpat:xmlrole.obj
 0002:0000d3e0       $chain$1$entity2           000000018003f3e0     libexpat:xmlrole.obj
 0002:0000d3e0       $chain$3$entity2           000000018003f3e0     libexpat:xmlrole.obj
 0002:0000d3f0       $chain$2$entity2           000000018003f3f0     libexpat:xmlrole.obj
 0002:0000d404       $chain$0$entity7           000000018003f404     libexpat:xmlrole.obj
 0002:0000d418       $chain$3$entity7           000000018003f418     libexpat:xmlrole.obj
 0002:0000d418       $chain$1$entity7           000000018003f418     libexpat:xmlrole.obj
 0002:0000d428       $chain$2$entity7           000000018003f428     libexpat:xmlrole.obj
 0002:0000d43c       $chain$0$notation1         000000018003f43c     libexpat:xmlrole.obj
 0002:0000d450       $chain$3$notation1         000000018003f450     libexpat:xmlrole.obj
 0002:0000d450       $chain$1$notation1         000000018003f450     libexpat:xmlrole.obj
 0002:0000d460       $chain$2$notation1         000000018003f460     libexpat:xmlrole.obj
 0002:0000d474       $unwind$attlist2           000000018003f474     libexpat:xmlrole.obj
 0002:0000d484       $chain$3$attlist2          000000018003f484     libexpat:xmlrole.obj
 0002:0000d4a4       $chain$5$attlist2          000000018003f4a4     libexpat:xmlrole.obj
 0002:0000d4c4       $chain$6$attlist2          000000018003f4c4     libexpat:xmlrole.obj
 0002:0000d4d4       $chain$0$attlist8          000000018003f4d4     libexpat:xmlrole.obj
 0002:0000d4e8       $chain$1$attlist8          000000018003f4e8     libexpat:xmlrole.obj
 0002:0000d4e8       $chain$3$attlist8          000000018003f4e8     libexpat:xmlrole.obj
 0002:0000d4f8       $chain$2$attlist8          000000018003f4f8     libexpat:xmlrole.obj
 0002:0000d50c       $chain$0$element1          000000018003f50c     libexpat:xmlrole.obj
 0002:0000d520       $chain$3$element1          000000018003f520     libexpat:xmlrole.obj
 0002:0000d520       $chain$1$element1          000000018003f520     libexpat:xmlrole.obj
 0002:0000d530       $chain$2$element1          000000018003f530     libexpat:xmlrole.obj
 0002:0000d544       $chain$0$condSect0         000000018003f544     libexpat:xmlrole.obj
 0002:0000d558       $chain$3$condSect0         000000018003f558     libexpat:xmlrole.obj
 0002:0000d558       $chain$1$condSect0         000000018003f558     libexpat:xmlrole.obj
 0002:0000d568       $chain$2$condSect0         000000018003f568     libexpat:xmlrole.obj
 0002:0000d57c       xdata                      000000018003f57c     node:node.exe
 0002:0000d588       $xdatasym                  000000018003f588     LIBCMT:amdsecgs.obj
 0002:0000d58c       $unwind$?dllmain_crt_process_attach@@YAHQEAUHINSTANCE__@@QEAX@Z 000000018003f58c     LIBCMT:dll_dllmain.obj
 0002:0000d5c8       $unwind$?fin$0@?0???$?RV<lambda_c376a267cfb53b6959b3b692ec76b120>@@AEAV<lambda_9a32fed5bf61b6b509b2d3f6003082a1>@@V<lambda_572fbb9fa0ab338edf41edfd4b5fcc8d>@@@?$__crt_seh_guarded_call@H@@QEAAH$$QEAV<lambda_c376a267cfb53b6959b3b692ec76b120>@@AEAV<lambda_9a32fed5bf61b6b509b2d3f6003082a1>@@$$QEAV<lambda_572fbb9fa0ab338edf41edfd4b5fcc8d>@@@Z@4HA 000000018003f5c8     libucrt:fflush.obj
 0002:0000d5c8       $unwind$?fin$0@?0???$?RV<lambda_0d412022a4b28cc8a401ea49574e8ae6>@@AEAV<lambda_a775ed57af18ba8e4d5dc780aa9068fe>@@V<lambda_975a71a6baa488a08f4e15f6b0339b9e>@@@?$__crt_seh_guarded_call@H@@QEAAH$$QEAV<lambda_0d412022a4b28cc8a401ea49574e8ae6>@@AEAV<lambda_a775ed57af18ba8e4d5dc780aa9068fe>@@$$QEAV<lambda_975a71a6baa488a08f4e15f6b0339b9e>@@@Z@4HA 000000018003f5c8     libucrt:output.obj
 0002:0000d5c8       $unwind$?fin$0@?0???$?RV<lambda_886d6c58226a84441f68b9f2b8217b83>@@AEAV<lambda_ab61a845afdef5b7c387490eaf3616ee>@@V<lambda_f7f22ab5edc0698d5f6905b0d3f44752>@@@?$__crt_seh_guarded_call@X@@QEAAX$$QEAV<lambda_886d6c58226a84441f68b9f2b8217b83>@@AEAV<lambda_ab61a845afdef5b7c387490eaf3616ee>@@$$QEAV<lambda_f7f22ab5edc0698d5f6905b0d3f44752>@@@Z@4HA 000000018003f5c8     libucrt:fflush.obj
 0002:0000d5c8       $unwind$?fin$0@?0???$?RV<lambda_410d79af7f07d98d83a3f525b3859a53>@@AEAV<lambda_3e16ef9562a7dcce91392c22ab16ea36>@@V<lambda_38119f0e861e05405d8a144b9b982f0a>@@@?$__crt_seh_guarded_call@X@@QEAAX$$QEAV<lambda_410d79af7f07d98d83a3f525b3859a53>@@AEAV<lambda_3e16ef9562a7dcce91392c22ab16ea36>@@$$QEAV<lambda_38119f0e861e05405d8a144b9b982f0a>@@@Z@4HA 000000018003f5c8     libucrt:wsetlocale.obj
 0002:0000d5c8       $unwind$?fin$0@?0???$?RV<lambda_2d41944a1d46af3157314b8a01080d33>@@AEAV<lambda_8f455de75cd7d7f24b4096f044d8b9e6>@@V<lambda_aa500f224e6afead328df44964fe2772>@@@?$__crt_seh_guarded_call@X@@QEAAX$$QEAV<lambda_2d41944a1d46af3157314b8a01080d33>@@AEAV<lambda_8f455de75cd7d7f24b4096f044d8b9e6>@@$$QEAV<lambda_aa500f224e6afead328df44964fe2772>@@@Z@4HA 000000018003f5c8     libucrt:per_thread_data.obj
 0002:0000d5c8       $unwind$?fin$0@?0???$?RV<lambda_84ec643ea9557e2f7dc01bb0e9624395>@@AEAV<lambda_ca71763b3c0644891230e4f79ea54fa6>@@V<lambda_439a761618c59b0600e24586724d733b>@@@?$__crt_seh_guarded_call@H@@QEAAH$$QEAV<lambda_84ec643ea9557e2f7dc01bb0e9624395>@@AEAV<lambda_ca71763b3c0644891230e4f79ea54fa6>@@$$QEAV<lambda_439a761618c59b0600e24586724d733b>@@@Z@4HA 000000018003f5c8     libucrt:setvbuf.obj
 0002:0000d5c8       $unwind$?fin$0@?0???$?RV<lambda_a62c933ada0517137acf5807a1eeac1f>@@AEAV<lambda_a31071773b9a94e445cbd5d04ef99106>@@V<lambda_56065050dbf3ada7e59a83db45153de3>@@@?$__crt_seh_guarded_call@H@@QEAAH$$QEAV<lambda_a62c933ada0517137acf5807a1eeac1f>@@AEAV<lambda_a31071773b9a94e445cbd5d04ef99106>@@$$QEAV<lambda_56065050dbf3ada7e59a83db45153de3>@@@Z@4HA 000000018003f5c8     libucrt:output.obj
 0002:0000d5c8       $unwind$?fin$0@?0???$?RV<lambda_a37b2b86f63e897a80ea819b0eb08c01>@@AEAV<lambda_38ce7e780aa69e748d6df282ebc68efe>@@V<lambda_99fb1378e971ab6e7edea83e3a7a83a2>@@@?$__crt_seh_guarded_call@H@@QEAAH$$QEAV<lambda_a37b2b86f63e897a80ea819b0eb08c01>@@AEAV<lambda_38ce7e780aa69e748d6df282ebc68efe>@@$$QEAV<lambda_99fb1378e971ab6e7edea83e3a7a83a2>@@@Z@4HA 000000018003f5c8     libucrt:commit.obj
 0002:0000d5c8       $unwind$fclose$fin$0       000000018003f5c8     libucrt:fclose.obj
 0002:0000d5c8       $unwind$_query_new_handler$fin$0 000000018003f5c8     libucrt:new_handler.obj
 0002:0000d5c8       $unwind$?fin$0@?0??dllmain_crt_process_attach@@YAHQEAUHINSTANCE__@@QEAX@Z@4HA 000000018003f5c8     LIBCMT:dll_dllmain.obj
 0002:0000d5c8       $unwind$_ctrlfp$filt$0     000000018003f5c8     libucrt:fpctrl.obj
 0002:0000d5c8       $unwind$?fin$0@?0???$?RV<lambda_aa87e3671a710a21b5dc78c0bdf72e11>@@AEAV<lambda_92619d2358a28f41a33ba319515a20b9>@@V<lambda_6992ecaafeb10aed2b74cb1fae11a551>@@@?$__crt_seh_guarded_call@X@@QEAAX$$QEAV<lambda_aa87e3671a710a21b5dc78c0bdf72e11>@@AEAV<lambda_92619d2358a28f41a33ba319515a20b9>@@$$QEAV<lambda_6992ecaafeb10aed2b74cb1fae11a551>@@@Z@4HA 000000018003f5c8     libucrt:per_thread_data.obj
 0002:0000d5c8       $unwind$__acrt_lowio_ensure_fh_exists$fin$0 000000018003f5c8     libucrt:osfinfo.obj
 0002:0000d5c8       $unwind$_fcloseall$fin$0   000000018003f5c8     libucrt:closeall.obj
 0002:0000d5c8       $unwind$?fin$0@?0???$?RV<lambda_0ae27a3a962d80f24befdcbee591983d>@@AEAV<lambda_8d0ee55de4b1038c4002e0adecdf1839>@@V<lambda_dc504788e8f1664fe9b84e20bfb512f2>@@@?$__crt_seh_guarded_call@X@@QEAAX$$QEAV<lambda_0ae27a3a962d80f24befdcbee591983d>@@AEAV<lambda_8d0ee55de4b1038c4002e0adecdf1839>@@$$QEAV<lambda_dc504788e8f1664fe9b84e20bfb512f2>@@@Z@4HA 000000018003f5c8     libucrt:per_thread_data.obj
 0002:0000d5c8       $unwind$?fin$0@?0???$?RV<lambda_751a882b2c74d4b022dec766aa51a29a>@@AEAV<lambda_628dfdc04ba53c8bfc02c9951375f3f5>@@V<lambda_f6c7be5f7998530c34de24c7437d6b54>@@@?$__crt_seh_guarded_call@H@@QEAAH$$QEAV<lambda_751a882b2c74d4b022dec766aa51a29a>@@AEAV<lambda_628dfdc04ba53c8bfc02c9951375f3f5>@@$$QEAV<lambda_f6c7be5f7998530c34de24c7437d6b54>@@@Z@4HA 000000018003f5c8     libucrt:close.obj
 0002:0000d5c8       $unwind$raise$fin$0        000000018003f5c8     libucrt:signal.obj
 0002:0000d5c8       $unwind$__DestructExceptionObject$filt$0 000000018003f5c8     libvcruntime:ehhelpers.obj
 0002:0000d5c8       $unwind$_write$fin$0       000000018003f5c8     libucrt:write.obj
 0002:0000d5c8       $unwind$?fin$0@?0???$common_lseek@_J@@YA_JH_JH@Z@4HA 000000018003f5c8     libucrt:lseek.obj
 0002:0000d5c8       $unwind$?fin$0@?0???$?RV<lambda_842d9ff0dc9ef11c61343bbaebe7f885>@@AEAV<lambda_c5860995281e5c4ce005b3de8f5874ee>@@V<lambda_d90129c13df834fdcbf8d2b88dafcf2d>@@@?$__crt_seh_guarded_call@X@@QEAAX$$QEAV<lambda_842d9ff0dc9ef11c61343bbaebe7f885>@@AEAV<lambda_c5860995281e5c4ce005b3de8f5874ee>@@$$QEAV<lambda_d90129c13df834fdcbf8d2b88dafcf2d>@@@Z@4HA 000000018003f5c8     libucrt:fflush.obj
 0002:0000d5c8       $unwind$?fin$0@?0???$common_getenv@D@@YAPEADQEBD@Z@4HA 000000018003f5c8     libucrt:getenv.obj
 0002:0000d5c8       $unwind$?fin$0@?0???$?RV<lambda_450d765d439847d4c735a33c368b5fc0>@@AEAV<lambda_44731a7d0e6d81c3e6aa82d741081786>@@V<lambda_601a2a7da3b7a96e9554ac7215c4b07c>@@@?$__crt_seh_guarded_call@P6AXH@Z@@QEAAP6AXH@Z$$QEAV<lambda_450d765d439847d4c735a33c368b5fc0>@@AEAV<lambda_44731a7d0e6d81c3e6aa82d741081786>@@$$QEAV<lambda_601a2a7da3b7a96e9554ac7215c4b07c>@@@Z@4HA 000000018003f5c8     libucrt:signal.obj
 0002:0000d5c8       $unwind$_IsNonwritableInCurrentImage$filt$0 000000018003f5c8     LIBCMT:pesect.obj
 0002:0000d5c8       $unwind$?fin$0@?0???$?RV<lambda_efdfa57d1f175319df784efa44bb7b81>@@AEAV<lambda_5f0a4c1567f8adc6734073e5d1e1b35c>@@V<lambda_2e8a7d3640ea6ccb4c2413664c2db6fd>@@@?$__crt_seh_guarded_call@X@@QEAAX$$QEAV<lambda_efdfa57d1f175319df784efa44bb7b81>@@AEAV<lambda_5f0a4c1567f8adc6734073e5d1e1b35c>@@$$QEAV<lambda_2e8a7d3640ea6ccb4c2413664c2db6fd>@@@Z@4HA 000000018003f5c8     libucrt:mbctype.obj
 0002:0000d5c8       $unwind$__acrt_update_thread_locale_data$fin$0 000000018003f5c8     libucrt:locale_refcounting.obj
 0002:0000d5c8       $unwind$?fin$0@?0??dllmain_crt_process_detach@@YAH_N@Z@4HA 000000018003f5c8     LIBCMT:dll_dllmain.obj
 0002:0000d5c8       $unwind$?fin$0@?0??update_thread_multibyte_data_internal@@YAPEAU__crt_multibyte_data@@QEAU__acrt_ptd@@QEAPEAU1@@Z@4HA 000000018003f5c8     libucrt:mbctype.obj
 0002:0000d5c8       $unwind$?fin$0@?0???$?RV<lambda_d80eeec6fff315bfe5c115232f3240e3>@@AEAV<lambda_6e4b09c48022b2350581041d5f6b0c4c>@@V<lambda_2358e3775559c9db80273638284d5e45>@@@?$__crt_seh_guarded_call@X@@QEAAX$$QEAV<lambda_d80eeec6fff315bfe5c115232f3240e3>@@AEAV<lambda_6e4b09c48022b2350581041d5f6b0c4c>@@$$QEAV<lambda_2358e3775559c9db80273638284d5e45>@@@Z@4HA 000000018003f5c8     libucrt:exit.obj
 0002:0000d5c8       $unwind$__acrt_initialize_lowio$fin$0 000000018003f5c8     libucrt:ioinit.obj
 0002:0000d5c8       $unwind$?filt$0@?0???R<lambda_6e4b09c48022b2350581041d5f6b0c4c>@@QEBA@XZ@4HA 000000018003f5c8     libucrt:exit.obj
 0002:0000d5c8       $unwind$?fin$0@?0???$?RV<lambda_f2e299630e499de9f9a165e60fcd3db5>@@AEAV<lambda_2ae9d31cdba2644fcbeaf08da7c24588>@@V<lambda_40d01ff24d0e7b3814fdbdcee8eab3c7>@@@?$__crt_seh_guarded_call@X@@QEAAX$$QEAV<lambda_f2e299630e499de9f9a165e60fcd3db5>@@AEAV<lambda_2ae9d31cdba2644fcbeaf08da7c24588>@@$$QEAV<lambda_40d01ff24d0e7b3814fdbdcee8eab3c7>@@@Z@4HA 000000018003f5c8     libucrt:per_thread_data.obj
 0002:0000d5c8       $unwind$?fin$0@?0???$?RV<lambda_7777bce6b2f8c936911f934f8298dc43>@@AEAV<lambda_f03950bc5685219e0bcd2087efbe011e>@@V<lambda_3883c3dff614d5e0c5f61bb1ac94921c>@@@?$__crt_seh_guarded_call@H@@QEAAH$$QEAV<lambda_7777bce6b2f8c936911f934f8298dc43>@@AEAV<lambda_f03950bc5685219e0bcd2087efbe011e>@@$$QEAV<lambda_3883c3dff614d5e0c5f61bb1ac94921c>@@@Z@4HA 000000018003f5c8     libucrt:onexit.obj
 0002:0000d5d0       $unwind$?dllmain_crt_process_detach@@YAH_N@Z 000000018003f5d0     LIBCMT:dll_dllmain.obj
 0002:0000d608       $unwind$?dllmain_dispatch@@YAHQEAUHINSTANCE__@@KQEAX@Z 000000018003f608     LIBCMT:dll_dllmain.obj
 0002:0000d630       $unwind$?filt$0@?0??dllmain_dispatch@@YAHQEAUHINSTANCE__@@KQEAX@Z@4HA 000000018003f630     LIBCMT:dll_dllmain.obj
 0002:0000d638       $unwind$__report_securityfailure 000000018003f638     LIBCMT:gs_report.obj
 0002:0000d640       $unwind$__report_gsfailure 000000018003f640     LIBCMT:gs_report.obj
 0002:0000d648       $unwind$capture_current_context 000000018003f648     LIBCMT:gs_report.obj
 0002:0000d654       $unwind$capture_previous_context 000000018003f654     LIBCMT:gs_report.obj
 0002:0000d660       $unwind$__security_init_cookie 000000018003f660     LIBCMT:gs_support.obj
 0002:0000d66c       $unwind$__scrt_is_nonwritable_in_current_image 000000018003f66c     LIBCMT:utility.obj
 0002:0000d68c       $unwind$__scrt_is_nonwritable_in_current_image$filt$0 000000018003f68c     LIBCMT:utility.obj
 0002:0000d694       $unwind$__scrt_fastfail    000000018003f694     LIBCMT:utility_desktop.obj
 0002:0000d6a4       $unwind$__isa_available_init 000000018003f6a4     LIBCMT:cpu_disp.obj
 0002:0000d6b8       $xdatasym                  000000018003f6b8     LIBCMT:guard_dispatch.obj
 0002:0000d6bc       $unwind$__C_specific_handler 000000018003f6bc     libvcruntime:riscchandler.obj
 0002:0000d6d8       $unwind$_CxxThrowException 000000018003f6d8     libvcruntime:throw.obj
 0002:0000d6e8       $xdatasym                  000000018003f6e8     libvcruntime:memset.obj
 0002:0000d6f8       $xdatasym                  000000018003f6f8     libvcruntime:notify.obj
 0002:0000d704       $unwind$__DestructExceptionObject 000000018003f704     libvcruntime:ehhelpers.obj
 0002:0000d724       $unwind$__vcrt_initialize_winapi_thunks 000000018003f724     libvcruntime:winapi_downlevel.obj
 0002:0000d724       $unwind$__acrt_initialize_winapi_thunks 000000018003f724     libucrt:winapi_thunks.obj
 0002:0000d72c       $unwind$__acrt_stdio_end_temporary_buffering_nolock 000000018003f72c     libucrt:_sftbuf.obj
 0002:0000d72c       $unwind$__vcrt_uninitialize_winapi_thunks 000000018003f72c     libvcruntime:winapi_downlevel.obj
 0002:0000d738       $xdatasym                  000000018003f738     libvcruntime:memcpy.obj
 0002:0000d748       $xdatasym                  000000018003f748     libvcruntime:handlers.obj
 0002:0000d758       $unwind$swprintf           000000018003f758     libucrt:assert.obj
 0002:0000d768       $unwind$??$common_assert_to_stderr@_W@@YAXQEB_W0I@Z 000000018003f768     libucrt:assert.obj
 0002:0000d784       $unwind$??$common_assert_to_message_box@_W@@YAXQEB_W0IQEAX@Z 000000018003f784     libucrt:assert.obj
 0002:0000d7a0       $unwind$??$common_assert_to_message_box_build_string@_W@@YAXQEA_W_KQEB_W2IQEAX@Z 000000018003f7a0     libucrt:assert.obj
 0002:0000d7c0       $unwind$??$initialize_environment_by_cloning_nolock@D@@YAHXZ 000000018003f7c0     libucrt:environment_initialization.obj
 0002:0000d7c0       $unwind$?x_ismbbtype_l@@YAHPEAU__crt_locale_pointers@@IHH@Z 000000018003f7c0     libucrt:ismbbyte.obj
 0002:0000d7c0       $unwind$_stricmp_l         000000018003f7c0     libucrt:stricmp.obj
 0002:0000d7d0       $unwind$__acrt_initialize_stdio 000000018003f7d0     libucrt:_file.obj
 0002:0000d7d0       $unwind$?initialize_stdio_handles_nolock@@YAXXZ 000000018003f7d0     libucrt:ioinit.obj
 0002:0000d7e8       $unwind$__stdio_common_vfprintf 000000018003f7e8     libucrt:output.obj
 0002:0000d7e8       $unwind$__stdio_common_vfwprintf 000000018003f7e8     libucrt:output.obj
 0002:0000d7f0       $unwind$??$common_vsprintf@Vstandard_base@__crt_stdio_output@@_W@@YAH_KQEA_W0QEB_WQEAU__crt_locale_pointers@@QEAD@Z 000000018003f7f0     libucrt:output.obj
 0002:0000d810       $unwind$?write_string_impl@?$output_adapter_common@DV?$stream_output_adapter@D@__crt_stdio_output@@@__crt_stdio_output@@IEBAXQEBDHQEAHAEAV__crt_deferred_errno_cache@@@Z 000000018003f810     libucrt:output.obj
 0002:0000d810       $unwind$?write_string_impl@?$output_adapter_common@_WV?$stream_output_adapter@_W@__crt_stdio_output@@@__crt_stdio_output@@IEBAXQEB_WHQEAHAEAV__crt_deferred_errno_cache@@@Z 000000018003f810     libucrt:output.obj
 0002:0000d810       $unwind$??$parse_command_line@D@@YAXPEADPEAPEAD0PEA_K2@Z 000000018003f810     libucrt:argv_parsing.obj
 0002:0000d82c       $unwind$?process@?$output_processor@DV?$stream_output_adapter@D@__crt_stdio_output@@V?$standard_base@DV?$stream_output_adapter@D@__crt_stdio_output@@@2@@__crt_stdio_output@@QEAAHXZ 000000018003f82c     libucrt:output.obj
 0002:0000d83c       $unwind$?state_case_type@?$output_processor@DV?$stream_output_adapter@D@__crt_stdio_output@@V?$standard_base@DV?$stream_output_adapter@D@__crt_stdio_output@@@2@@__crt_stdio_output@@AEAA_NXZ 000000018003f83c     libucrt:output.obj
 0002:0000d854       $unwind$?write_stored_string_tchar@?$output_processor@DV?$stream_output_adapter@D@__crt_stdio_output@@V?$standard_base@DV?$stream_output_adapter@D@__crt_stdio_output@@@2@@__crt_stdio_output@@AEAA_ND@Z 000000018003f854     libucrt:output.obj
 0002:0000d86c       $unwind$??R<lambda_a31071773b9a94e445cbd5d04ef99106>@@QEBAHXZ 000000018003f86c     libucrt:output.obj
 0002:0000d86c       $unwind$??R<lambda_a775ed57af18ba8e4d5dc780aa9068fe>@@QEBAHXZ 000000018003f86c     libucrt:output.obj
 0002:0000d88c       $unwind$?state_case_type@?$output_processor@_WV?$stream_output_adapter@_W@__crt_stdio_output@@V?$standard_base@_WV?$stream_output_adapter@_W@__crt_stdio_output@@@2@@__crt_stdio_output@@AEAA_NXZ 000000018003f88c     libucrt:output.obj
 0002:0000d8ac       $unwind$?type_case_c_tchar@?$output_processor@_WV?$string_output_adapter@_W@__crt_stdio_output@@V?$standard_base@_WV?$string_output_adapter@_W@__crt_stdio_output@@@2@@__crt_stdio_output@@AEAA_N_W@Z 000000018003f8ac     libucrt:output.obj
 0002:0000d8ac       $unwind$?type_case_c_tchar@?$output_processor@_WV?$stream_output_adapter@_W@__crt_stdio_output@@V?$standard_base@_WV?$stream_output_adapter@_W@__crt_stdio_output@@@2@@__crt_stdio_output@@AEAA_N_W@Z 000000018003f8ac     libucrt:output.obj
 0002:0000d8bc       $unwind$?type_case_a@?$output_processor@_WV?$string_output_adapter@_W@__crt_stdio_output@@V?$standard_base@_WV?$string_output_adapter@_W@__crt_stdio_output@@@2@@__crt_stdio_output@@AEAA_NXZ 000000018003f8bc     libucrt:output.obj
 0002:0000d8bc       $unwind$?type_case_a@?$output_processor@_WV?$stream_output_adapter@_W@__crt_stdio_output@@V?$standard_base@_WV?$stream_output_adapter@_W@__crt_stdio_output@@@2@@__crt_stdio_output@@AEAA_NXZ 000000018003f8bc     libucrt:output.obj
 0002:0000d8cc       $unwind$?write_stored_string_tchar@?$output_processor@_WV?$stream_output_adapter@_W@__crt_stdio_output@@V?$standard_base@_WV?$stream_output_adapter@_W@__crt_stdio_output@@@2@@__crt_stdio_output@@AEAA_N_W@Z 000000018003f8cc     libucrt:output.obj
 0002:0000d8e0       $unwind$?write_string@?$string_output_adapter@_W@__crt_stdio_output@@QEBAXQEB_WHQEAHAEAV__crt_deferred_errno_cache@@@Z 000000018003f8e0     libucrt:output.obj
 0002:0000d8f8       $unwind$?state_case_type@?$output_processor@_WV?$string_output_adapter@_W@__crt_stdio_output@@V?$standard_base@_WV?$string_output_adapter@_W@__crt_stdio_output@@@2@@__crt_stdio_output@@AEAA_NXZ 000000018003f8f8     libucrt:output.obj
 0002:0000d91c       $unwind$?write_stored_string_tchar@?$output_processor@_WV?$string_output_adapter@_W@__crt_stdio_output@@V?$standard_base@_WV?$string_output_adapter@_W@__crt_stdio_output@@@2@@__crt_stdio_output@@AEAA_N_W@Z 000000018003f91c     libucrt:output.obj
 0002:0000d930       $unwind$??$write_multiple_characters@V?$string_output_adapter@_W@__crt_stdio_output@@D@__crt_stdio_output@@YAXAEBV?$string_output_adapter@_W@0@DHQEAH@Z 000000018003f930     libucrt:output.obj
 0002:0000d93c       $unwind$??$write_multiple_characters@V?$stream_output_adapter@_W@__crt_stdio_output@@D@__crt_stdio_output@@YAXAEBV?$stream_output_adapter@_W@0@DHQEAH@Z 000000018003f93c     libucrt:output.obj
 0002:0000d93c       $unwind$??$write_multiple_characters@V?$stream_output_adapter@D@__crt_stdio_output@@D@__crt_stdio_output@@YAXAEBV?$stream_output_adapter@D@0@DHQEAH@Z 000000018003f93c     libucrt:output.obj
 0002:0000d954       $unwind$??$?RV<lambda_a62c933ada0517137acf5807a1eeac1f>@@AEAV<lambda_a31071773b9a94e445cbd5d04ef99106>@@V<lambda_56065050dbf3ada7e59a83db45153de3>@@@?$__crt_seh_guarded_call@H@@QEAAH$$QEAV<lambda_a62c933ada0517137acf5807a1eeac1f>@@AEAV<lambda_a31071773b9a94e445cbd5d04ef99106>@@$$QEAV<lambda_56065050dbf3ada7e59a83db45153de3>@@@Z 000000018003f954     libucrt:output.obj
 0002:0000d978       $unwind$??$?RV<lambda_0d412022a4b28cc8a401ea49574e8ae6>@@AEAV<lambda_a775ed57af18ba8e4d5dc780aa9068fe>@@V<lambda_975a71a6baa488a08f4e15f6b0339b9e>@@@?$__crt_seh_guarded_call@H@@QEAAH$$QEAV<lambda_0d412022a4b28cc8a401ea49574e8ae6>@@AEAV<lambda_a775ed57af18ba8e4d5dc780aa9068fe>@@$$QEAV<lambda_975a71a6baa488a08f4e15f6b0339b9e>@@@Z 000000018003f978     libucrt:output.obj
 0002:0000d99c       $unwind$??$common_getenv@D@@YAPEADQEBD@Z 000000018003f99c     libucrt:getenv.obj
 0002:0000d9bc       $unwind$_query_new_handler 000000018003f9bc     libucrt:new_handler.obj
 0002:0000d9dc       $unwind$?common_exit@@YAXHW4_crt_exit_cleanup_mode@@W4_crt_exit_return_mode@@@Z 000000018003f9dc     libucrt:exit.obj
 0002:0000d9e8       $unwind$??R<lambda_6e4b09c48022b2350581041d5f6b0c4c>@@QEBA@XZ 000000018003f9e8     libucrt:exit.obj
 0002:0000da08       $unwind$??$?RV<lambda_d80eeec6fff315bfe5c115232f3240e3>@@AEAV<lambda_6e4b09c48022b2350581041d5f6b0c4c>@@V<lambda_2358e3775559c9db80273638284d5e45>@@@?$__crt_seh_guarded_call@X@@QEAAX$$QEAV<lambda_d80eeec6fff315bfe5c115232f3240e3>@@AEAV<lambda_6e4b09c48022b2350581041d5f6b0c4c>@@$$QEAV<lambda_2358e3775559c9db80273638284d5e45>@@@Z 000000018003fa08     libucrt:exit.obj
 0002:0000da2c       $unwind$_configure_narrow_argv 000000018003fa2c     libucrt:argv_parsing.obj
 0002:0000da40       $unwind$??$free_environment@_W@@YAXQEAPEA_W@Z 000000018003fa40     libucrt:environment_initialization.obj
 0002:0000da40       $unwind$??$free_environment@D@@YAXQEAPEAD@Z 000000018003fa40     libucrt:environment_initialization.obj
 0002:0000da4c       $unwind$??$create_environment@D@@YAQEAPEADQEAD@Z 000000018003fa4c     libucrt:environment_initialization.obj
 0002:0000da64       $unwind$_execute_onexit_table 000000018003fa64     libucrt:onexit.obj
 0002:0000da6c       $unwind$??$?RV<lambda_7777bce6b2f8c936911f934f8298dc43>@@AEAV<lambda_f03950bc5685219e0bcd2087efbe011e>@@V<lambda_3883c3dff614d5e0c5f61bb1ac94921c>@@@?$__crt_seh_guarded_call@H@@QEAAH$$QEAV<lambda_7777bce6b2f8c936911f934f8298dc43>@@AEAV<lambda_f03950bc5685219e0bcd2087efbe011e>@@$$QEAV<lambda_3883c3dff614d5e0c5f61bb1ac94921c>@@@Z 000000018003fa6c     libucrt:onexit.obj
 0002:0000da90       $unwind$terminate          000000018003fa90     libucrt:terminate.obj
 0002:0000dab0       $unwind$??$parse_integer@KV?$c_string_character_source@D@__crt_strtox@@@__crt_strtox@@YAKQEAU__crt_locale_pointers@@V?$c_string_character_source@D@0@H_N@Z 000000018003fab0     libucrt:atox.obj
 0002:0000dacc       $unwind$??$parse_integer@KV?$c_string_character_source@_W@__crt_strtox@@@__crt_strtox@@YAKQEAU__crt_locale_pointers@@V?$c_string_character_source@_W@0@H_N@Z 000000018003facc     libucrt:atox.obj
 0002:0000dae8       $xdatasym                  000000018003fae8     libucrt:strncmp.obj
 0002:0000daec       $unwind$?destroy_fls@@YAXPEAX@Z 000000018003faec     libucrt:per_thread_data.obj
 0002:0000daec       $unwind$__acrt_locale_free_lc_time_if_unreferenced 000000018003faec     libucrt:locale_refcounting.obj
 0002:0000daec       $unwind$__acrt_locale_free_numeric 000000018003faec     libucrt:initnum.obj
 0002:0000daec       $unwind$_free_base         000000018003faec     libucrt:free_base.obj
 0002:0000daf4       $unwind$__acrt_call_reportfault 000000018003faf4     libucrt:invalid_parameter.obj
 0002:0000db14       $unwind$__acrt_MessageBoxW 000000018003fb14     libucrt:winapi_thunks.obj
 0002:0000db14       $unwind$_invalid_parameter 000000018003fb14     libucrt:invalid_parameter.obj
 0002:0000db28       $unwind$__acrt_GetModuleFileNameA 000000018003fb28     libucrt:getmodulefilenamea.obj
 0002:0000db44       $unwind$??$__acrt_wcs_to_mbs_cp@U__crt_win32_buffer_no_resizing@@@@YAHQEB_WAEAV?$__crt_win32_buffer@DU__crt_win32_buffer_no_resizing@@@@I@Z 000000018003fb44     libucrt:getmodulefilenamea.obj
 0002:0000db44       $unwind$_strnicmp_l        000000018003fb44     libucrt:strnicmp.obj
 0002:0000db44       $unwind$__dcrt_write_console 000000018003fb44     libucrt:initcon.obj
 0002:0000db58       $unwind$?common_flush_all@@YAH_N@Z 000000018003fb58     libucrt:fflush.obj
 0002:0000db60       $unwind$??$?RV<lambda_842d9ff0dc9ef11c61343bbaebe7f885>@@AEAV<lambda_c5860995281e5c4ce005b3de8f5874ee>@@V<lambda_d90129c13df834fdcbf8d2b88dafcf2d>@@@?$__crt_seh_guarded_call@X@@QEAAX$$QEAV<lambda_842d9ff0dc9ef11c61343bbaebe7f885>@@AEAV<lambda_c5860995281e5c4ce005b3de8f5874ee>@@$$QEAV<lambda_d90129c13df834fdcbf8d2b88dafcf2d>@@@Z 000000018003fb60     libucrt:fflush.obj
 0002:0000db84       $unwind$??$?RV<lambda_886d6c58226a84441f68b9f2b8217b83>@@AEAV<lambda_ab61a845afdef5b7c387490eaf3616ee>@@V<lambda_f7f22ab5edc0698d5f6905b0d3f44752>@@@?$__crt_seh_guarded_call@X@@QEAAX$$QEAV<lambda_886d6c58226a84441f68b9f2b8217b83>@@AEAV<lambda_ab61a845afdef5b7c387490eaf3616ee>@@$$QEAV<lambda_f7f22ab5edc0698d5f6905b0d3f44752>@@@Z 000000018003fb84     libucrt:fflush.obj
 0002:0000dbac       $unwind$??$?RV<lambda_c376a267cfb53b6959b3b692ec76b120>@@AEAV<lambda_9a32fed5bf61b6b509b2d3f6003082a1>@@V<lambda_572fbb9fa0ab338edf41edfd4b5fcc8d>@@@?$__crt_seh_guarded_call@H@@QEAAH$$QEAV<lambda_c376a267cfb53b6959b3b692ec76b120>@@AEAV<lambda_9a32fed5bf61b6b509b2d3f6003082a1>@@$$QEAV<lambda_572fbb9fa0ab338edf41edfd4b5fcc8d>@@@Z 000000018003fbac     libucrt:fflush.obj
 0002:0000dbd0       $unwind$setvbuf            000000018003fbd0     libucrt:setvbuf.obj
 0002:0000dbd8       $unwind$??$?RV<lambda_84ec643ea9557e2f7dc01bb0e9624395>@@AEAV<lambda_ca71763b3c0644891230e4f79ea54fa6>@@V<lambda_439a761618c59b0600e24586724d733b>@@@?$__crt_seh_guarded_call@H@@QEAAH$$QEAV<lambda_84ec643ea9557e2f7dc01bb0e9624395>@@AEAV<lambda_ca71763b3c0644891230e4f79ea54fa6>@@$$QEAV<lambda_439a761618c59b0600e24586724d733b>@@@Z 000000018003fbd8     libucrt:setvbuf.obj
 0002:0000dbfc       $unwind$__acrt_uninitialize_locale 000000018003fbfc     libucrt:wsetlocale.obj
 0002:0000dbfc       $unwind$__acrt_get_sigabrt_handler 000000018003fbfc     libucrt:signal.obj
 0002:0000dc04       $unwind$raise              000000018003fc04     libucrt:signal.obj
 0002:0000dc40       $unwind$??$?RV<lambda_450d765d439847d4c735a33c368b5fc0>@@AEAV<lambda_44731a7d0e6d81c3e6aa82d741081786>@@V<lambda_601a2a7da3b7a96e9554ac7215c4b07c>@@@?$__crt_seh_guarded_call@P6AXH@Z@@QEAAP6AXH@Z$$QEAV<lambda_450d765d439847d4c735a33c368b5fc0>@@AEAV<lambda_44731a7d0e6d81c3e6aa82d741081786>@@$$QEAV<lambda_601a2a7da3b7a96e9554ac7215c4b07c>@@@Z 000000018003fc40     libucrt:signal.obj
 0002:0000dc64       $unwind$_tolower_l         000000018003fc64     libucrt:tolower_toupper.obj
 0002:0000dc74       $unwind$?construct_ptd_array@@YAXQEAU__acrt_ptd@@@Z 000000018003fc74     libucrt:per_thread_data.obj
 0002:0000dc7c       $unwind$?destroy_ptd_array@@YAXQEAU__acrt_ptd@@@Z 000000018003fc7c     libucrt:per_thread_data.obj
 0002:0000dc84       $unwind$??$?RV<lambda_0ae27a3a962d80f24befdcbee591983d>@@AEAV<lambda_8d0ee55de4b1038c4002e0adecdf1839>@@V<lambda_dc504788e8f1664fe9b84e20bfb512f2>@@@?$__crt_seh_guarded_call@X@@QEAAX$$QEAV<lambda_0ae27a3a962d80f24befdcbee591983d>@@AEAV<lambda_8d0ee55de4b1038c4002e0adecdf1839>@@$$QEAV<lambda_dc504788e8f1664fe9b84e20bfb512f2>@@@Z 000000018003fc84     libucrt:per_thread_data.obj
 0002:0000dca8       $unwind$??$?RV<lambda_aa87e3671a710a21b5dc78c0bdf72e11>@@AEAV<lambda_92619d2358a28f41a33ba319515a20b9>@@V<lambda_6992ecaafeb10aed2b74cb1fae11a551>@@@?$__crt_seh_guarded_call@X@@QEAAX$$QEAV<lambda_aa87e3671a710a21b5dc78c0bdf72e11>@@AEAV<lambda_92619d2358a28f41a33ba319515a20b9>@@$$QEAV<lambda_6992ecaafeb10aed2b74cb1fae11a551>@@@Z 000000018003fca8     libucrt:per_thread_data.obj
 0002:0000dccc       $unwind$??$?RV<lambda_f2e299630e499de9f9a165e60fcd3db5>@@AEAV<lambda_2ae9d31cdba2644fcbeaf08da7c24588>@@V<lambda_40d01ff24d0e7b3814fdbdcee8eab3c7>@@@?$__crt_seh_guarded_call@X@@QEAAX$$QEAV<lambda_f2e299630e499de9f9a165e60fcd3db5>@@AEAV<lambda_2ae9d31cdba2644fcbeaf08da7c24588>@@$$QEAV<lambda_40d01ff24d0e7b3814fdbdcee8eab3c7>@@@Z 000000018003fccc     libucrt:per_thread_data.obj
 0002:0000dcf0       $unwind$??$?RV<lambda_2d41944a1d46af3157314b8a01080d33>@@AEAV<lambda_8f455de75cd7d7f24b4096f044d8b9e6>@@V<lambda_aa500f224e6afead328df44964fe2772>@@@?$__crt_seh_guarded_call@X@@QEAAX$$QEAV<lambda_2d41944a1d46af3157314b8a01080d33>@@AEAV<lambda_8f455de75cd7d7f24b4096f044d8b9e6>@@$$QEAV<lambda_aa500f224e6afead328df44964fe2772>@@@Z 000000018003fcf0     libucrt:per_thread_data.obj
 0002:0000dd14       $unwind$??$?RV<lambda_410d79af7f07d98d83a3f525b3859a53>@@AEAV<lambda_3e16ef9562a7dcce91392c22ab16ea36>@@V<lambda_38119f0e861e05405d8a144b9b982f0a>@@@?$__crt_seh_guarded_call@X@@QEAAX$$QEAV<lambda_410d79af7f07d98d83a3f525b3859a53>@@AEAV<lambda_3e16ef9562a7dcce91392c22ab16ea36>@@$$QEAV<lambda_38119f0e861e05405d8a144b9b982f0a>@@@Z 000000018003fd14     libucrt:wsetlocale.obj
 0002:0000dd3c       $unwind$__acrt_LCMapStringEx 000000018003fd3c     libucrt:winapi_thunks.obj
 0002:0000dd3c       $unwind$_mbtowc_l          000000018003fd3c     libucrt:mbtowc.obj
 0002:0000dd3c       $unwind$?fp_format_e@@YAHQEBNQEAD_K12H_NIQEAU__crt_locale_pointers@@@Z 000000018003fd3c     libucrt:cvt.obj
 0002:0000dd3c       $unwind$__acrt_CompareStringEx 000000018003fd3c     libucrt:winapi_thunks.obj
 0002:0000dd50       $unwind$__acrt_is_interactive 000000018003fd50     libucrt:winapi_thunks.obj
 0002:0000dd64       $unwind$_fcloseall         000000018003fd64     libucrt:closeall.obj
 0002:0000dd88       $unwind$__acrt_initialize_lowio 000000018003fd88     libucrt:ioinit.obj
 0002:0000dda8       $unwind$?initialize_inherited_file_handles_nolock@@YAXXZ 000000018003fda8     libucrt:ioinit.obj
 0002:0000ddc4       $unwind$_wctomb_s_l        000000018003fdc4     libucrt:wctomb.obj
 0002:0000ddd4       $unwind$__acrt_fp_format   000000018003fdd4     libucrt:cvt.obj
 0002:0000dde8       $unwind$?fp_format_nan_or_infinity@@YAHW4__acrt_fp_class@@_NPEAD_K1@Z 000000018003fde8     libucrt:cvt.obj
 0002:0000ddfc       $unwind$?fp_format_e_internal@@YAHQEAD_KH_NIQEAU_strflt@@2QEAU__crt_locale_pointers@@@Z 000000018003fdfc     libucrt:cvt.obj
 0002:0000de14       $unwind$?fp_format_a@@YAHQEBNPEAD_KQEAD2H_NIQEAU__crt_locale_pointers@@@Z 000000018003fe14     libucrt:cvt.obj
 0002:0000de30       $unwind$?fp_format_f_internal@@YAHQEAD_KHQEAU_strflt@@_NQEAU__crt_locale_pointers@@@Z 000000018003fe30     libucrt:cvt.obj
 0002:0000de30       $unwind$??$__acrt_wcs_to_mbs_cp@U__crt_win32_buffer_internal_dynamic_resizing@@@@YAHQEB_WAEAV?$__crt_win32_buffer@DU__crt_win32_buffer_internal_dynamic_resizing@@@@I@Z 000000018003fe30     libucrt:argv_wildcards.obj
 0002:0000de30       $unwind$__dcrt_get_narrow_environment_from_os 000000018003fe30     libucrt:get_environment_from_os.obj
 0002:0000de48       $unwind$?fp_format_g@@YAHQEBNQEAD_K12H_NIQEAU__crt_locale_pointers@@@Z 000000018003fe48     libucrt:cvt.obj
 0002:0000de5c       $unwind$_fputwc_nolock     000000018003fe5c     libucrt:fputwc.obj
 0002:0000de78       $unwind$_strnicoll_l       000000018003fe78     libucrt:strnicol.obj
 0002:0000de8c       $unwind$??$__acrt_mbs_to_wcs_cp@U__crt_win32_buffer_internal_dynamic_resizing@@@@YAHQEBDAEAV?$__crt_win32_buffer@_WU__crt_win32_buffer_internal_dynamic_resizing@@@@I@Z 000000018003fe8c     libucrt:argv_wildcards.obj
 0002:0000dea4       $unwind$??$common_expand_argv_wildcards@D@@YAHQEAPEADQEAPEAPEAD@Z 000000018003fea4     libucrt:argv_wildcards.obj
 0002:0000debc       $unwind$??$copy_and_add_argument_to_buffer@D@@YAHQEBD0_KAEAV?$argument_list@D@?A0x5f5c8891@@@Z 000000018003febc     libucrt:argv_wildcards.obj
 0002:0000ded8       $unwind$??$expand_argument_wildcards@D@@YAHQEAD0AEAV?$argument_list@D@?A0x5f5c8891@@@Z 000000018003fed8     libucrt:argv_wildcards.obj
 0002:0000defc       $unwind$_setmbcp_nolock    000000018003fefc     libucrt:mbctype.obj
 0002:0000df1c       $unwind$?update_thread_multibyte_data_internal@@YAPEAU__crt_multibyte_data@@QEAU__acrt_ptd@@QEAPEAU1@@Z 000000018003ff1c     libucrt:mbctype.obj
 0002:0000df44       $unwind$?setmbcp_internal@@YAHH_NQEAU__acrt_ptd@@QEAPEAU__crt_multibyte_data@@@Z 000000018003ff44     libucrt:mbctype.obj
 0002:0000df54       $unwind$?setSBUpLow@@YAXPEAU__crt_multibyte_data@@@Z 000000018003ff54     libucrt:mbctype.obj
 0002:0000df70       $unwind$??$?RV<lambda_efdfa57d1f175319df784efa44bb7b81>@@AEAV<lambda_5f0a4c1567f8adc6734073e5d1e1b35c>@@V<lambda_2e8a7d3640ea6ccb4c2413664c2db6fd>@@@?$__crt_seh_guarded_call@X@@QEAAX$$QEAV<lambda_efdfa57d1f175319df784efa44bb7b81>@@AEAV<lambda_5f0a4c1567f8adc6734073e5d1e1b35c>@@$$QEAV<lambda_2e8a7d3640ea6ccb4c2413664c2db6fd>@@@Z 000000018003ff70     libucrt:mbctype.obj
 0002:0000df94       $unwind$??$common_set_variable_in_environment_nolock@D@@YAHQEADH@Z 000000018003ff94     libucrt:setenv.obj
 0002:0000dfac       $unwind$??$copy_environment@D@@YAPEAPEADQEAPEAD@Z 000000018003ffac     libucrt:setenv.obj
 0002:0000dfc0       $unwind$_isctype_l         000000018003ffc0     libucrt:isctype.obj
 0002:0000dfdc       $unwind$_close             000000018003ffdc     libucrt:close.obj
 0002:0000dfdc       $unwind$_commit            000000018003ffdc     libucrt:commit.obj
 0002:0000dfe4       $unwind$??$?RV<lambda_a37b2b86f63e897a80ea819b0eb08c01>@@AEAV<lambda_38ce7e780aa69e748d6df282ebc68efe>@@V<lambda_99fb1378e971ab6e7edea83e3a7a83a2>@@@?$__crt_seh_guarded_call@H@@QEAAH$$QEAV<lambda_a37b2b86f63e897a80ea819b0eb08c01>@@AEAV<lambda_38ce7e780aa69e748d6df282ebc68efe>@@$$QEAV<lambda_99fb1378e971ab6e7edea83e3a7a83a2>@@@Z 000000018003ffe4     libucrt:commit.obj
 0002:0000e008       $unwind$_write             0000000180040008     libucrt:write.obj
 0002:0000e038       $unwind$_write_nolock      0000000180040038     libucrt:write.obj
 0002:0000e050       $unwind$?write_double_translated_ansi_nolock@@YA?AUwrite_result@?A0x17268360@@HQEBDI@Z 0000000180040050     libucrt:write.obj
 0002:0000e074       $unwind$?write_text_ansi_nolock@@YA?AUwrite_result@?A0x17268360@@HQEBDI@Z 0000000180040074     libucrt:write.obj
 0002:0000e074       $unwind$?write_text_utf16le_nolock@@YA?AUwrite_result@?A0x17268360@@HQEBDI@Z 0000000180040074     libucrt:write.obj
 0002:0000e094       $unwind$?write_text_utf8_nolock@@YA?AUwrite_result@?A0x17268360@@HQEBDI@Z 0000000180040094     libucrt:write.obj
 0002:0000e0b8       $unwind$__acrt_LCMapStringA 00000001800400b8     libucrt:lcmapstringa.obj
 0002:0000e0c8       $unwind$?__acrt_LCMapStringA_stat@@YAHPEAU__crt_locale_pointers@@PEB_WKPEBDHPEADHHH@Z 00000001800400c8     libucrt:lcmapstringa.obj
 0002:0000e0f0       $unwind$__acrt_update_thread_locale_data 00000001800400f0     libucrt:locale_refcounting.obj
 0002:0000e114       $unwind$__acrt_locale_free_monetary 0000000180040114     libucrt:initmon.obj
 0002:0000e11c       $unwind$__acrt_locale_free_time 000000018004011c     libucrt:inittime.obj
 0002:0000e12c       $unwind$__acrt_GetStringTypeA 000000018004012c     libucrt:getstringtypea.obj
 0002:0000e154       $unwind$?GetTableIndexFromLocaleName@@YAHPEB_W@Z 0000000180040154     libucrt:lcidtoname_downlevel.obj
 0002:0000e16c       $unwind$fclose             000000018004016c     libucrt:fclose.obj
 0002:0000e190       $unwind$__acrt_lowio_destroy_handle_array 0000000180040190     libucrt:osfinfo.obj
 0002:0000e1a0       $unwind$__acrt_lowio_ensure_fh_exists 00000001800401a0     libucrt:osfinfo.obj
 0002:0000e1cc       $unwind$?__mbsrtowcs_utf8@__crt_mbstring@@YA_KPEA_WPEAPEBD_KPEAU_Mbstatet@@@Z 00000001800401cc     libucrt:mbrtowc.obj
 0002:0000e1e4       $unwind$__acrt_fltout      00000001800401e4     libucrt:cfout.obj
 0002:0000e204       $unwind$?divide@__crt_strtox@@YA_KAEAUbig_integer@1@AEBU21@@Z 0000000180040204     libucrt:cfout.obj
 0002:0000e21c       $chain$0$?divide@__crt_strtox@@YA_KAEAUbig_integer@1@AEBU21@@Z 000000018004021c     libucrt:cfout.obj
 0002:0000e230       $chain$1$?divide@__crt_strtox@@YA_KAEAUbig_integer@1@AEBU21@@Z 0000000180040230     libucrt:cfout.obj
 0002:0000e240       $unwind$??$write_buffer_nolock@D@@YA_NDV__crt_stdio_stream@@@Z 0000000180040240     libucrt:_flsbuf.obj
 0002:0000e250       $unwind$??$write_buffer_nolock@_W@@YA_N_WV__crt_stdio_stream@@@Z 0000000180040250     libucrt:_flsbuf.obj
 0002:0000e260       $unwind$__acrt_CompareStringA 0000000180040260     libucrt:comparestringa.obj
 0002:0000e270       $unwind$?InternalCompareStringA@@YAHPEAU__crt_locale_pointers@@PEB_WKPEBDH2HH@Z 0000000180040270     libucrt:comparestringa.obj
 0002:0000e294       $unwind$qsort              0000000180040294     libucrt:qsort.obj
 0002:0000e2ac       $chain$4$qsort             00000001800402ac     libucrt:qsort.obj
 0002:0000e2d0       $chain$5$qsort             00000001800402d0     libucrt:qsort.obj
 0002:0000e2e0       $unwind$strpbrk            00000001800402e0     libucrt:strpbrk.obj
 0002:0000e2f0       $unwind$fallbackMethod     00000001800402f0     libucrt:strpbrk.obj
 0002:0000e300       $unwind$__acrt_SetEnvironmentVariableA 0000000180040300     libucrt:setenvironmentvariablea.obj
 0002:0000e31c       $unwind$??$common_lseek@_J@@YA_JH_JH@Z 000000018004031c     libucrt:lseek.obj
 0002:0000e34c       $unwind$_putwch_nolock     000000018004034c     libucrt:putwch.obj
 0002:0000e354       $unwind$??$?RV<lambda_751a882b2c74d4b022dec766aa51a29a>@@AEAV<lambda_628dfdc04ba53c8bfc02c9951375f3f5>@@V<lambda_f6c7be5f7998530c34de24c7437d6b54>@@@?$__crt_seh_guarded_call@H@@QEAAH$$QEAV<lambda_751a882b2c74d4b022dec766aa51a29a>@@AEAV<lambda_628dfdc04ba53c8bfc02c9951375f3f5>@@$$QEAV<lambda_f6c7be5f7998530c34de24c7437d6b54>@@@Z 0000000180040354     libucrt:close.obj
 0002:0000e378       $unwind$?__mbrtoc32_utf8@__crt_mbstring@@YA_KPEA_UPEBD_KPEAU_Mbstatet@@@Z 0000000180040378     libucrt:mbrtoc32.obj
 0002:0000e398       $xdatasym                  0000000180040398     libucrt:log10.obj
 0002:0000e3a4       $unwind$__acrt_fenv_set_control 00000001800403a4     libucrt:_fenvutils.obj
 0002:0000e3b4       $unwind$_call_matherr      00000001800403b4     libucrt:libm_error.obj
 0002:0000e3bc       $unwind$_handle_error      00000001800403bc     libucrt:libm_error.obj
 0002:0000e3dc       $unwind$__acrt_initialize_fma3 00000001800403dc     libucrt:fma3_available.obj
 0002:0000e3e4       $unwind$_log_special_common 00000001800403e4     libucrt:log_special.obj
 0002:0000e3f0       $xdatasym                  00000001800403f0     libucrt:fpsr.obj
 0002:0000e3f8       $unwind$_raise_exc_ex      00000001800403f8     libucrt:fpexcept.obj
 0002:0000e40c       $unwind$_ctrlfp            000000018004040c     libucrt:fpctrl.obj
 0002:0000e434       $unwind$?DloadMakePermanentImageCommit@@YAXPEAX_K@Z 0000000180040434     DelayImp:delayhlp.obj
 0002:0000e440       $unwind$?DloadProtectSection@@YAXKPEAK@Z 0000000180040440     DelayImp:delayhlp.obj
 0002:0000e450       $unwind$__delayLoadHelper2 0000000180040450     DelayImp:delayhlp.obj
 0002:0000e468       $unwind$_IsNonwritableInCurrentImage 0000000180040468     LIBCMT:pesect.obj
 0002:0000e490       $xdatasym                  0000000180040490     LIBCMT:chkstk.obj
 0002:0000e498       $xdatasym                  0000000180040498     libvcruntime:memcmp.obj
 0002:0000e49c       $unwind$strchr             000000018004049c     libvcruntime:strchr.obj
 0002:0000e49c       $unwind$strrchr            000000018004049c     libvcruntime:strrchr.obj
 0002:0000f880       .edata                     0000000180041880     node_expat.exp
 0002:0000f8a8       rgpv                       00000001800418a8     node_expat.exp
 0002:0000f8ac       rgszName                   00000001800418ac     node_expat.exp
 0002:0000f8b0       rgwOrd                     00000001800418b0     node_expat.exp
 0002:0000f8b2       szName                     00000001800418b2     node_expat.exp
 0002:0000f8c2       $N00001                    00000001800418c2     node_expat.exp
 0002:0000fb84       .idata$6                   0000000180041b84     kernel32:KERNEL32.dll
 0003:00000030       ?__vcrt_flsindex@@3KA      0000000180043030     libvcruntime:per_thread_data.obj
 0003:00000154       ?errno_no_memory@@3HA      0000000180043154     libucrt:errno.obj
 0003:00000158       ?doserrno_no_memory@@3KA   0000000180043158     libucrt:errno.obj
 0003:0000015c       ?__acrt_flsindex@@3KA      000000018004315c     libucrt:per_thread_data.obj
 0003:00000320       _mbctypes                  0000000180043320     libucrt:mbctype.obj
 0003:00000430       _mbcasemaps                0000000180043430     libucrt:mbctype.obj
 0003:00000530       ?__rgctypeflag@@3PADA      0000000180043530     libucrt:mbctype.obj
 0003:00000540       ?__rgcode_page_info@@3PAUcode_page_info@@A 0000000180043540     libucrt:mbctype.obj
 0003:00000a10       ?__dcrt_lowio_console_output_handle@@3PEAXEA 0000000180043a10     libucrt:initcon.obj
 0003:00000a20       ?dazSupported@?1??_ctrlfp@@9@9 0000000180043a20     libucrt:fpctrl.obj
 0003:00000a40       _module                    0000000180043a40     node-expat.obj
 0003:00000d08       ?__proc_attached@@3HA      0000000180043d08     LIBCMT:dll_dllmain.obj
 0003:00000d10       GS_ExceptionRecord         0000000180043d10     LIBCMT:gs_report.obj
 0003:00000db0       GS_ContextRecord           0000000180043db0     LIBCMT:gs_report.obj
 0003:000012a8       ?is_initialized_as_dll@@3_NA 00000001800442a8     LIBCMT:utility.obj
 0003:000012a9       ?module_local_atexit_table_initialized@@3_NA 00000001800442a9     LIBCMT:utility.obj
 0003:000012b0       ?module_local_atexit_table@@3U_onexit_table_t@@A 00000001800442b0     LIBCMT:utility.obj
 0003:000012c8       ?module_local_at_quick_exit_table@@3U_onexit_table_t@@A 00000001800442c8     LIBCMT:utility.obj
 0003:00001330       ?heap@@3V_HeapManager@@A   0000000180044330     libvcruntime:undname.obj
 0003:00001360       ?__vcrt_startup_thread_ptd@@3U__vcrt_ptd@@A 0000000180044360     libvcruntime:per_thread_data.obj
 0003:000013f0       __vcrt_lock_table          00000001800443f0     libvcruntime:locks.obj
 0003:00001418       __vcrt_locks_initialized   0000000180044418     libvcruntime:locks.obj
 0003:00001420       ?module_handles@@3PAPEAUHINSTANCE__@@A 0000000180044420     libvcruntime:winapi_downlevel.obj
 0003:00001438       ?encoded_function_pointers@@3PAPEAXA 0000000180044438     libvcruntime:winapi_downlevel.obj
 0003:00001480       ?__acrt_new_handler@@3V?$dual_state_global@P6AH_K@Z@__crt_state_management@@A 0000000180044480     libucrt:new_handler.obj
 0003:00001488       ?c_termination_complete@@3JA 0000000180044488     libucrt:exit.obj
 0003:00001490       ?thread_local_exit_callback_func@@3P6AXPEAXK0@ZEA 0000000180044490     libucrt:exit.obj
 0003:000014a0       ?program_name@?1???$common_configure_argv@D@@YAHW4_crt_argv_mode@@@Z@4PADA 00000001800444a0     libucrt:argv_parsing.obj
 0003:000015f8       ?__acrt_invalid_parameter_handler@@3V?$dual_state_global@P6AXPEB_W00I_K@Z@__crt_state_management@@A 00000001800445f8     libucrt:invalid_parameter.obj
 0003:00001600       ?__acrt_app_type@@3W4_crt_app_type@@A 0000000180044600     libucrt:report_runtime_error.obj
 0003:00001604       __acrt_error_mode          0000000180044604     libucrt:set_error_mode.obj
 0003:00001608       ?ctrlc_action@@3V?$dual_state_global@P6AXH@Z@__crt_state_management@@A 0000000180044608     libucrt:signal.obj
 0003:00001610       ?ctrlbreak_action@@3V?$dual_state_global@P6AXH@Z@__crt_state_management@@A 0000000180044610     libucrt:signal.obj
 0003:00001618       ?abort_action@@3V?$dual_state_global@P6AXH@Z@__crt_state_management@@A 0000000180044618     libucrt:signal.obj
 0003:00001620       ?term_action@@3V?$dual_state_global@P6AXH@Z@__crt_state_management@@A 0000000180044620     libucrt:signal.obj
 0003:00001640       ?module_handles@@3PAPEAUHINSTANCE__@@A 0000000180044640     libucrt:winapi_thunks.obj
 0003:000016e0       ?encoded_function_pointers@@3PAPEAXA 00000001800446e0     libucrt:winapi_thunks.obj
 0003:00001bf8       ?internal_state@?1??_mbtowc_l@@9@4U_Mbstatet@@A 0000000180044bf8     libucrt:mbtowc.obj
 0003:00001c00       ?enable_percent_n@@3_KA    0000000180044c00     libucrt:printf_count_output.obj
 0003:00001c20       ?__acrt_lock_table@@3PAU_RTL_CRITICAL_SECTION@@A 0000000180044c20     libucrt:locks.obj
 0003:00001e50       ?__acrt_locks_initialized@@3IA 0000000180044e50     libucrt:locks.obj
 0003:00001e54       ?state_cache@?1???$get_cached_win_policy@Udeveloper_information_policy_properties@?1??__acrt_get_developer_information_policy@@YA?AW4developer_information_policy@@XZ@@@YA?AW4developer_information_policy@@W4AppPolicyShowDeveloperDiagnostic@@@Z@4JA 0000000180044e54     libucrt:win_policies.obj
 0003:00001e58       ?state_cache@?1???$get_cached_win_policy@Uwindowing_model_policy_properties@?1??__acrt_get_windowing_model_policy@@YA?AW4windowing_model_policy@@XZ@@@YA?AW4windowing_model_policy@@W4AppPolicyWindowingModel@@@Z@4JA 0000000180044e58     libucrt:win_policies.obj
 0003:00001e78       ?fSystemSet@@3HA           0000000180044e78     libucrt:mbctype.obj
 0003:00001e7c       ?initialized@?1??__acrt_initialize_multibyte@@9@4_NA 0000000180044e7c     libucrt:mbctype.obj
 0003:00001eb8       ?user_matherr@@3V?$dual_state_global@P6AHPEAU_exception@@@Z@__crt_state_management@@A 0000000180044eb8     libucrt:matherr.obj
 0003:00001ec0       ?__acrt_global_new_mode@@3V?$dual_state_global@J@__crt_state_management@@A 0000000180044ec0     libucrt:new_mode.obj
 0003:00001ed0       ?internal_pst@?1??__mbrtoc32_utf8@__crt_mbstring@@YA_KPEA_UPEBD_KPEAU_Mbstatet@@@Z@4U3@A 0000000180044ed0     libucrt:mbrtoc32.obj
 0004:00000000       $pdata$?FunctionCallbackWrapper@imp@Nan@@YAXAEBV?$FunctionCallbackInfo@VValue@v8@@@v8@@@Z 0000000180045000     node-expat.obj
 0004:0000000c       $pdata$?New@?$Factory@VFunctionTemplate@v8@@@imp@Nan@@SA?AV?$Local@VFunctionTemplate@v8@@@v8@@P6AXAEBV?$FunctionCallbackInfo@VValue@v8@@@3@@ZV?$Local@VValue@v8@@@5@V?$Local@VSignature@v8@@@5@@Z 000000018004500c     node-expat.obj
 0004:00000018       $pdata$0$?New@?$Factory@VFunctionTemplate@v8@@@imp@Nan@@SA?AV?$Local@VFunctionTemplate@v8@@@v8@@P6AXAEBV?$FunctionCallbackInfo@VValue@v8@@@3@@ZV?$Local@VValue@v8@@@5@V?$Local@VSignature@v8@@@5@@Z 0000000180045018     node-expat.obj
 0004:00000024       $pdata$1$?New@?$Factory@VFunctionTemplate@v8@@@imp@Nan@@SA?AV?$Local@VFunctionTemplate@v8@@@v8@@P6AXAEBV?$FunctionCallbackInfo@VValue@v8@@@3@@ZV?$Local@VValue@v8@@@5@V?$Local@VSignature@v8@@@5@@Z 0000000180045024     node-expat.obj
 0004:00000030       $pdata$2$?New@?$Factory@VFunctionTemplate@v8@@@imp@Nan@@SA?AV?$Local@VFunctionTemplate@v8@@@v8@@P6AXAEBV?$FunctionCallbackInfo@VValue@v8@@@3@@ZV?$Local@VValue@v8@@@5@V?$Local@VSignature@v8@@@5@@Z 0000000180045030     node-expat.obj
 0004:0000003c       $pdata$3$?New@?$Factory@VFunctionTemplate@v8@@@imp@Nan@@SA?AV?$Local@VFunctionTemplate@v8@@@v8@@P6AXAEBV?$FunctionCallbackInfo@VValue@v8@@@3@@ZV?$Local@VValue@v8@@@5@V?$Local@VSignature@v8@@@5@@Z 000000018004503c     node-expat.obj
 0004:00000048       $pdata$?ThrowTypeError@Nan@@YAXPEBD@Z 0000000180045048     node-expat.obj
 0004:00000054       $pdata$??0Utf8String@Nan@@QEAA@V?$Local@VValue@v8@@@v8@@@Z 0000000180045054     node-expat.obj
 0004:00000060       $pdata$1$??0Utf8String@Nan@@QEAA@V?$Local@VValue@v8@@@v8@@@Z 0000000180045060     node-expat.obj
 0004:0000006c       $pdata$2$??0Utf8String@Nan@@QEAA@V?$Local@VValue@v8@@@v8@@@Z 000000018004506c     node-expat.obj
 0004:00000078       $pdata$?SetPrototypeMethod@Nan@@YAXV?$Local@VFunctionTemplate@v8@@@v8@@PEBDP6AXAEBV?$FunctionCallbackInfo@VValue@v8@@@1@@Z@Z 0000000180045078     node-expat.obj
 0004:00000084       $pdata$?Ref@ObjectWrap@Nan@@MEAAXXZ 0000000180045084     node-expat.obj
 0004:00000090       $pdata$?Unref@ObjectWrap@Nan@@MEAAXXZ 0000000180045090     node-expat.obj
 0004:0000009c       $pdata$?WeakCallback@ObjectWrap@Nan@@CAXAEBV?$WeakCallbackInfo@VObjectWrap@Nan@@@v8@@@Z 000000018004509c     node-expat.obj
 0004:000000a8       $pdata$??_GObjectWrap@Nan@@UEAAPEAXI@Z 00000001800450a8     node-expat.obj
 0004:000000b4       $pdata$?Initialize@Parser@@SAXV?$Local@VObject@v8@@@v8@@@Z 00000001800450b4     node-expat.obj
 0004:000000c0       $pdata$?New@Parser@@KAXAEBV?$FunctionCallbackInfo@VValue@v8@@@Nan@@@Z 00000001800450c0     node-expat.obj
 0004:000000cc       $pdata$?Parse@Parser@@KAXAEBV?$FunctionCallbackInfo@VValue@v8@@@Nan@@@Z 00000001800450cc     node-expat.obj
 0004:000000d8       $pdata$2$?Parse@Parser@@KAXAEBV?$FunctionCallbackInfo@VValue@v8@@@Nan@@@Z 00000001800450d8     node-expat.obj
 0004:000000e4       $pdata$3$?Parse@Parser@@KAXAEBV?$FunctionCallbackInfo@VValue@v8@@@Nan@@@Z 00000001800450e4     node-expat.obj
 0004:000000f0       $pdata$4$?Parse@Parser@@KAXAEBV?$FunctionCallbackInfo@VValue@v8@@@Nan@@@Z 00000001800450f0     node-expat.obj
 0004:000000fc       $pdata$5$?Parse@Parser@@KAXAEBV?$FunctionCallbackInfo@VValue@v8@@@Nan@@@Z 00000001800450fc     node-expat.obj
 0004:00000108       $pdata$?parseBuffer@Parser@@IEAA_NV?$Local@VObject@v8@@@v8@@H@Z 0000000180045108     node-expat.obj
 0004:00000114       $pdata$?SetEncoding@Parser@@KAXAEBV?$FunctionCallbackInfo@VValue@v8@@@Nan@@@Z 0000000180045114     node-expat.obj
 0004:00000120       $pdata$?GetError@Parser@@KAXAEBV?$FunctionCallbackInfo@VValue@v8@@@Nan@@@Z 0000000180045120     node-expat.obj
 0004:0000012c       $pdata$?Stop@Parser@@KAXAEBV?$FunctionCallbackInfo@VValue@v8@@@Nan@@@Z 000000018004512c     node-expat.obj
 0004:00000138       $pdata$?Resume@Parser@@KAXAEBV?$FunctionCallbackInfo@VValue@v8@@@Nan@@@Z 0000000180045138     node-expat.obj
 0004:00000144       $pdata$2$?Resume@Parser@@KAXAEBV?$FunctionCallbackInfo@VValue@v8@@@Nan@@@Z 0000000180045144     node-expat.obj
 0004:00000150       $pdata$3$?Resume@Parser@@KAXAEBV?$FunctionCallbackInfo@VValue@v8@@@Nan@@@Z 0000000180045150     node-expat.obj
 0004:0000015c       $pdata$4$?Resume@Parser@@KAXAEBV?$FunctionCallbackInfo@VValue@v8@@@Nan@@@Z 000000018004515c     node-expat.obj
 0004:00000168       $pdata$?Reset@Parser@@KAXAEBV?$FunctionCallbackInfo@VValue@v8@@@Nan@@@Z 0000000180045168     node-expat.obj
 0004:00000174       $pdata$?GetCurrentLineNumber@Parser@@KAXAEBV?$FunctionCallbackInfo@VValue@v8@@@Nan@@@Z 0000000180045174     node-expat.obj
 0004:00000180       $pdata$?GetCurrentColumnNumber@Parser@@KAXAEBV?$FunctionCallbackInfo@VValue@v8@@@Nan@@@Z 0000000180045180     node-expat.obj
 0004:0000018c       $pdata$?GetCurrentByteIndex@Parser@@KAXAEBV?$FunctionCallbackInfo@VValue@v8@@@Nan@@@Z 000000018004518c     node-expat.obj
 0004:00000198       $pdata$?StartElement@Parser@@CAXPEAXPEBDPEAPEBD@Z 0000000180045198     node-expat.obj
 0004:000001a4       $pdata$2$?StartElement@Parser@@CAXPEAXPEBDPEAPEBD@Z 00000001800451a4     node-expat.obj
 0004:000001b0       $pdata$3$?StartElement@Parser@@CAXPEAXPEBDPEAPEBD@Z 00000001800451b0     node-expat.obj
 0004:000001bc       $pdata$4$?StartElement@Parser@@CAXPEAXPEBDPEAPEBD@Z 00000001800451bc     node-expat.obj
 0004:000001c8       $pdata$5$?StartElement@Parser@@CAXPEAXPEBDPEAPEBD@Z 00000001800451c8     node-expat.obj
 0004:000001d4       $pdata$6$?StartElement@Parser@@CAXPEAXPEBDPEAPEBD@Z 00000001800451d4     node-expat.obj
 0004:000001e0       $pdata$7$?StartElement@Parser@@CAXPEAXPEBDPEAPEBD@Z 00000001800451e0     node-expat.obj
 0004:000001ec       $pdata$?EndElement@Parser@@CAXPEAXPEBD@Z 00000001800451ec     node-expat.obj
 0004:000001f8       $pdata$?StartCdata@Parser@@CAXPEAX@Z 00000001800451f8     node-expat.obj
 0004:00000204       $pdata$?EndCdata@Parser@@CAXPEAX@Z 0000000180045204     node-expat.obj
 0004:00000210       $pdata$?Text@Parser@@CAXPEAXPEBDH@Z 0000000180045210     node-expat.obj
 0004:0000021c       $pdata$?ProcessingInstruction@Parser@@CAXPEAXPEBD1@Z 000000018004521c     node-expat.obj
 0004:00000228       $pdata$?Comment@Parser@@CAXPEAXPEBD@Z 0000000180045228     node-expat.obj
 0004:00000234       $pdata$?XmlDecl@Parser@@CAXPEAXPEBD1H@Z 0000000180045234     node-expat.obj
 0004:00000240       $pdata$?EntityDecl@Parser@@CAXPEAXPEBDH1H1111@Z 0000000180045240     node-expat.obj
 0004:0000024c       $pdata$?UnknownEncoding@Parser@@CAHPEAXPEBDPEAUXML_Encoding@@@Z 000000018004524c     node-expat.obj
 0004:00000258       $pdata$?SetUnknownEncoding@Parser@@CAXAEBV?$FunctionCallbackInfo@VValue@v8@@@Nan@@@Z 0000000180045258     node-expat.obj
 0004:00000264       $pdata$2$?SetUnknownEncoding@Parser@@CAXAEBV?$FunctionCallbackInfo@VValue@v8@@@Nan@@@Z 0000000180045264     node-expat.obj
 0004:00000270       $pdata$3$?SetUnknownEncoding@Parser@@CAXAEBV?$FunctionCallbackInfo@VValue@v8@@@Nan@@@Z 0000000180045270     node-expat.obj
 0004:0000027c       $pdata$?Emit@Parser@@AEAAXHQEAV?$Local@VValue@v8@@@v8@@@Z 000000018004527c     node-expat.obj
 0004:00000288       $pdata$??_GParser@@MEAAPEAXI@Z 0000000180045288     node-expat.obj
 0004:00000294       $pdata$??$Unwrap@VParser@@@ObjectWrap@Nan@@SAPEAVParser@@V?$Local@VObject@v8@@@v8@@@Z 0000000180045294     node-expat.obj
 0004:000002a0       $pdata$?load_exe_hook@@YAP6A_JXZIPEAUDelayLoadInfo@@@Z 00000001800452a0     win_delay_load_hook.obj
 0004:000002ac       $pdata$fprintf             00000001800452ac     libexpat:xmlparse.obj
 0004:000002b8       $pdata$sip24_update        00000001800452b8     libexpat:xmlparse.obj
 0004:000002c4       $pdata$startParsing        00000001800452c4     libexpat:xmlparse.obj
 0004:000002d0       $pdata$1$startParsing      00000001800452d0     libexpat:xmlparse.obj
 0004:000002dc       $pdata$2$startParsing      00000001800452dc     libexpat:xmlparse.obj
 0004:000002e8       $pdata$parserCreate        00000001800452e8     libexpat:xmlparse.obj
 0004:000002f4       $pdata$1$parserCreate      00000001800452f4     libexpat:xmlparse.obj
 0004:00000300       $pdata$3$parserCreate      0000000180045300     libexpat:xmlparse.obj
 0004:0000030c       $pdata$4$parserCreate      000000018004530c     libexpat:xmlparse.obj
 0004:00000318       $pdata$parserInit          0000000180045318     libexpat:xmlparse.obj
 0004:00000324       $pdata$XML_ParserFree      0000000180045324     libexpat:xmlparse.obj
 0004:00000330       $pdata$1$XML_ParserFree    0000000180045330     libexpat:xmlparse.obj
 0004:0000033c       $pdata$4$XML_ParserFree    000000018004533c     libexpat:xmlparse.obj
 0004:00000348       $pdata$5$XML_ParserFree    0000000180045348     libexpat:xmlparse.obj
 0004:00000354       $pdata$6$XML_ParserFree    0000000180045354     libexpat:xmlparse.obj
 0004:00000360       $pdata$7$XML_ParserFree    0000000180045360     libexpat:xmlparse.obj
 0004:0000036c       $pdata$8$XML_ParserFree    000000018004536c     libexpat:xmlparse.obj
 0004:00000378       $pdata$XML_ParseBuffer     0000000180045378     libexpat:xmlparse.obj
 0004:00000384       $pdata$0$XML_ParseBuffer   0000000180045384     libexpat:xmlparse.obj
 0004:00000390       $pdata$1$XML_ParseBuffer   0000000180045390     libexpat:xmlparse.obj
 0004:0000039c       $pdata$2$XML_ParseBuffer   000000018004539c     libexpat:xmlparse.obj
 0004:000003a8       $pdata$XML_GetBuffer       00000001800453a8     libexpat:xmlparse.obj
 0004:000003b4       $pdata$2$XML_GetBuffer     00000001800453b4     libexpat:xmlparse.obj
 0004:000003c0       $pdata$4$XML_GetBuffer     00000001800453c0     libexpat:xmlparse.obj
 0004:000003cc       $pdata$storeRawNames       00000001800453cc     libexpat:xmlparse.obj
 0004:000003d8       $pdata$contentProcessor    00000001800453d8     libexpat:xmlparse.obj
 0004:000003e4       $pdata$externalEntityContentProcessor 00000001800453e4     libexpat:xmlparse.obj
 0004:000003f0       $pdata$doContent           00000001800453f0     libexpat:xmlparse.obj
 0004:000003fc       $pdata$freeBindings        00000001800453fc     libexpat:xmlparse.obj
 0004:00000408       $pdata$0$freeBindings      0000000180045408     libexpat:xmlparse.obj
 0004:00000414       $pdata$1$freeBindings      0000000180045414     libexpat:xmlparse.obj
 0004:00000420       $pdata$storeAtts           0000000180045420     libexpat:xmlparse.obj
 0004:0000042c       $pdata$addBinding          000000018004542c     libexpat:xmlparse.obj
 0004:00000438       $pdata$0$addBinding        0000000180045438     libexpat:xmlparse.obj
 0004:00000444       $pdata$2$addBinding        0000000180045444     libexpat:xmlparse.obj
 0004:00000450       $pdata$6$addBinding        0000000180045450     libexpat:xmlparse.obj
 0004:0000045c       $pdata$cdataSectionProcessor 000000018004545c     libexpat:xmlparse.obj
 0004:00000468       $pdata$doCdataSection      0000000180045468     libexpat:xmlparse.obj
 0004:00000474       $pdata$ignoreSectionProcessor 0000000180045474     libexpat:xmlparse.obj
 0004:00000480       $pdata$doIgnoreSection     0000000180045480     libexpat:xmlparse.obj
 0004:0000048c       $pdata$processXmlDecl      000000018004548c     libexpat:xmlparse.obj
 0004:00000498       $pdata$handleUnknownEncoding 0000000180045498     libexpat:xmlparse.obj
 0004:000004a4       $pdata$prologInitProcessor 00000001800454a4     libexpat:xmlparse.obj
 0004:000004b0       $pdata$prologProcessor     00000001800454b0     libexpat:xmlparse.obj
 0004:000004bc       $pdata$doProlog            00000001800454bc     libexpat:xmlparse.obj
 0004:000004c8       $pdata$epilogProcessor     00000001800454c8     libexpat:xmlparse.obj
 0004:000004d4       $pdata$processInternalEntity 00000001800454d4     libexpat:xmlparse.obj
 0004:000004e0       $pdata$0$processInternalEntity 00000001800454e0     libexpat:xmlparse.obj
 0004:000004ec       $pdata$1$processInternalEntity 00000001800454ec     libexpat:xmlparse.obj
 0004:000004f8       $pdata$2$processInternalEntity 00000001800454f8     libexpat:xmlparse.obj
 0004:00000504       $pdata$internalEntityProcessor 0000000180045504     libexpat:xmlparse.obj
 0004:00000510       $pdata$2$internalEntityProcessor 0000000180045510     libexpat:xmlparse.obj
 0004:0000051c       $pdata$3$internalEntityProcessor 000000018004551c     libexpat:xmlparse.obj
 0004:00000528       $pdata$appendAttributeValue 0000000180045528     libexpat:xmlparse.obj
 0004:00000534       $pdata$storeEntityValue    0000000180045534     libexpat:xmlparse.obj
 0004:00000540       $pdata$0$storeEntityValue  0000000180045540     libexpat:xmlparse.obj
 0004:0000054c       $pdata$1$storeEntityValue  000000018004554c     libexpat:xmlparse.obj
 0004:00000558       $pdata$reportProcessingInstruction 0000000180045558     libexpat:xmlparse.obj
 0004:00000564       $pdata$reportComment       0000000180045564     libexpat:xmlparse.obj
 0004:00000570       $pdata$0$reportComment     0000000180045570     libexpat:xmlparse.obj
 0004:0000057c       $pdata$2$reportComment     000000018004557c     libexpat:xmlparse.obj
 0004:00000588       $pdata$reportDefault       0000000180045588     libexpat:xmlparse.obj
 0004:00000594       $pdata$2$reportDefault     0000000180045594     libexpat:xmlparse.obj
 0004:000005a0       $pdata$3$reportDefault     00000001800455a0     libexpat:xmlparse.obj
 0004:000005ac       $pdata$defineAttribute     00000001800455ac     libexpat:xmlparse.obj
 0004:000005b8       $pdata$0$defineAttribute   00000001800455b8     libexpat:xmlparse.obj
 0004:000005c4       $pdata$1$defineAttribute   00000001800455c4     libexpat:xmlparse.obj
 0004:000005d0       $pdata$2$defineAttribute   00000001800455d0     libexpat:xmlparse.obj
 0004:000005dc       $pdata$3$defineAttribute   00000001800455dc     libexpat:xmlparse.obj
 0004:000005e8       $pdata$setElementTypePrefix 00000001800455e8     libexpat:xmlparse.obj
 0004:000005f4       $pdata$getAttributeId      00000001800455f4     libexpat:xmlparse.obj
 0004:00000600       $pdata$getContext          0000000180045600     libexpat:xmlparse.obj
 0004:0000060c       $pdata$setContext          000000018004560c     libexpat:xmlparse.obj
 0004:00000618       $pdata$dtdReset            0000000180045618     libexpat:xmlparse.obj
 0004:00000624       $pdata$dtdDestroy          0000000180045624     libexpat:xmlparse.obj
 0004:00000630       $pdata$hash                0000000180045630     libexpat:xmlparse.obj
 0004:0000063c       $pdata$lookup              000000018004563c     libexpat:xmlparse.obj
 0004:00000648       $pdata$poolAppend          0000000180045648     libexpat:xmlparse.obj
 0004:00000654       $pdata$poolCopyString      0000000180045654     libexpat:xmlparse.obj
 0004:00000660       $pdata$poolStoreString     0000000180045660     libexpat:xmlparse.obj
 0004:0000066c       $pdata$poolGrow            000000018004566c     libexpat:xmlparse.obj
 0004:00000678       $pdata$nextScaffoldPart    0000000180045678     libexpat:xmlparse.obj
 0004:00000684       $pdata$build_node          0000000180045684     libexpat:xmlparse.obj
 0004:00000690       $pdata$2$build_node        0000000180045690     libexpat:xmlparse.obj
 0004:0000069c       $pdata$3$build_node        000000018004569c     libexpat:xmlparse.obj
 0004:000006a8       $pdata$getElementType      00000001800456a8     libexpat:xmlparse.obj
 0004:000006b4       $pdata$normal_scanComment  00000001800456b4     libexpat:xmltok.obj
 0004:000006c0       $pdata$normal_scanPi       00000001800456c0     libexpat:xmltok.obj
 0004:000006cc       $pdata$normal_cdataSectionTok 00000001800456cc     libexpat:xmltok.obj
 0004:000006d8       $pdata$0$normal_cdataSectionTok 00000001800456d8     libexpat:xmltok.obj
 0004:000006e4       $pdata$1$normal_cdataSectionTok 00000001800456e4     libexpat:xmltok.obj
 0004:000006f0       $pdata$normal_scanEndTag   00000001800456f0     libexpat:xmltok.obj
 0004:000006fc       $pdata$normal_scanRef      00000001800456fc     libexpat:xmltok.obj
 0004:00000708       $pdata$0$normal_scanRef    0000000180045708     libexpat:xmltok.obj
 0004:00000714       $pdata$1$normal_scanRef    0000000180045714     libexpat:xmltok.obj
 0004:00000720       $pdata$normal_scanAtts     0000000180045720     libexpat:xmltok.obj
 0004:0000072c       $pdata$normal_scanLt       000000018004572c     libexpat:xmltok.obj
 0004:00000738       $pdata$normal_contentTok   0000000180045738     libexpat:xmltok.obj
 0004:00000744       $pdata$0$normal_contentTok 0000000180045744     libexpat:xmltok.obj
 0004:00000750       $pdata$1$normal_contentTok 0000000180045750     libexpat:xmltok.obj
 0004:0000075c       $pdata$2$normal_contentTok 000000018004575c     libexpat:xmltok.obj
 0004:00000768       $pdata$normal_scanPercent  0000000180045768     libexpat:xmltok.obj
 0004:00000774       $pdata$0$normal_scanPercent 0000000180045774     libexpat:xmltok.obj
 0004:00000780       $pdata$1$normal_scanPercent 0000000180045780     libexpat:xmltok.obj
 0004:0000078c       $pdata$normal_scanLit      000000018004578c     libexpat:xmltok.obj
 0004:00000798       $pdata$normal_prologTok    0000000180045798     libexpat:xmltok.obj
 0004:000007a4       $pdata$1$normal_prologTok  00000001800457a4     libexpat:xmltok.obj
 0004:000007b0       $pdata$2$normal_prologTok  00000001800457b0     libexpat:xmltok.obj
 0004:000007bc       $pdata$normal_attributeValueTok 00000001800457bc     libexpat:xmltok.obj
 0004:000007c8       $pdata$0$normal_attributeValueTok 00000001800457c8     libexpat:xmltok.obj
 0004:000007d4       $pdata$2$normal_attributeValueTok 00000001800457d4     libexpat:xmltok.obj
 0004:000007e0       $pdata$4$normal_attributeValueTok 00000001800457e0     libexpat:xmltok.obj
 0004:000007ec       $pdata$6$normal_attributeValueTok 00000001800457ec     libexpat:xmltok.obj
 0004:000007f8       $pdata$8$normal_attributeValueTok 00000001800457f8     libexpat:xmltok.obj
 0004:00000804       $pdata$10$normal_attributeValueTok 0000000180045804     libexpat:xmltok.obj
 0004:00000810       $pdata$12$normal_attributeValueTok 0000000180045810     libexpat:xmltok.obj
 0004:0000081c       $pdata$13$normal_attributeValueTok 000000018004581c     libexpat:xmltok.obj
 0004:00000828       $pdata$normal_entityValueTok 0000000180045828     libexpat:xmltok.obj
 0004:00000834       $pdata$1$normal_entityValueTok 0000000180045834     libexpat:xmltok.obj
 0004:00000840       $pdata$3$normal_entityValueTok 0000000180045840     libexpat:xmltok.obj
 0004:0000084c       $pdata$5$normal_entityValueTok 000000018004584c     libexpat:xmltok.obj
 0004:00000858       $pdata$7$normal_entityValueTok 0000000180045858     libexpat:xmltok.obj
 0004:00000864       $pdata$9$normal_entityValueTok 0000000180045864     libexpat:xmltok.obj
 0004:00000870       $pdata$11$normal_entityValueTok 0000000180045870     libexpat:xmltok.obj
 0004:0000087c       $pdata$12$normal_entityValueTok 000000018004587c     libexpat:xmltok.obj
 0004:00000888       $pdata$normal_ignoreSectionTok 0000000180045888     libexpat:xmltok.obj
 0004:00000894       $pdata$normal_isPublicId   0000000180045894     libexpat:xmltok.obj
 0004:000008a0       $pdata$normal_getAtts      00000001800458a0     libexpat:xmltok.obj
 0004:000008ac       $pdata$utf8_toUtf8         00000001800458ac     libexpat:xmltok.obj
 0004:000008b8       $pdata$utf8_toUtf16        00000001800458b8     libexpat:xmltok.obj
 0004:000008c4       $pdata$2$utf8_toUtf16      00000001800458c4     libexpat:xmltok.obj
 0004:000008d0       $pdata$3$utf8_toUtf16      00000001800458d0     libexpat:xmltok.obj
 0004:000008dc       $pdata$4$utf8_toUtf16      00000001800458dc     libexpat:xmltok.obj
 0004:000008e8       $pdata$little2_toUtf8      00000001800458e8     libexpat:xmltok.obj
 0004:000008f4       $pdata$little2_toUtf16     00000001800458f4     libexpat:xmltok.obj
 0004:00000900       $pdata$big2_toUtf8         0000000180045900     libexpat:xmltok.obj
 0004:0000090c       $pdata$big2_toUtf16        000000018004590c     libexpat:xmltok.obj
 0004:00000918       $pdata$little2_scanComment 0000000180045918     libexpat:xmltok.obj
 0004:00000924       $pdata$little2_scanDecl    0000000180045924     libexpat:xmltok.obj
 0004:00000930       $pdata$little2_scanPi      0000000180045930     libexpat:xmltok.obj
 0004:0000093c       $pdata$little2_cdataSectionTok 000000018004593c     libexpat:xmltok.obj
 0004:00000948       $pdata$0$little2_cdataSectionTok 0000000180045948     libexpat:xmltok.obj
 0004:00000954       $pdata$2$little2_cdataSectionTok 0000000180045954     libexpat:xmltok.obj
 0004:00000960       $pdata$4$little2_cdataSectionTok 0000000180045960     libexpat:xmltok.obj
 0004:0000096c       $pdata$6$little2_cdataSectionTok 000000018004596c     libexpat:xmltok.obj
 0004:00000978       $pdata$8$little2_cdataSectionTok 0000000180045978     libexpat:xmltok.obj
 0004:00000984       $pdata$10$little2_cdataSectionTok 0000000180045984     libexpat:xmltok.obj
 0004:00000990       $pdata$12$little2_cdataSectionTok 0000000180045990     libexpat:xmltok.obj
 0004:0000099c       $pdata$14$little2_cdataSectionTok 000000018004599c     libexpat:xmltok.obj
 0004:000009a8       $pdata$little2_scanEndTag  00000001800459a8     libexpat:xmltok.obj
 0004:000009b4       $pdata$little2_scanRef     00000001800459b4     libexpat:xmltok.obj
 0004:000009c0       $pdata$0$little2_scanRef   00000001800459c0     libexpat:xmltok.obj
 0004:000009cc       $pdata$2$little2_scanRef   00000001800459cc     libexpat:xmltok.obj
 0004:000009d8       $pdata$4$little2_scanRef   00000001800459d8     libexpat:xmltok.obj
 0004:000009e4       $pdata$6$little2_scanRef   00000001800459e4     libexpat:xmltok.obj
 0004:000009f0       $pdata$8$little2_scanRef   00000001800459f0     libexpat:xmltok.obj
 0004:000009fc       $pdata$9$little2_scanRef   00000001800459fc     libexpat:xmltok.obj
 0004:00000a08       $pdata$little2_scanAtts    0000000180045a08     libexpat:xmltok.obj
 0004:00000a14       $pdata$little2_scanLt      0000000180045a14     libexpat:xmltok.obj
 0004:00000a20       $pdata$little2_contentTok  0000000180045a20     libexpat:xmltok.obj
 0004:00000a2c       $pdata$1$little2_contentTok 0000000180045a2c     libexpat:xmltok.obj
 0004:00000a38       $pdata$3$little2_contentTok 0000000180045a38     libexpat:xmltok.obj
 0004:00000a44       $pdata$5$little2_contentTok 0000000180045a44     libexpat:xmltok.obj
 0004:00000a50       $pdata$7$little2_contentTok 0000000180045a50     libexpat:xmltok.obj
 0004:00000a5c       $pdata$9$little2_contentTok 0000000180045a5c     libexpat:xmltok.obj
 0004:00000a68       $pdata$11$little2_contentTok 0000000180045a68     libexpat:xmltok.obj
 0004:00000a74       $pdata$13$little2_contentTok 0000000180045a74     libexpat:xmltok.obj
 0004:00000a80       $pdata$15$little2_contentTok 0000000180045a80     libexpat:xmltok.obj
 0004:00000a8c       $pdata$17$little2_contentTok 0000000180045a8c     libexpat:xmltok.obj
 0004:00000a98       $pdata$19$little2_contentTok 0000000180045a98     libexpat:xmltok.obj
 0004:00000aa4       $pdata$20$little2_contentTok 0000000180045aa4     libexpat:xmltok.obj
 0004:00000ab0       $pdata$little2_scanPercent 0000000180045ab0     libexpat:xmltok.obj
 0004:00000abc       $pdata$0$little2_scanPercent 0000000180045abc     libexpat:xmltok.obj
 0004:00000ac8       $pdata$2$little2_scanPercent 0000000180045ac8     libexpat:xmltok.obj
 0004:00000ad4       $pdata$4$little2_scanPercent 0000000180045ad4     libexpat:xmltok.obj
 0004:00000ae0       $pdata$6$little2_scanPercent 0000000180045ae0     libexpat:xmltok.obj
 0004:00000aec       $pdata$8$little2_scanPercent 0000000180045aec     libexpat:xmltok.obj
 0004:00000af8       $pdata$9$little2_scanPercent 0000000180045af8     libexpat:xmltok.obj
 0004:00000b04       $pdata$little2_scanPoundName 0000000180045b04     libexpat:xmltok.obj
 0004:00000b10       $pdata$0$little2_scanPoundName 0000000180045b10     libexpat:xmltok.obj
 0004:00000b1c       $pdata$2$little2_scanPoundName 0000000180045b1c     libexpat:xmltok.obj
 0004:00000b28       $pdata$4$little2_scanPoundName 0000000180045b28     libexpat:xmltok.obj
 0004:00000b34       $pdata$6$little2_scanPoundName 0000000180045b34     libexpat:xmltok.obj
 0004:00000b40       $pdata$7$little2_scanPoundName 0000000180045b40     libexpat:xmltok.obj
 0004:00000b4c       $pdata$little2_scanLit     0000000180045b4c     libexpat:xmltok.obj
 0004:00000b58       $pdata$little2_prologTok   0000000180045b58     libexpat:xmltok.obj
 0004:00000b64       $pdata$2$little2_prologTok 0000000180045b64     libexpat:xmltok.obj
 0004:00000b70       $pdata$4$little2_prologTok 0000000180045b70     libexpat:xmltok.obj
 0004:00000b7c       $pdata$little2_attributeValueTok 0000000180045b7c     libexpat:xmltok.obj
 0004:00000b88       $pdata$3$little2_attributeValueTok 0000000180045b88     libexpat:xmltok.obj
 0004:00000b94       $pdata$5$little2_attributeValueTok 0000000180045b94     libexpat:xmltok.obj
 0004:00000ba0       $pdata$little2_entityValueTok 0000000180045ba0     libexpat:xmltok.obj
 0004:00000bac       $pdata$5$little2_entityValueTok 0000000180045bac     libexpat:xmltok.obj
 0004:00000bb8       $pdata$7$little2_entityValueTok 0000000180045bb8     libexpat:xmltok.obj
 0004:00000bc4       $pdata$little2_ignoreSectionTok 0000000180045bc4     libexpat:xmltok.obj
 0004:00000bd0       $pdata$little2_isPublicId  0000000180045bd0     libexpat:xmltok.obj
 0004:00000bdc       $pdata$little2_getAtts     0000000180045bdc     libexpat:xmltok.obj
 0004:00000be8       $pdata$little2_charRefNumber 0000000180045be8     libexpat:xmltok.obj
 0004:00000bf4       $pdata$little2_sameName    0000000180045bf4     libexpat:xmltok.obj
 0004:00000c00       $pdata$big2_scanComment    0000000180045c00     libexpat:xmltok.obj
 0004:00000c0c       $pdata$big2_scanDecl       0000000180045c0c     libexpat:xmltok.obj
 0004:00000c18       $pdata$big2_scanPi         0000000180045c18     libexpat:xmltok.obj
 0004:00000c24       $pdata$big2_cdataSectionTok 0000000180045c24     libexpat:xmltok.obj
 0004:00000c30       $pdata$0$big2_cdataSectionTok 0000000180045c30     libexpat:xmltok.obj
 0004:00000c3c       $pdata$2$big2_cdataSectionTok 0000000180045c3c     libexpat:xmltok.obj
 0004:00000c48       $pdata$4$big2_cdataSectionTok 0000000180045c48     libexpat:xmltok.obj
 0004:00000c54       $pdata$6$big2_cdataSectionTok 0000000180045c54     libexpat:xmltok.obj
 0004:00000c60       $pdata$8$big2_cdataSectionTok 0000000180045c60     libexpat:xmltok.obj
 0004:00000c6c       $pdata$10$big2_cdataSectionTok 0000000180045c6c     libexpat:xmltok.obj
 0004:00000c78       $pdata$12$big2_cdataSectionTok 0000000180045c78     libexpat:xmltok.obj
 0004:00000c84       $pdata$14$big2_cdataSectionTok 0000000180045c84     libexpat:xmltok.obj
 0004:00000c90       $pdata$big2_scanEndTag     0000000180045c90     libexpat:xmltok.obj
 0004:00000c9c       $pdata$big2_scanRef        0000000180045c9c     libexpat:xmltok.obj
 0004:00000ca8       $pdata$0$big2_scanRef      0000000180045ca8     libexpat:xmltok.obj
 0004:00000cb4       $pdata$2$big2_scanRef      0000000180045cb4     libexpat:xmltok.obj
 0004:00000cc0       $pdata$4$big2_scanRef      0000000180045cc0     libexpat:xmltok.obj
 0004:00000ccc       $pdata$6$big2_scanRef      0000000180045ccc     libexpat:xmltok.obj
 0004:00000cd8       $pdata$8$big2_scanRef      0000000180045cd8     libexpat:xmltok.obj
 0004:00000ce4       $pdata$9$big2_scanRef      0000000180045ce4     libexpat:xmltok.obj
 0004:00000cf0       $pdata$big2_scanAtts       0000000180045cf0     libexpat:xmltok.obj
 0004:00000cfc       $pdata$big2_scanLt         0000000180045cfc     libexpat:xmltok.obj
 0004:00000d08       $pdata$big2_contentTok     0000000180045d08     libexpat:xmltok.obj
 0004:00000d14       $pdata$1$big2_contentTok   0000000180045d14     libexpat:xmltok.obj
 0004:00000d20       $pdata$3$big2_contentTok   0000000180045d20     libexpat:xmltok.obj
 0004:00000d2c       $pdata$5$big2_contentTok   0000000180045d2c     libexpat:xmltok.obj
 0004:00000d38       $pdata$7$big2_contentTok   0000000180045d38     libexpat:xmltok.obj
 0004:00000d44       $pdata$9$big2_contentTok   0000000180045d44     libexpat:xmltok.obj
 0004:00000d50       $pdata$11$big2_contentTok  0000000180045d50     libexpat:xmltok.obj
 0004:00000d5c       $pdata$13$big2_contentTok  0000000180045d5c     libexpat:xmltok.obj
 0004:00000d68       $pdata$15$big2_contentTok  0000000180045d68     libexpat:xmltok.obj
 0004:00000d74       $pdata$17$big2_contentTok  0000000180045d74     libexpat:xmltok.obj
 0004:00000d80       $pdata$19$big2_contentTok  0000000180045d80     libexpat:xmltok.obj
 0004:00000d8c       $pdata$20$big2_contentTok  0000000180045d8c     libexpat:xmltok.obj
 0004:00000d98       $pdata$big2_scanPercent    0000000180045d98     libexpat:xmltok.obj
 0004:00000da4       $pdata$0$big2_scanPercent  0000000180045da4     libexpat:xmltok.obj
 0004:00000db0       $pdata$2$big2_scanPercent  0000000180045db0     libexpat:xmltok.obj
 0004:00000dbc       $pdata$4$big2_scanPercent  0000000180045dbc     libexpat:xmltok.obj
 0004:00000dc8       $pdata$6$big2_scanPercent  0000000180045dc8     libexpat:xmltok.obj
 0004:00000dd4       $pdata$8$big2_scanPercent  0000000180045dd4     libexpat:xmltok.obj
 0004:00000de0       $pdata$9$big2_scanPercent  0000000180045de0     libexpat:xmltok.obj
 0004:00000dec       $pdata$big2_scanPoundName  0000000180045dec     libexpat:xmltok.obj
 0004:00000df8       $pdata$0$big2_scanPoundName 0000000180045df8     libexpat:xmltok.obj
 0004:00000e04       $pdata$2$big2_scanPoundName 0000000180045e04     libexpat:xmltok.obj
 0004:00000e10       $pdata$4$big2_scanPoundName 0000000180045e10     libexpat:xmltok.obj
 0004:00000e1c       $pdata$6$big2_scanPoundName 0000000180045e1c     libexpat:xmltok.obj
 0004:00000e28       $pdata$7$big2_scanPoundName 0000000180045e28     libexpat:xmltok.obj
 0004:00000e34       $pdata$big2_scanLit        0000000180045e34     libexpat:xmltok.obj
 0004:00000e40       $pdata$big2_prologTok      0000000180045e40     libexpat:xmltok.obj
 0004:00000e4c       $pdata$2$big2_prologTok    0000000180045e4c     libexpat:xmltok.obj
 0004:00000e58       $pdata$4$big2_prologTok    0000000180045e58     libexpat:xmltok.obj
 0004:00000e64       $pdata$big2_attributeValueTok 0000000180045e64     libexpat:xmltok.obj
 0004:00000e70       $pdata$3$big2_attributeValueTok 0000000180045e70     libexpat:xmltok.obj
 0004:00000e7c       $pdata$5$big2_attributeValueTok 0000000180045e7c     libexpat:xmltok.obj
 0004:00000e88       $pdata$big2_entityValueTok 0000000180045e88     libexpat:xmltok.obj
 0004:00000e94       $pdata$4$big2_entityValueTok 0000000180045e94     libexpat:xmltok.obj
 0004:00000ea0       $pdata$6$big2_entityValueTok 0000000180045ea0     libexpat:xmltok.obj
 0004:00000eac       $pdata$big2_ignoreSectionTok 0000000180045eac     libexpat:xmltok.obj
 0004:00000eb8       $pdata$big2_isPublicId     0000000180045eb8     libexpat:xmltok.obj
 0004:00000ec4       $pdata$big2_getAtts        0000000180045ec4     libexpat:xmltok.obj
 0004:00000ed0       $pdata$big2_charRefNumber  0000000180045ed0     libexpat:xmltok.obj
 0004:00000edc       $pdata$big2_sameName       0000000180045edc     libexpat:xmltok.obj
 0004:00000ee8       $pdata$toAscii             0000000180045ee8     libexpat:xmltok.obj
 0004:00000ef4       $pdata$parsePseudoAttribute 0000000180045ef4     libexpat:xmltok.obj
 0004:00000f00       $pdata$0$parsePseudoAttribute 0000000180045f00     libexpat:xmltok.obj
 0004:00000f0c       $pdata$2$parsePseudoAttribute 0000000180045f0c     libexpat:xmltok.obj
 0004:00000f18       $pdata$4$parsePseudoAttribute 0000000180045f18     libexpat:xmltok.obj
 0004:00000f24       $pdata$doParseXmlDecl      0000000180045f24     libexpat:xmltok.obj
 0004:00000f30       $pdata$unknown_isName      0000000180045f30     libexpat:xmltok.obj
 0004:00000f3c       $pdata$unknown_isNmstrt    0000000180045f3c     libexpat:xmltok.obj
 0004:00000f48       $pdata$unknown_isInvalid   0000000180045f48     libexpat:xmltok.obj
 0004:00000f54       $pdata$unknown_toUtf8      0000000180045f54     libexpat:xmltok.obj
 0004:00000f60       $pdata$unknown_toUtf16     0000000180045f60     libexpat:xmltok.obj
 0004:00000f6c       $pdata$XmlInitUnknownEncoding 0000000180045f6c     libexpat:xmltok.obj
 0004:00000f78       $pdata$getEncodingIndex    0000000180045f78     libexpat:xmltok.obj
 0004:00000f84       $pdata$2$getEncodingIndex  0000000180045f84     libexpat:xmltok.obj
 0004:00000f90       $pdata$4$getEncodingIndex  0000000180045f90     libexpat:xmltok.obj
 0004:00000f9c       $pdata$initScanProlog      0000000180045f9c     libexpat:xmltok.obj
 0004:00000fa8       $pdata$0$initScanProlog    0000000180045fa8     libexpat:xmltok.obj
 0004:00000fb4       $pdata$2$initScanProlog    0000000180045fb4     libexpat:xmltok.obj
 0004:00000fc0       $pdata$4$initScanProlog    0000000180045fc0     libexpat:xmltok.obj
 0004:00000fcc       $pdata$6$initScanProlog    0000000180045fcc     libexpat:xmltok.obj
 0004:00000fd8       $pdata$8$initScanProlog    0000000180045fd8     libexpat:xmltok.obj
 0004:00000fe4       $pdata$10$initScanProlog   0000000180045fe4     libexpat:xmltok.obj
 0004:00000ff0       $pdata$12$initScanProlog   0000000180045ff0     libexpat:xmltok.obj
 0004:00000ffc       $pdata$initScanContent     0000000180045ffc     libexpat:xmltok.obj
 0004:00001008       $pdata$XmlInitEncoding     0000000180046008     libexpat:xmltok.obj
 0004:00001014       $pdata$findEncoding        0000000180046014     libexpat:xmltok.obj
 0004:00001020       $pdata$XmlParseXmlDecl     0000000180046020     libexpat:xmltok.obj
 0004:0000102c       $pdata$initScanPrologNS    000000018004602c     libexpat:xmltok.obj
 0004:00001038       $pdata$0$initScanPrologNS  0000000180046038     libexpat:xmltok.obj
 0004:00001044       $pdata$2$initScanPrologNS  0000000180046044     libexpat:xmltok.obj
 0004:00001050       $pdata$4$initScanPrologNS  0000000180046050     libexpat:xmltok.obj
 0004:0000105c       $pdata$6$initScanPrologNS  000000018004605c     libexpat:xmltok.obj
 0004:00001068       $pdata$8$initScanPrologNS  0000000180046068     libexpat:xmltok.obj
 0004:00001074       $pdata$10$initScanPrologNS 0000000180046074     libexpat:xmltok.obj
 0004:00001080       $pdata$12$initScanPrologNS 0000000180046080     libexpat:xmltok.obj
 0004:0000108c       $pdata$initScanContentNS   000000018004608c     libexpat:xmltok.obj
 0004:00001098       $pdata$XmlInitEncodingNS   0000000180046098     libexpat:xmltok.obj
 0004:000010a4       $pdata$findEncodingNS      00000001800460a4     libexpat:xmltok.obj
 0004:000010b0       $pdata$XmlParseXmlDeclNS   00000001800460b0     libexpat:xmltok.obj
 0004:000010bc       $pdata$XmlInitUnknownEncodingNS 00000001800460bc     libexpat:xmltok.obj
 0004:000010c8       $pdata$prolog0             00000001800460c8     libexpat:xmlrole.obj
 0004:000010d4       $pdata$prolog1             00000001800460d4     libexpat:xmlrole.obj
 0004:000010e0       $pdata$doctype1            00000001800460e0     libexpat:xmlrole.obj
 0004:000010ec       $pdata$0$doctype1          00000001800460ec     libexpat:xmlrole.obj
 0004:000010f8       $pdata$1$doctype1          00000001800460f8     libexpat:xmlrole.obj
 0004:00001104       $pdata$2$doctype1          0000000180046104     libexpat:xmlrole.obj
 0004:00001110       $pdata$3$doctype1          0000000180046110     libexpat:xmlrole.obj
 0004:0000111c       $pdata$internalSubset      000000018004611c     libexpat:xmlrole.obj
 0004:00001128       $pdata$entity2             0000000180046128     libexpat:xmlrole.obj
 0004:00001134       $pdata$0$entity2           0000000180046134     libexpat:xmlrole.obj
 0004:00001140       $pdata$1$entity2           0000000180046140     libexpat:xmlrole.obj
 0004:0000114c       $pdata$2$entity2           000000018004614c     libexpat:xmlrole.obj
 0004:00001158       $pdata$3$entity2           0000000180046158     libexpat:xmlrole.obj
 0004:00001164       $pdata$entity5             0000000180046164     libexpat:xmlrole.obj
 0004:00001170       $pdata$entity7             0000000180046170     libexpat:xmlrole.obj
 0004:0000117c       $pdata$0$entity7           000000018004617c     libexpat:xmlrole.obj
 0004:00001188       $pdata$1$entity7           0000000180046188     libexpat:xmlrole.obj
 0004:00001194       $pdata$2$entity7           0000000180046194     libexpat:xmlrole.obj
 0004:000011a0       $pdata$3$entity7           00000001800461a0     libexpat:xmlrole.obj
 0004:000011ac       $pdata$notation1           00000001800461ac     libexpat:xmlrole.obj
 0004:000011b8       $pdata$0$notation1         00000001800461b8     libexpat:xmlrole.obj
 0004:000011c4       $pdata$1$notation1         00000001800461c4     libexpat:xmlrole.obj
 0004:000011d0       $pdata$2$notation1         00000001800461d0     libexpat:xmlrole.obj
 0004:000011dc       $pdata$3$notation1         00000001800461dc     libexpat:xmlrole.obj
 0004:000011e8       $pdata$attlist2            00000001800461e8     libexpat:xmlrole.obj
 0004:000011f4       $pdata$3$attlist2          00000001800461f4     libexpat:xmlrole.obj
 0004:00001200       $pdata$5$attlist2          0000000180046200     libexpat:xmlrole.obj
 0004:0000120c       $pdata$6$attlist2          000000018004620c     libexpat:xmlrole.obj
 0004:00001218       $pdata$attlist8            0000000180046218     libexpat:xmlrole.obj
 0004:00001224       $pdata$0$attlist8          0000000180046224     libexpat:xmlrole.obj
 0004:00001230       $pdata$1$attlist8          0000000180046230     libexpat:xmlrole.obj
 0004:0000123c       $pdata$2$attlist8          000000018004623c     libexpat:xmlrole.obj
 0004:00001248       $pdata$3$attlist8          0000000180046248     libexpat:xmlrole.obj
 0004:00001254       $pdata$element1            0000000180046254     libexpat:xmlrole.obj
 0004:00001260       $pdata$0$element1          0000000180046260     libexpat:xmlrole.obj
 0004:0000126c       $pdata$1$element1          000000018004626c     libexpat:xmlrole.obj
 0004:00001278       $pdata$2$element1          0000000180046278     libexpat:xmlrole.obj
 0004:00001284       $pdata$3$element1          0000000180046284     libexpat:xmlrole.obj
 0004:00001290       $pdata$element2            0000000180046290     libexpat:xmlrole.obj
 0004:0000129c       $pdata$condSect0           000000018004629c     libexpat:xmlrole.obj
 0004:000012a8       $pdata$0$condSect0         00000001800462a8     libexpat:xmlrole.obj
 0004:000012b4       $pdata$1$condSect0         00000001800462b4     libexpat:xmlrole.obj
 0004:000012c0       $pdata$2$condSect0         00000001800462c0     libexpat:xmlrole.obj
 0004:000012cc       $pdata$3$condSect0         00000001800462cc     libexpat:xmlrole.obj
 0004:000012f0       $pdata$??2@YAPEAX_K@Z      00000001800462f0     LIBCMT:new_scalar.obj
 0004:000012fc       $pdata$?dllmain_crt_dispatch@@YAHQEAUHINSTANCE__@@KQEAX@Z 00000001800462fc     LIBCMT:dll_dllmain.obj
 0004:00001308       $pdata$?dllmain_crt_process_attach@@YAHQEAUHINSTANCE__@@QEAX@Z 0000000180046308     LIBCMT:dll_dllmain.obj
 0004:00001314       $pdata$?dllmain_crt_process_detach@@YAH_N@Z 0000000180046314     LIBCMT:dll_dllmain.obj
 0004:00001320       $pdata$?dllmain_dispatch@@YAHQEAUHINSTANCE__@@KQEAX@Z 0000000180046320     LIBCMT:dll_dllmain.obj
 0004:0000132c       $pdata$_DllMainCRTStartup  000000018004632c     LIBCMT:dll_dllmain.obj
 0004:00001338       $pdata$__raise_securityfailure 0000000180046338     LIBCMT:gs_report.obj
 0004:00001344       $pdata$__report_gsfailure  0000000180046344     LIBCMT:gs_report.obj
 0004:00001350       $pdata$__report_rangecheckfailure 0000000180046350     LIBCMT:gs_report.obj
 0004:0000135c       $pdata$__report_securityfailure 000000018004635c     LIBCMT:gs_report.obj
 0004:00001368       $pdata$capture_current_context 0000000180046368     LIBCMT:gs_report.obj
 0004:00001374       $pdata$capture_previous_context 0000000180046374     LIBCMT:gs_report.obj
 0004:00001380       $pdata$??0bad_alloc@std@@QEAA@AEBV01@@Z 0000000180046380     LIBCMT:throw_bad_alloc.obj
 0004:0000138c       $pdata$??0bad_array_new_length@std@@QEAA@AEBV01@@Z 000000018004638c     LIBCMT:throw_bad_alloc.obj
 0004:00001398       $pdata$??0exception@std@@QEAA@AEBV01@@Z 0000000180046398     LIBCMT:throw_bad_alloc.obj
 0004:000013a4       $pdata$??_Gexception@std@@UEAAPEAXI@Z 00000001800463a4     LIBCMT:throw_bad_alloc.obj
 0004:000013a4       $pdata$??_Gbad_array_new_length@std@@UEAAPEAXI@Z 00000001800463a4     LIBCMT:throw_bad_alloc.obj
 0004:000013a4       $pdata$??_Gbad_alloc@std@@UEAAPEAXI@Z 00000001800463a4     LIBCMT:throw_bad_alloc.obj
 0004:000013b0       $pdata$?__scrt_throw_std_bad_alloc@@YAXXZ 00000001800463b0     LIBCMT:throw_bad_alloc.obj
 0004:000013bc       $pdata$?__scrt_throw_std_bad_array_new_length@@YAXXZ 00000001800463bc     LIBCMT:throw_bad_alloc.obj
 0004:000013c8       $pdata$__security_init_cookie 00000001800463c8     LIBCMT:gs_support.obj
 0004:000013d4       $pdata$__scrt_initialize_default_local_stdio_options 00000001800463d4     LIBCMT:default_local_stdio_options.obj
 0004:000013e0       $pdata$__scrt_acquire_startup_lock 00000001800463e0     LIBCMT:utility.obj
 0004:000013ec       $pdata$__scrt_dllmain_after_initialize_c 00000001800463ec     LIBCMT:utility.obj
 0004:000013f8       $pdata$__scrt_dllmain_before_initialize_c 00000001800463f8     LIBCMT:utility.obj
 0004:00001404       $pdata$__scrt_dllmain_crt_thread_attach 0000000180046404     LIBCMT:utility.obj
 0004:00001410       $pdata$__scrt_dllmain_crt_thread_detach 0000000180046410     LIBCMT:utility.obj
 0004:0000141c       $pdata$__scrt_dllmain_exception_filter 000000018004641c     LIBCMT:utility.obj
 0004:00001428       $pdata$__scrt_dllmain_uninitialize_c 0000000180046428     LIBCMT:utility.obj
 0004:00001434       $pdata$__scrt_dllmain_uninitialize_critical 0000000180046434     LIBCMT:utility.obj
 0004:00001440       $pdata$__scrt_initialize_crt 0000000180046440     LIBCMT:utility.obj
 0004:0000144c       $pdata$__scrt_initialize_onexit_tables 000000018004644c     LIBCMT:utility.obj
 0004:00001458       $pdata$__scrt_is_nonwritable_in_current_image 0000000180046458     LIBCMT:utility.obj
 0004:00001464       $pdata$__scrt_release_startup_lock 0000000180046464     LIBCMT:utility.obj
 0004:00001470       $pdata$__scrt_uninitialize_crt 0000000180046470     LIBCMT:utility.obj
 0004:0000147c       $pdata$__scrt_fastfail     000000018004647c     LIBCMT:utility_desktop.obj
 0004:00001488       $pdata$_RTC_Initialize     0000000180046488     LIBCMT:initsect.obj
 0004:00001494       $pdata$_RTC_Terminate      0000000180046494     LIBCMT:initsect.obj
 0004:000014a0       $pdata$??_Gtype_info@@UEAAPEAXI@Z 00000001800464a0     LIBCMT:std_type_info_static.obj
 0004:000014ac       $pdata$__isa_available_init 00000001800464ac     LIBCMT:cpu_disp.obj
 0004:000014b8       $pdata$__C_specific_handler 00000001800464b8     libvcruntime:riscchandler.obj
 0004:000014c4       $pdata$__std_exception_copy 00000001800464c4     libvcruntime:std_exception.obj
 0004:000014d0       $pdata$__std_exception_destroy 00000001800464d0     libvcruntime:std_exception.obj
 0004:000014dc       $pdata$_CxxThrowException  00000001800464dc     libvcruntime:throw.obj
 0004:000014e8       $pdata$__std_type_info_destroy_list 00000001800464e8     libvcruntime:std_type_info.obj
 0004:000014f4       $pdata$__vcrt_initialize   00000001800464f4     libvcruntime:initialization.obj
 0004:00001500       $pdata$__vcrt_thread_attach 0000000180046500     libvcruntime:initialization.obj
 0004:0000150c       $pdata$__vcrt_thread_detach 000000018004650c     libvcruntime:initialization.obj
 0004:00001518       $pdata$__vcrt_uninitialize 0000000180046518     libvcruntime:initialization.obj
 0004:00001524       $pdata$__vcrt_uninitialize_critical 0000000180046524     libvcruntime:initialization.obj
 0004:0000156c       $pdata$__DestructExceptionObject 000000018004656c     libvcruntime:ehhelpers.obj
 0004:00001578       $pdata$__vcrt_freefls      0000000180046578     libvcruntime:per_thread_data.obj
 0004:00001584       $pdata$__vcrt_freeptd      0000000180046584     libvcruntime:per_thread_data.obj
 0004:00001590       $pdata$__vcrt_getptd_noexit 0000000180046590     libvcruntime:per_thread_data.obj
 0004:0000159c       $pdata$__vcrt_initialize_ptd 000000018004659c     libvcruntime:per_thread_data.obj
 0004:000015a8       $pdata$__vcrt_uninitialize_ptd 00000001800465a8     libvcruntime:per_thread_data.obj
 0004:000015b4       $pdata$__vcrt_initialize_locks 00000001800465b4     libvcruntime:locks.obj
 0004:000015c0       $pdata$__vcrt_uninitialize_locks 00000001800465c0     libvcruntime:locks.obj
 0004:000015cc       $pdata$?try_get_function@@YAPEAXW4function_id@?A0xa3b92138@@QEBDQEBW4module_id@2@2@Z 00000001800465cc     libvcruntime:winapi_downlevel.obj
 0004:000015d8       $pdata$__vcrt_FlsAlloc     00000001800465d8     libvcruntime:winapi_downlevel.obj
 0004:000015e4       $pdata$__vcrt_FlsFree      00000001800465e4     libvcruntime:winapi_downlevel.obj
 0004:000015f0       $pdata$__vcrt_FlsGetValue  00000001800465f0     libvcruntime:winapi_downlevel.obj
 0004:000015fc       $pdata$__vcrt_FlsSetValue  00000001800465fc     libvcruntime:winapi_downlevel.obj
 0004:00001608       $pdata$__vcrt_InitializeCriticalSectionEx 0000000180046608     libvcruntime:winapi_downlevel.obj
 0004:00001614       $pdata$__vcrt_initialize_winapi_thunks 0000000180046614     libvcruntime:winapi_downlevel.obj
 0004:00001620       $pdata$__vcrt_uninitialize_winapi_thunks 0000000180046620     libvcruntime:winapi_downlevel.obj
 0004:0000165c       $pdata$??$common_assert_to_message_box@_W@@YAXQEB_W0IQEAX@Z 000000018004665c     libucrt:assert.obj
 0004:00001668       $pdata$??$common_assert_to_message_box_build_string@_W@@YAXQEA_W_KQEB_W2IQEAX@Z 0000000180046668     libucrt:assert.obj
 0004:00001674       $pdata$??$common_assert_to_stderr@_W@@YAXQEB_W0I@Z 0000000180046674     libucrt:assert.obj
 0004:00001680       $pdata$_wassert            0000000180046680     libucrt:assert.obj
 0004:0000168c       $pdata$fwprintf            000000018004668c     libucrt:assert.obj
 0004:00001698       $pdata$swprintf            0000000180046698     libucrt:assert.obj
 0004:000016a4       $pdata$??0_LocaleUpdate@@QEAA@QEAU__crt_locale_pointers@@@Z 00000001800466a4     libucrt:stricmp.obj
 0004:000016b0       $pdata$_stricmp            00000001800466b0     libucrt:stricmp.obj
 0004:000016bc       $pdata$_stricmp_l          00000001800466bc     libucrt:stricmp.obj
 0004:000016c8       $pdata$__acrt_initialize_stdio 00000001800466c8     libucrt:_file.obj
 0004:000016d4       $pdata$__acrt_uninitialize_stdio 00000001800466d4     libucrt:_file.obj
 0004:000016e0       $pdata$??$?RV<lambda_0d412022a4b28cc8a401ea49574e8ae6>@@AEAV<lambda_a775ed57af18ba8e4d5dc780aa9068fe>@@V<lambda_975a71a6baa488a08f4e15f6b0339b9e>@@@?$__crt_seh_guarded_call@H@@QEAAH$$QEAV<lambda_0d412022a4b28cc8a401ea49574e8ae6>@@AEAV<lambda_a775ed57af18ba8e4d5dc780aa9068fe>@@$$QEAV<lambda_975a71a6baa488a08f4e15f6b0339b9e>@@@Z 00000001800466e0     libucrt:output.obj
 0004:000016ec       $pdata$??$?RV<lambda_a62c933ada0517137acf5807a1eeac1f>@@AEAV<lambda_a31071773b9a94e445cbd5d04ef99106>@@V<lambda_56065050dbf3ada7e59a83db45153de3>@@@?$__crt_seh_guarded_call@H@@QEAAH$$QEAV<lambda_a62c933ada0517137acf5807a1eeac1f>@@AEAV<lambda_a31071773b9a94e445cbd5d04ef99106>@@$$QEAV<lambda_56065050dbf3ada7e59a83db45153de3>@@@Z 00000001800466ec     libucrt:output.obj
 0004:000016f8       $pdata$??$common_vsprintf@Vstandard_base@__crt_stdio_output@@_W@@YAH_KQEA_W0QEB_WQEAU__crt_locale_pointers@@QEAD@Z 00000001800466f8     libucrt:output.obj
 0004:00001704       $pdata$??$ensure_buffer_is_big_enough@D@formatting_buffer@__crt_stdio_output@@QEAA_N_K@Z 0000000180046704     libucrt:output.obj
 0004:00001710       $pdata$??$ensure_buffer_is_big_enough@_W@formatting_buffer@__crt_stdio_output@@QEAA_N_K@Z 0000000180046710     libucrt:output.obj
 0004:0000171c       $pdata$??$type_case_integer_parse_into_buffer@I@?$output_processor@DV?$stream_output_adapter@D@__crt_stdio_output@@V?$standard_base@DV?$stream_output_adapter@D@__crt_stdio_output@@@2@@__crt_stdio_output@@AEAAXII_N@Z 000000018004671c     libucrt:output.obj
 0004:00001728       $pdata$??$type_case_integer_parse_into_buffer@I@?$output_processor@_WV?$string_output_adapter@_W@__crt_stdio_output@@V?$standard_base@_WV?$string_output_adapter@_W@__crt_stdio_output@@@2@@__crt_stdio_output@@AEAAXII_N@Z 0000000180046728     libucrt:output.obj
 0004:00001728       $pdata$??$type_case_integer_parse_into_buffer@I@?$output_processor@_WV?$stream_output_adapter@_W@__crt_stdio_output@@V?$standard_base@_WV?$stream_output_adapter@_W@__crt_stdio_output@@@2@@__crt_stdio_output@@AEAAXII_N@Z 0000000180046728     libucrt:output.obj
 0004:00001734       $pdata$??$type_case_integer_parse_into_buffer@_K@?$output_processor@DV?$stream_output_adapter@D@__crt_stdio_output@@V?$standard_base@DV?$stream_output_adapter@D@__crt_stdio_output@@@2@@__crt_stdio_output@@AEAAX_KI_N@Z 0000000180046734     libucrt:output.obj
 0004:00001740       $pdata$??$type_case_integer_parse_into_buffer@_K@?$output_processor@_WV?$string_output_adapter@_W@__crt_stdio_output@@V?$standard_base@_WV?$string_output_adapter@_W@__crt_stdio_output@@@2@@__crt_stdio_output@@AEAAX_KI_N@Z 0000000180046740     libucrt:output.obj
 0004:00001740       $pdata$??$type_case_integer_parse_into_buffer@_K@?$output_processor@_WV?$stream_output_adapter@_W@__crt_stdio_output@@V?$standard_base@_WV?$stream_output_adapter@_W@__crt_stdio_output@@@2@@__crt_stdio_output@@AEAAX_KI_N@Z 0000000180046740     libucrt:output.obj
 0004:0000174c       $pdata$??$write_multiple_characters@V?$stream_output_adapter@D@__crt_stdio_output@@D@__crt_stdio_output@@YAXAEBV?$stream_output_adapter@D@0@DHQEAH@Z 000000018004674c     libucrt:output.obj
 0004:00001758       $pdata$??$write_multiple_characters@V?$stream_output_adapter@_W@__crt_stdio_output@@D@__crt_stdio_output@@YAXAEBV?$stream_output_adapter@_W@0@DHQEAH@Z 0000000180046758     libucrt:output.obj
 0004:00001764       $pdata$??$write_multiple_characters@V?$string_output_adapter@_W@__crt_stdio_output@@D@__crt_stdio_output@@YAXAEBV?$string_output_adapter@_W@0@DHQEAH@Z 0000000180046764     libucrt:output.obj
 0004:00001770       $pdata$??R<lambda_a31071773b9a94e445cbd5d04ef99106>@@QEBAHXZ 0000000180046770     libucrt:output.obj
 0004:0000177c       $pdata$??R<lambda_a775ed57af18ba8e4d5dc780aa9068fe>@@QEBAHXZ 000000018004677c     libucrt:output.obj
 0004:00001788       $pdata$?force_decimal_point@__crt_stdio_output@@YAXPEADQEAU__crt_locale_pointers@@@Z 0000000180046788     libucrt:output.obj
 0004:00001794       $pdata$?parse_int_from_format_string@?$output_processor@DV?$stream_output_adapter@D@__crt_stdio_output@@V?$standard_base@DV?$stream_output_adapter@D@__crt_stdio_output@@@2@@__crt_stdio_output@@AEAA_NQEAH@Z 0000000180046794     libucrt:output.obj
 0004:000017a0       $pdata$?parse_int_from_format_string@?$output_processor@_WV?$string_output_adapter@_W@__crt_stdio_output@@V?$standard_base@_WV?$string_output_adapter@_W@__crt_stdio_output@@@2@@__crt_stdio_output@@AEAA_NQEAH@Z 00000001800467a0     libucrt:output.obj
 0004:000017a0       $pdata$?parse_int_from_format_string@?$output_processor@_WV?$stream_output_adapter@_W@__crt_stdio_output@@V?$standard_base@_WV?$stream_output_adapter@_W@__crt_stdio_output@@@2@@__crt_stdio_output@@AEAA_NQEAH@Z 00000001800467a0     libucrt:output.obj
 0004:000017ac       $pdata$?process@?$output_processor@DV?$stream_output_adapter@D@__crt_stdio_output@@V?$standard_base@DV?$stream_output_adapter@D@__crt_stdio_output@@@2@@__crt_stdio_output@@QEAAHXZ 00000001800467ac     libucrt:output.obj
 0004:000017b8       $pdata$?process@?$output_processor@_WV?$stream_output_adapter@_W@__crt_stdio_output@@V?$standard_base@_WV?$stream_output_adapter@_W@__crt_stdio_output@@@2@@__crt_stdio_output@@QEAAHXZ 00000001800467b8     libucrt:output.obj
 0004:000017c4       $pdata$?process@?$output_processor@_WV?$string_output_adapter@_W@__crt_stdio_output@@V?$standard_base@_WV?$string_output_adapter@_W@__crt_stdio_output@@@2@@__crt_stdio_output@@QEAAHXZ 00000001800467c4     libucrt:output.obj
 0004:000017d0       $pdata$?state_case_normal@?$output_processor@DV?$stream_output_adapter@D@__crt_stdio_output@@V?$standard_base@DV?$stream_output_adapter@D@__crt_stdio_output@@@2@@__crt_stdio_output@@AEAA_NXZ 00000001800467d0     libucrt:output.obj
 0004:000017dc       $pdata$?state_case_normal_tchar@?$output_processor@DV?$stream_output_adapter@D@__crt_stdio_output@@V?$standard_base@DV?$stream_output_adapter@D@__crt_stdio_output@@@2@@__crt_stdio_output@@AEAA_ND@Z 00000001800467dc     libucrt:output.obj
 0004:000017e8       $pdata$?state_case_size@?$output_processor@DV?$stream_output_adapter@D@__crt_stdio_output@@V?$standard_base@DV?$stream_output_adapter@D@__crt_stdio_output@@@2@@__crt_stdio_output@@AEAA_NXZ 00000001800467e8     libucrt:output.obj
 0004:000017f4       $pdata$?state_case_size@?$output_processor@_WV?$stream_output_adapter@_W@__crt_stdio_output@@V?$standard_base@_WV?$stream_output_adapter@_W@__crt_stdio_output@@@2@@__crt_stdio_output@@AEAA_NXZ 00000001800467f4     libucrt:output.obj
 0004:00001800       $pdata$?state_case_size@?$output_processor@_WV?$string_output_adapter@_W@__crt_stdio_output@@V?$standard_base@_WV?$string_output_adapter@_W@__crt_stdio_output@@@2@@__crt_stdio_output@@AEAA_NXZ 0000000180046800     libucrt:output.obj
 0004:0000180c       $pdata$?state_case_type@?$output_processor@DV?$stream_output_adapter@D@__crt_stdio_output@@V?$standard_base@DV?$stream_output_adapter@D@__crt_stdio_output@@@2@@__crt_stdio_output@@AEAA_NXZ 000000018004680c     libucrt:output.obj
 0004:00001818       $pdata$?state_case_type@?$output_processor@_WV?$stream_output_adapter@_W@__crt_stdio_output@@V?$standard_base@_WV?$stream_output_adapter@_W@__crt_stdio_output@@@2@@__crt_stdio_output@@AEAA_NXZ 0000000180046818     libucrt:output.obj
 0004:00001824       $pdata$?state_case_type@?$output_processor@_WV?$string_output_adapter@_W@__crt_stdio_output@@V?$standard_base@_WV?$string_output_adapter@_W@__crt_stdio_output@@@2@@__crt_stdio_output@@AEAA_NXZ 0000000180046824     libucrt:output.obj
 0004:00001830       $pdata$?type_case_Z@?$output_processor@_WV?$string_output_adapter@_W@__crt_stdio_output@@V?$standard_base@_WV?$string_output_adapter@_W@__crt_stdio_output@@@2@@__crt_stdio_output@@AEAA_NXZ 0000000180046830     libucrt:output.obj
 0004:00001830       $pdata$?type_case_Z@?$output_processor@_WV?$stream_output_adapter@_W@__crt_stdio_output@@V?$standard_base@_WV?$stream_output_adapter@_W@__crt_stdio_output@@@2@@__crt_stdio_output@@AEAA_NXZ 0000000180046830     libucrt:output.obj
 0004:0000183c       $pdata$?type_case_a@?$output_processor@DV?$stream_output_adapter@D@__crt_stdio_output@@V?$standard_base@DV?$stream_output_adapter@D@__crt_stdio_output@@@2@@__crt_stdio_output@@AEAA_NXZ 000000018004683c     libucrt:output.obj
 0004:00001848       $pdata$?type_case_a@?$output_processor@_WV?$stream_output_adapter@_W@__crt_stdio_output@@V?$standard_base@_WV?$stream_output_adapter@_W@__crt_stdio_output@@@2@@__crt_stdio_output@@AEAA_NXZ 0000000180046848     libucrt:output.obj
 0004:00001848       $pdata$?type_case_a@?$output_processor@_WV?$string_output_adapter@_W@__crt_stdio_output@@V?$standard_base@_WV?$string_output_adapter@_W@__crt_stdio_output@@@2@@__crt_stdio_output@@AEAA_NXZ 0000000180046848     libucrt:output.obj
 0004:00001854       $pdata$?type_case_c_tchar@?$output_processor@DV?$stream_output_adapter@D@__crt_stdio_output@@V?$standard_base@DV?$stream_output_adapter@D@__crt_stdio_output@@@2@@__crt_stdio_output@@AEAA_ND@Z 0000000180046854     libucrt:output.obj
 0004:00001860       $pdata$?type_case_c_tchar@?$output_processor@_WV?$stream_output_adapter@_W@__crt_stdio_output@@V?$standard_base@_WV?$stream_output_adapter@_W@__crt_stdio_output@@@2@@__crt_stdio_output@@AEAA_N_W@Z 0000000180046860     libucrt:output.obj
 0004:00001860       $pdata$?type_case_c_tchar@?$output_processor@_WV?$string_output_adapter@_W@__crt_stdio_output@@V?$standard_base@_WV?$string_output_adapter@_W@__crt_stdio_output@@@2@@__crt_stdio_output@@AEAA_N_W@Z 0000000180046860     libucrt:output.obj
 0004:0000186c       $pdata$?type_case_integer@?$output_processor@DV?$stream_output_adapter@D@__crt_stdio_output@@V?$standard_base@DV?$stream_output_adapter@D@__crt_stdio_output@@@2@@__crt_stdio_output@@AEAA_NI_N@Z 000000018004686c     libucrt:output.obj
 0004:00001878       $pdata$?type_case_integer@?$output_processor@_WV?$string_output_adapter@_W@__crt_stdio_output@@V?$standard_base@_WV?$string_output_adapter@_W@__crt_stdio_output@@@2@@__crt_stdio_output@@AEAA_NI_N@Z 0000000180046878     libucrt:output.obj
 0004:00001878       $pdata$?type_case_integer@?$output_processor@_WV?$stream_output_adapter@_W@__crt_stdio_output@@V?$standard_base@_WV?$stream_output_adapter@_W@__crt_stdio_output@@@2@@__crt_stdio_output@@AEAA_NI_N@Z 0000000180046878     libucrt:output.obj
 0004:00001884       $pdata$?type_case_n@?$output_processor@_WV?$string_output_adapter@_W@__crt_stdio_output@@V?$standard_base@_WV?$string_output_adapter@_W@__crt_stdio_output@@@2@@__crt_stdio_output@@AEAA_NXZ 0000000180046884     libucrt:output.obj
 0004:00001884       $pdata$?type_case_n@?$output_processor@_WV?$stream_output_adapter@_W@__crt_stdio_output@@V?$standard_base@_WV?$stream_output_adapter@_W@__crt_stdio_output@@@2@@__crt_stdio_output@@AEAA_NXZ 0000000180046884     libucrt:output.obj
 0004:00001884       $pdata$?type_case_n@?$output_processor@DV?$stream_output_adapter@D@__crt_stdio_output@@V?$standard_base@DV?$stream_output_adapter@D@__crt_stdio_output@@@2@@__crt_stdio_output@@AEAA_NXZ 0000000180046884     libucrt:output.obj
 0004:00001890       $pdata$?type_case_s@?$output_processor@DV?$stream_output_adapter@D@__crt_stdio_output@@V?$standard_base@DV?$stream_output_adapter@D@__crt_stdio_output@@@2@@__crt_stdio_output@@AEAA_NXZ 0000000180046890     libucrt:output.obj
 0004:0000189c       $pdata$?type_case_s@?$output_processor@_WV?$stream_output_adapter@_W@__crt_stdio_output@@V?$standard_base@_WV?$stream_output_adapter@_W@__crt_stdio_output@@@2@@__crt_stdio_output@@AEAA_NXZ 000000018004689c     libucrt:output.obj
 0004:0000189c       $pdata$?type_case_s@?$output_processor@_WV?$string_output_adapter@_W@__crt_stdio_output@@V?$standard_base@_WV?$string_output_adapter@_W@__crt_stdio_output@@@2@@__crt_stdio_output@@AEAA_NXZ 000000018004689c     libucrt:output.obj
 0004:000018a8       $pdata$?validate_stream_is_ansi_if_required@?$__acrt_stdio_char_traits@D@@SA_NQEAU_iobuf@@@Z 00000001800468a8     libucrt:output.obj
 0004:000018b4       $pdata$?write_stored_string_tchar@?$output_processor@DV?$stream_output_adapter@D@__crt_stdio_output@@V?$standard_base@DV?$stream_output_adapter@D@__crt_stdio_output@@@2@@__crt_stdio_output@@AEAA_ND@Z 00000001800468b4     libucrt:output.obj
 0004:000018c0       $pdata$?write_stored_string_tchar@?$output_processor@_WV?$stream_output_adapter@_W@__crt_stdio_output@@V?$standard_base@_WV?$stream_output_adapter@_W@__crt_stdio_output@@@2@@__crt_stdio_output@@AEAA_N_W@Z 00000001800468c0     libucrt:output.obj
 0004:000018cc       $pdata$?write_stored_string_tchar@?$output_processor@_WV?$string_output_adapter@_W@__crt_stdio_output@@V?$standard_base@_WV?$string_output_adapter@_W@__crt_stdio_output@@@2@@__crt_stdio_output@@AEAA_N_W@Z 00000001800468cc     libucrt:output.obj
 0004:000018d8       $pdata$?write_string@?$string_output_adapter@_W@__crt_stdio_output@@QEBAXQEB_WHQEAHAEAV__crt_deferred_errno_cache@@@Z 00000001800468d8     libucrt:output.obj
 0004:000018e4       $pdata$?write_string_impl@?$output_adapter_common@DV?$stream_output_adapter@D@__crt_stdio_output@@@__crt_stdio_output@@IEBAXQEBDHQEAHAEAV__crt_deferred_errno_cache@@@Z 00000001800468e4     libucrt:output.obj
 0004:000018f0       $pdata$?write_string_impl@?$output_adapter_common@_WV?$stream_output_adapter@_W@__crt_stdio_output@@@__crt_stdio_output@@IEBAXQEB_WHQEAHAEAV__crt_deferred_errno_cache@@@Z 00000001800468f0     libucrt:output.obj
 0004:000018fc       $pdata$__stdio_common_vfprintf 00000001800468fc     libucrt:output.obj
 0004:00001908       $pdata$__stdio_common_vfwprintf 0000000180046908     libucrt:output.obj
 0004:00001914       $pdata$??$common_getenv@D@@YAPEADQEBD@Z 0000000180046914     libucrt:getenv.obj
 0004:00001920       $pdata$??$common_getenv_nolock@D@@YAPEADQEBD@Z 0000000180046920     libucrt:getenv.obj
 0004:0000192c       $pdata$_callnewh           000000018004692c     libucrt:new_handler.obj
 0004:00001938       $pdata$_query_new_handler  0000000180046938     libucrt:new_handler.obj
 0004:00001944       $pdata$_initterm           0000000180046944     libucrt:initterm.obj
 0004:00001950       $pdata$_initterm_e         0000000180046950     libucrt:initterm.obj
 0004:0000195c       $pdata$_seh_filter_exe     000000018004695c     libucrt:exception_filter.obj
 0004:00001968       $pdata$??$?RV<lambda_d80eeec6fff315bfe5c115232f3240e3>@@AEAV<lambda_6e4b09c48022b2350581041d5f6b0c4c>@@V<lambda_2358e3775559c9db80273638284d5e45>@@@?$__crt_seh_guarded_call@X@@QEAAX$$QEAV<lambda_d80eeec6fff315bfe5c115232f3240e3>@@AEAV<lambda_6e4b09c48022b2350581041d5f6b0c4c>@@$$QEAV<lambda_2358e3775559c9db80273638284d5e45>@@@Z 0000000180046968     libucrt:exit.obj
 0004:00001974       $pdata$??R<lambda_6e4b09c48022b2350581041d5f6b0c4c>@@QEBA@XZ 0000000180046974     libucrt:exit.obj
 0004:00001980       $pdata$?common_exit@@YAXHW4_crt_exit_cleanup_mode@@W4_crt_exit_return_mode@@@Z 0000000180046980     libucrt:exit.obj
 0004:0000198c       $pdata$?exit_or_terminate_process@@YAXI@Z 000000018004698c     libucrt:exit.obj
 0004:00001998       $pdata$?try_cor_exit_process@@YAXI@Z 0000000180046998     libucrt:exit.obj
 0004:000019a4       $pdata$??$parse_command_line@D@@YAXPEADPEAPEAD0PEA_K2@Z 00000001800469a4     libucrt:argv_parsing.obj
 0004:000019b0       $pdata$__acrt_allocate_buffer_for_argv 00000001800469b0     libucrt:argv_parsing.obj
 0004:000019bc       $pdata$_configure_narrow_argv 00000001800469bc     libucrt:argv_parsing.obj
 0004:000019c8       $pdata$??$common_initialize_environment_nolock@D@@YAHXZ 00000001800469c8     libucrt:environment_initialization.obj
 0004:000019d4       $pdata$??$create_environment@D@@YAQEAPEADQEAD@Z 00000001800469d4     libucrt:environment_initialization.obj
 0004:000019e0       $pdata$??$free_environment@D@@YAXQEAPEAD@Z 00000001800469e0     libucrt:environment_initialization.obj
 0004:000019e0       $pdata$??$free_environment@_W@@YAXQEAPEA_W@Z 00000001800469e0     libucrt:environment_initialization.obj
 0004:000019ec       $pdata$??$initialize_environment_by_cloning_nolock@D@@YAHXZ 00000001800469ec     libucrt:environment_initialization.obj
 0004:000019f8       $pdata$??$uninitialize_environment_internal@D@@YAXAEAPEAPEAD@Z 00000001800469f8     libucrt:environment_initialization.obj
 0004:00001a04       $pdata$??$uninitialize_environment_internal@_W@@YAXAEAPEAPEA_W@Z 0000000180046a04     libucrt:environment_initialization.obj
 0004:00001a10       $pdata$__dcrt_get_or_create_narrow_environment_nolock 0000000180046a10     libucrt:environment_initialization.obj
 0004:00001a1c       $pdata$__dcrt_uninitialize_environments_nolock 0000000180046a1c     libucrt:environment_initialization.obj
 0004:00001a28       $pdata$??$?RV<lambda_7777bce6b2f8c936911f934f8298dc43>@@AEAV<lambda_f03950bc5685219e0bcd2087efbe011e>@@V<lambda_3883c3dff614d5e0c5f61bb1ac94921c>@@@?$__crt_seh_guarded_call@H@@QEAAH$$QEAV<lambda_7777bce6b2f8c936911f934f8298dc43>@@AEAV<lambda_f03950bc5685219e0bcd2087efbe011e>@@$$QEAV<lambda_3883c3dff614d5e0c5f61bb1ac94921c>@@@Z 0000000180046a28     libucrt:onexit.obj
 0004:00001a34       $pdata$??R<lambda_f03950bc5685219e0bcd2087efbe011e>@@QEBAHXZ 0000000180046a34     libucrt:onexit.obj
 0004:00001a40       $pdata$_execute_onexit_table 0000000180046a40     libucrt:onexit.obj
 0004:00001a4c       $pdata$initialize_c        0000000180046a4c     libucrt:initialization.obj
 0004:00001a58       $pdata$uninitialize_environment 0000000180046a58     libucrt:initialization.obj
 0004:00001a64       $pdata$initialize_pointers 0000000180046a64     libucrt:initialization.obj
 0004:00001a70       $pdata$uninitialize_allocated_memory 0000000180046a70     libucrt:initialization.obj
 0004:00001a7c       $pdata$uninitialize_allocated_io_buffers 0000000180046a7c     libucrt:initialization.obj
 0004:00001a88       $pdata$__acrt_thread_attach 0000000180046a88     libucrt:initialization.obj
 0004:00001a94       $pdata$__acrt_thread_detach 0000000180046a94     libucrt:initialization.obj
 0004:00001aa0       $pdata$__acrt_uninitialize 0000000180046aa0     libucrt:initialization.obj
 0004:00001aac       $pdata$__acrt_uninitialize_critical 0000000180046aac     libucrt:initialization.obj
 0004:00001ab8       $pdata$terminate           0000000180046ab8     libucrt:terminate.obj
 0004:00001ac4       $pdata$strcpy_s            0000000180046ac4     libucrt:strcpy_s.obj
 0004:00001ad0       $pdata$??$parse_integer@KV?$c_string_character_source@D@__crt_strtox@@@__crt_strtox@@YAKQEAU__crt_locale_pointers@@V?$c_string_character_source@D@0@H_N@Z 0000000180046ad0     libucrt:atox.obj
 0004:00001adc       $pdata$??$parse_integer@KV?$c_string_character_source@_W@__crt_strtox@@@__crt_strtox@@YAKQEAU__crt_locale_pointers@@V?$c_string_character_source@_W@0@H_N@Z 0000000180046adc     libucrt:atox.obj
 0004:00001af4       $pdata$abort               0000000180046af4     libucrt:abort.obj
 0004:00001b00       $pdata$_free_base          0000000180046b00     libucrt:free_base.obj
 0004:00001b0c       $pdata$__acrt_call_reportfault 0000000180046b0c     libucrt:invalid_parameter.obj
 0004:00001b18       $pdata$_invalid_parameter  0000000180046b18     libucrt:invalid_parameter.obj
 0004:00001b24       $pdata$_invalid_parameter_noinfo 0000000180046b24     libucrt:invalid_parameter.obj
 0004:00001b30       $pdata$_invoke_watson      0000000180046b30     libucrt:invalid_parameter.obj
 0004:00001b3c       $pdata$__acrt_errno_map_os_error 0000000180046b3c     libucrt:errno.obj
 0004:00001b48       $pdata$__doserrno          0000000180046b48     libucrt:errno.obj
 0004:00001b54       $pdata$_errno              0000000180046b54     libucrt:errno.obj
 0004:00001b60       $pdata$??$common_xtox@K_W@@YAHKQEA_W_KI_N@Z 0000000180046b60     libucrt:xtoa.obj
 0004:00001b6c       $pdata$??$common_xtox_s@K_W@@YAHKQEA_W_KI_N@Z 0000000180046b6c     libucrt:xtoa.obj
 0004:00001b78       $pdata$_itow_s             0000000180046b78     libucrt:xtoa.obj
 0004:00001b84       $pdata$_set_error_mode     0000000180046b84     libucrt:set_error_mode.obj
 0004:00001b90       $pdata$wcscat_s            0000000180046b90     libucrt:wcscat_s.obj
 0004:00001b9c       $pdata$wcscpy_s            0000000180046b9c     libucrt:wcscpy_s.obj
 0004:00001ba8       $pdata$wcsncat_s           0000000180046ba8     libucrt:wcsncat_s.obj
 0004:00001bb4       $pdata$??$__acrt_wcs_to_mbs_cp@U__crt_win32_buffer_no_resizing@@@@YAHQEB_WAEAV?$__crt_win32_buffer@DU__crt_win32_buffer_no_resizing@@@@I@Z 0000000180046bb4     libucrt:getmodulefilenamea.obj
 0004:00001bc0       $pdata$__acrt_GetModuleFileNameA 0000000180046bc0     libucrt:getmodulefilenamea.obj
 0004:00001bcc       $pdata$__acrt_show_wide_message_box 0000000180046bcc     libucrt:crtmbox.obj
 0004:00001bd8       $pdata$??$?RV<lambda_842d9ff0dc9ef11c61343bbaebe7f885>@@AEAV<lambda_c5860995281e5c4ce005b3de8f5874ee>@@V<lambda_d90129c13df834fdcbf8d2b88dafcf2d>@@@?$__crt_seh_guarded_call@X@@QEAAX$$QEAV<lambda_842d9ff0dc9ef11c61343bbaebe7f885>@@AEAV<lambda_c5860995281e5c4ce005b3de8f5874ee>@@$$QEAV<lambda_d90129c13df834fdcbf8d2b88dafcf2d>@@@Z 0000000180046bd8     libucrt:fflush.obj
 0004:00001be4       $pdata$??$?RV<lambda_886d6c58226a84441f68b9f2b8217b83>@@AEAV<lambda_ab61a845afdef5b7c387490eaf3616ee>@@V<lambda_f7f22ab5edc0698d5f6905b0d3f44752>@@@?$__crt_seh_guarded_call@X@@QEAAX$$QEAV<lambda_886d6c58226a84441f68b9f2b8217b83>@@AEAV<lambda_ab61a845afdef5b7c387490eaf3616ee>@@$$QEAV<lambda_f7f22ab5edc0698d5f6905b0d3f44752>@@@Z 0000000180046be4     libucrt:fflush.obj
 0004:00001bf0       $pdata$??$?RV<lambda_c376a267cfb53b6959b3b692ec76b120>@@AEAV<lambda_9a32fed5bf61b6b509b2d3f6003082a1>@@V<lambda_572fbb9fa0ab338edf41edfd4b5fcc8d>@@@?$__crt_seh_guarded_call@H@@QEAAH$$QEAV<lambda_c376a267cfb53b6959b3b692ec76b120>@@AEAV<lambda_9a32fed5bf61b6b509b2d3f6003082a1>@@$$QEAV<lambda_572fbb9fa0ab338edf41edfd4b5fcc8d>@@@Z 0000000180046bf0     libucrt:fflush.obj
 0004:00001bfc       $pdata$?common_flush_all@@YAH_N@Z 0000000180046bfc     libucrt:fflush.obj
 0004:00001c08       $pdata$__acrt_stdio_flush_nolock 0000000180046c08     libucrt:fflush.obj
 0004:00001c14       $pdata$_fflush_nolock      0000000180046c14     libucrt:fflush.obj
 0004:00001c20       $pdata$fflush              0000000180046c20     libucrt:fflush.obj
 0004:00001c2c       $pdata$??$?RV<lambda_84ec643ea9557e2f7dc01bb0e9624395>@@AEAV<lambda_ca71763b3c0644891230e4f79ea54fa6>@@V<lambda_439a761618c59b0600e24586724d733b>@@@?$__crt_seh_guarded_call@H@@QEAAH$$QEAV<lambda_84ec643ea9557e2f7dc01bb0e9624395>@@AEAV<lambda_ca71763b3c0644891230e4f79ea54fa6>@@$$QEAV<lambda_439a761618c59b0600e24586724d733b>@@@Z 0000000180046c2c     libucrt:setvbuf.obj
 0004:00001c38       $pdata$??R<lambda_ca71763b3c0644891230e4f79ea54fa6>@@QEBAHXZ 0000000180046c38     libucrt:setvbuf.obj
 0004:00001c44       $pdata$setvbuf             0000000180046c44     libucrt:setvbuf.obj
 0004:00001c50       $pdata$??$?RV<lambda_450d765d439847d4c735a33c368b5fc0>@@AEAV<lambda_44731a7d0e6d81c3e6aa82d741081786>@@V<lambda_601a2a7da3b7a96e9554ac7215c4b07c>@@@?$__crt_seh_guarded_call@P6AXH@Z@@QEAAP6AXH@Z$$QEAV<lambda_450d765d439847d4c735a33c368b5fc0>@@AEAV<lambda_44731a7d0e6d81c3e6aa82d741081786>@@$$QEAV<lambda_601a2a7da3b7a96e9554ac7215c4b07c>@@@Z 0000000180046c50     libucrt:signal.obj
 0004:00001c5c       $pdata$__acrt_get_sigabrt_handler 0000000180046c5c     libucrt:signal.obj
 0004:00001c68       $pdata$raise               0000000180046c68     libucrt:signal.obj
 0004:00001c74       $pdata$_malloc_base        0000000180046c74     libucrt:malloc_base.obj
 0004:00001c80       $pdata$?internal_isupper_l@@YA_NHQEAU__crt_locale_pointers@@@Z 0000000180046c80     libucrt:tolower_toupper.obj
 0004:00001c8c       $pdata$_tolower_l          0000000180046c8c     libucrt:tolower_toupper.obj
 0004:00001c98       $pdata$tolower             0000000180046c98     libucrt:tolower_toupper.obj
 0004:00001ca4       $pdata$??$?RV<lambda_0ae27a3a962d80f24befdcbee591983d>@@AEAV<lambda_8d0ee55de4b1038c4002e0adecdf1839>@@V<lambda_dc504788e8f1664fe9b84e20bfb512f2>@@@?$__crt_seh_guarded_call@X@@QEAAX$$QEAV<lambda_0ae27a3a962d80f24befdcbee591983d>@@AEAV<lambda_8d0ee55de4b1038c4002e0adecdf1839>@@$$QEAV<lambda_dc504788e8f1664fe9b84e20bfb512f2>@@@Z 0000000180046ca4     libucrt:per_thread_data.obj
 0004:00001cb0       $pdata$??$?RV<lambda_2d41944a1d46af3157314b8a01080d33>@@AEAV<lambda_8f455de75cd7d7f24b4096f044d8b9e6>@@V<lambda_aa500f224e6afead328df44964fe2772>@@@?$__crt_seh_guarded_call@X@@QEAAX$$QEAV<lambda_2d41944a1d46af3157314b8a01080d33>@@AEAV<lambda_8f455de75cd7d7f24b4096f044d8b9e6>@@$$QEAV<lambda_aa500f224e6afead328df44964fe2772>@@@Z 0000000180046cb0     libucrt:per_thread_data.obj
 0004:00001cbc       $pdata$??$?RV<lambda_aa87e3671a710a21b5dc78c0bdf72e11>@@AEAV<lambda_92619d2358a28f41a33ba319515a20b9>@@V<lambda_6992ecaafeb10aed2b74cb1fae11a551>@@@?$__crt_seh_guarded_call@X@@QEAAX$$QEAV<lambda_aa87e3671a710a21b5dc78c0bdf72e11>@@AEAV<lambda_92619d2358a28f41a33ba319515a20b9>@@$$QEAV<lambda_6992ecaafeb10aed2b74cb1fae11a551>@@@Z 0000000180046cbc     libucrt:per_thread_data.obj
 0004:00001cc8       $pdata$??$?RV<lambda_f2e299630e499de9f9a165e60fcd3db5>@@AEAV<lambda_2ae9d31cdba2644fcbeaf08da7c24588>@@V<lambda_40d01ff24d0e7b3814fdbdcee8eab3c7>@@@?$__crt_seh_guarded_call@X@@QEAAX$$QEAV<lambda_f2e299630e499de9f9a165e60fcd3db5>@@AEAV<lambda_2ae9d31cdba2644fcbeaf08da7c24588>@@$$QEAV<lambda_40d01ff24d0e7b3814fdbdcee8eab3c7>@@@Z 0000000180046cc8     libucrt:per_thread_data.obj
 0004:00001cd4       $pdata$?construct_ptd_array@@YAXQEAU__acrt_ptd@@@Z 0000000180046cd4     libucrt:per_thread_data.obj
 0004:00001ce0       $pdata$?destroy_fls@@YAXPEAX@Z 0000000180046ce0     libucrt:per_thread_data.obj
 0004:00001cec       $pdata$?destroy_ptd_array@@YAXQEAU__acrt_ptd@@@Z 0000000180046cec     libucrt:per_thread_data.obj
 0004:00001cf8       $pdata$?replace_current_thread_locale_nolock@@YAXQEAU__acrt_ptd@@QEAU__crt_locale_data@@@Z 0000000180046cf8     libucrt:per_thread_data.obj
 0004:00001d04       $pdata$__acrt_freeptd      0000000180046d04     libucrt:per_thread_data.obj
 0004:00001d10       $pdata$__acrt_getptd       0000000180046d10     libucrt:per_thread_data.obj
 0004:00001d1c       $pdata$__acrt_getptd_head  0000000180046d1c     libucrt:per_thread_data.obj
 0004:00001d28       $pdata$__acrt_getptd_noexit 0000000180046d28     libucrt:per_thread_data.obj
 0004:00001d34       $pdata$__acrt_initialize_ptd 0000000180046d34     libucrt:per_thread_data.obj
 0004:00001d40       $pdata$__acrt_uninitialize_ptd 0000000180046d40     libucrt:per_thread_data.obj
 0004:00001d4c       $pdata$__acrt_update_locale_info 0000000180046d4c     libucrt:locale_update.obj
 0004:00001d58       $pdata$__acrt_update_multibyte_info 0000000180046d58     libucrt:locale_update.obj
 0004:00001d64       $pdata$??$?RV<lambda_410d79af7f07d98d83a3f525b3859a53>@@AEAV<lambda_3e16ef9562a7dcce91392c22ab16ea36>@@V<lambda_38119f0e861e05405d8a144b9b982f0a>@@@?$__crt_seh_guarded_call@X@@QEAAX$$QEAV<lambda_410d79af7f07d98d83a3f525b3859a53>@@AEAV<lambda_3e16ef9562a7dcce91392c22ab16ea36>@@$$QEAV<lambda_38119f0e861e05405d8a144b9b982f0a>@@@Z 0000000180046d64     libucrt:wsetlocale.obj
 0004:00001d70       $pdata$__acrt_uninitialize_locale 0000000180046d70     libucrt:wsetlocale.obj
 0004:00001d7c       $pdata$_calloc_base        0000000180046d7c     libucrt:calloc_base.obj
 0004:00001d88       $pdata$?try_get_function@@YAPEAXW4function_id@?A0x391cf84c@@QEBDQEBW4module_id@2@2@Z 0000000180046d88     libucrt:winapi_thunks.obj
 0004:00001d94       $pdata$__acrt_AppPolicyGetProcessTerminationMethodInternal 0000000180046d94     libucrt:winapi_thunks.obj
 0004:00001da0       $pdata$__acrt_AppPolicyGetShowDeveloperDiagnosticInternal 0000000180046da0     libucrt:winapi_thunks.obj
 0004:00001dac       $pdata$__acrt_AppPolicyGetWindowingModelInternal 0000000180046dac     libucrt:winapi_thunks.obj
 0004:00001db8       $pdata$__acrt_AreFileApisANSI 0000000180046db8     libucrt:winapi_thunks.obj
 0004:00001dc4       $pdata$__acrt_CompareStringEx 0000000180046dc4     libucrt:winapi_thunks.obj
 0004:00001dd0       $pdata$__acrt_FlsAlloc     0000000180046dd0     libucrt:winapi_thunks.obj
 0004:00001ddc       $pdata$__acrt_FlsFree      0000000180046ddc     libucrt:winapi_thunks.obj
 0004:00001de8       $pdata$__acrt_FlsGetValue  0000000180046de8     libucrt:winapi_thunks.obj
 0004:00001df4       $pdata$__acrt_FlsSetValue  0000000180046df4     libucrt:winapi_thunks.obj
 0004:00001e00       $pdata$__acrt_InitializeCriticalSectionEx 0000000180046e00     libucrt:winapi_thunks.obj
 0004:00001e0c       $pdata$__acrt_LCMapStringEx 0000000180046e0c     libucrt:winapi_thunks.obj
 0004:00001e18       $pdata$__acrt_LocaleNameToLCID 0000000180046e18     libucrt:winapi_thunks.obj
 0004:00001e24       $pdata$__acrt_MessageBoxW  0000000180046e24     libucrt:winapi_thunks.obj
 0004:00001e30       $pdata$__acrt_can_show_message_box 0000000180046e30     libucrt:winapi_thunks.obj
 0004:00001e3c       $pdata$__acrt_get_parent_window 0000000180046e3c     libucrt:winapi_thunks.obj
 0004:00001e48       $pdata$__acrt_initialize_winapi_thunks 0000000180046e48     libucrt:winapi_thunks.obj
 0004:00001e54       $pdata$__acrt_is_interactive 0000000180046e54     libucrt:winapi_thunks.obj
 0004:00001e60       $pdata$__acrt_uninitialize_winapi_thunks 0000000180046e60     libucrt:winapi_thunks.obj
 0004:00001e6c       $pdata$_fcloseall          0000000180046e6c     libucrt:closeall.obj
 0004:00001e78       $pdata$__acrt_stdio_free_buffer_nolock 0000000180046e78     libucrt:_freebuf.obj
 0004:00001e84       $pdata$?initialize_inherited_file_handles_nolock@@YAXXZ 0000000180046e84     libucrt:ioinit.obj
 0004:00001e90       $pdata$?initialize_stdio_handles_nolock@@YAXXZ 0000000180046e90     libucrt:ioinit.obj
 0004:00001e9c       $pdata$__acrt_initialize_lowio 0000000180046e9c     libucrt:ioinit.obj
 0004:00001ea8       $pdata$__acrt_uninitialize_lowio 0000000180046ea8     libucrt:ioinit.obj
 0004:00001eb4       $pdata$_realloc_base       0000000180046eb4     libucrt:realloc_base.obj
 0004:00001ec0       $pdata$isdigit             0000000180046ec0     libucrt:_ctype.obj
 0004:00001ecc       $pdata$strtol              0000000180046ecc     libucrt:strtox.obj
 0004:00001ed8       $pdata$wcstol              0000000180046ed8     libucrt:strtox.obj
 0004:00001ee4       $pdata$_mbtowc_l           0000000180046ee4     libucrt:mbtowc.obj
 0004:00001ef0       $pdata$_wctomb_s_l         0000000180046ef0     libucrt:wctomb.obj
 0004:00001efc       $pdata$wctomb_s            0000000180046efc     libucrt:wctomb.obj
 0004:00001f08       $pdata$?fp_format_a@@YAHQEBNPEAD_KQEAD2H_NIQEAU__crt_locale_pointers@@@Z 0000000180046f08     libucrt:cvt.obj
 0004:00001f14       $pdata$?fp_format_e@@YAHQEBNQEAD_K12H_NIQEAU__crt_locale_pointers@@@Z 0000000180046f14     libucrt:cvt.obj
 0004:00001f20       $pdata$?fp_format_e_internal@@YAHQEAD_KH_NIQEAU_strflt@@2QEAU__crt_locale_pointers@@@Z 0000000180046f20     libucrt:cvt.obj
 0004:00001f2c       $pdata$?fp_format_f_internal@@YAHQEAD_KHQEAU_strflt@@_NQEAU__crt_locale_pointers@@@Z 0000000180046f2c     libucrt:cvt.obj
 0004:00001f38       $pdata$?fp_format_g@@YAHQEBNQEAD_K12H_NIQEAU__crt_locale_pointers@@@Z 0000000180046f38     libucrt:cvt.obj
 0004:00001f44       $pdata$?fp_format_nan_or_infinity@@YAHW4__acrt_fp_class@@_NPEAD_K1@Z 0000000180046f44     libucrt:cvt.obj
 0004:00001f50       $pdata$__acrt_fp_format    0000000180046f50     libucrt:cvt.obj
 0004:00001f5c       $pdata$_fputwc_nolock      0000000180046f5c     libucrt:fputwc.obj
 0004:00001f68       $pdata$_fileno             0000000180046f68     libucrt:fileno.obj
 0004:00001f74       $pdata$__acrt_stdio_begin_temporary_buffering_nolock 0000000180046f74     libucrt:_sftbuf.obj
 0004:00001f80       $pdata$__acrt_stdio_end_temporary_buffering_nolock 0000000180046f80     libucrt:_sftbuf.obj
 0004:00001f8c       $pdata$_strnicoll_l        0000000180046f8c     libucrt:strnicol.obj
 0004:00001f98       $pdata$__acrt_initialize_locks 0000000180046f98     libucrt:locks.obj
 0004:00001fa4       $pdata$__acrt_uninitialize_locks 0000000180046fa4     libucrt:locks.obj
 0004:00001fb0       $pdata$__acrt_get_developer_information_policy 0000000180046fb0     libucrt:win_policies.obj
 0004:00001fbc       $pdata$__acrt_get_process_end_policy 0000000180046fbc     libucrt:win_policies.obj
 0004:00001fc8       $pdata$__acrt_get_windowing_model_policy 0000000180046fc8     libucrt:win_policies.obj
 0004:00001fd4       $pdata$??$__acrt_mbs_to_wcs_cp@U__crt_win32_buffer_internal_dynamic_resizing@@@@YAHQEBDAEAV?$__crt_win32_buffer@_WU__crt_win32_buffer_internal_dynamic_resizing@@@@I@Z 0000000180046fd4     libucrt:argv_wildcards.obj
 0004:00001fe0       $pdata$??$__acrt_wcs_to_mbs_cp@U__crt_win32_buffer_internal_dynamic_resizing@@@@YAHQEB_WAEAV?$__crt_win32_buffer@DU__crt_win32_buffer_internal_dynamic_resizing@@@@I@Z 0000000180046fe0     libucrt:argv_wildcards.obj
 0004:00001fec       $pdata$??$common_expand_argv_wildcards@D@@YAHQEAPEADQEAPEAPEAD@Z 0000000180046fec     libucrt:argv_wildcards.obj
 0004:00001ff8       $pdata$??$copy_and_add_argument_to_buffer@D@@YAHQEBD0_KAEAV?$argument_list@D@?A0x5f5c8891@@@Z 0000000180046ff8     libucrt:argv_wildcards.obj
 0004:00002004       $pdata$??$expand_argument_wildcards@D@@YAHQEAD0AEAV?$argument_list@D@?A0x5f5c8891@@@Z 0000000180047004     libucrt:argv_wildcards.obj
 0004:00002010       $pdata$??$?RV<lambda_efdfa57d1f175319df784efa44bb7b81>@@AEAV<lambda_5f0a4c1567f8adc6734073e5d1e1b35c>@@V<lambda_2e8a7d3640ea6ccb4c2413664c2db6fd>@@@?$__crt_seh_guarded_call@X@@QEAAX$$QEAV<lambda_efdfa57d1f175319df784efa44bb7b81>@@AEAV<lambda_5f0a4c1567f8adc6734073e5d1e1b35c>@@$$QEAV<lambda_2e8a7d3640ea6ccb4c2413664c2db6fd>@@@Z 0000000180047010     libucrt:mbctype.obj
 0004:0000201c       $pdata$?getSystemCP@@YAHH@Z 000000018004701c     libucrt:mbctype.obj
 0004:00002028       $pdata$?setSBCS@@YAXPEAU__crt_multibyte_data@@@Z 0000000180047028     libucrt:mbctype.obj
 0004:00002034       $pdata$?setSBUpLow@@YAXPEAU__crt_multibyte_data@@@Z 0000000180047034     libucrt:mbctype.obj
 0004:00002040       $pdata$?setmbcp_internal@@YAHH_NQEAU__acrt_ptd@@QEAPEAU__crt_multibyte_data@@@Z 0000000180047040     libucrt:mbctype.obj
 0004:0000204c       $pdata$?update_thread_multibyte_data_internal@@YAPEAU__crt_multibyte_data@@QEAU__acrt_ptd@@QEAPEAU1@@Z 000000018004704c     libucrt:mbctype.obj
 0004:00002058       $pdata$__acrt_initialize_multibyte 0000000180047058     libucrt:mbctype.obj
 0004:00002064       $pdata$__acrt_update_thread_multibyte_data 0000000180047064     libucrt:mbctype.obj
 0004:00002070       $pdata$_setmbcp_nolock     0000000180047070     libucrt:mbctype.obj
 0004:0000207c       $pdata$?x_ismbbtype_l@@YAHPEAU__crt_locale_pointers@@IHH@Z 000000018004707c     libucrt:ismbbyte.obj
 0004:00002088       $pdata$__acrt_initialize_command_line 0000000180047088     libucrt:argv_data.obj
 0004:00002094       $pdata$__acrt_WideCharToMultiByte 0000000180047094     libucrt:widechartomultibyte.obj
 0004:000020a0       $pdata$__dcrt_get_narrow_environment_from_os 00000001800470a0     libucrt:get_environment_from_os.obj
 0004:000020ac       $pdata$??$common_set_variable_in_environment_nolock@D@@YAHQEADH@Z 00000001800470ac     libucrt:setenv.obj
 0004:000020b8       $pdata$??$copy_environment@D@@YAPEAPEADQEAPEAD@Z 00000001800470b8     libucrt:setenv.obj
 0004:000020c4       $pdata$_recalloc_base      00000001800470c4     libucrt:recalloc.obj
 0004:000020d0       $pdata$__acrt_initialize_heap 00000001800470d0     libucrt:heap_handle.obj
 0004:000020dc       $pdata$__acrt_execute_initializers 00000001800470dc     libucrt:shared_initialization.obj
 0004:000020e8       $pdata$__acrt_execute_uninitializers 00000001800470e8     libucrt:shared_initialization.obj
 0004:000020f4       $pdata$__pctype_func       00000001800470f4     libucrt:ctype.obj
 0004:00002100       $pdata$iswctype            0000000180047100     libucrt:iswctype.obj
 0004:0000210c       $pdata$_isctype_l          000000018004710c     libucrt:isctype.obj
 0004:00002118       $pdata$??$?RV<lambda_a37b2b86f63e897a80ea819b0eb08c01>@@AEAV<lambda_38ce7e780aa69e748d6df282ebc68efe>@@V<lambda_99fb1378e971ab6e7edea83e3a7a83a2>@@@?$__crt_seh_guarded_call@H@@QEAAH$$QEAV<lambda_a37b2b86f63e897a80ea819b0eb08c01>@@AEAV<lambda_38ce7e780aa69e748d6df282ebc68efe>@@$$QEAV<lambda_99fb1378e971ab6e7edea83e3a7a83a2>@@@Z 0000000180047118     libucrt:commit.obj
 0004:00002124       $pdata$_commit             0000000180047124     libucrt:commit.obj
 0004:00002130       $pdata$?write_double_translated_ansi_nolock@@YA?AUwrite_result@?A0x17268360@@HQEBDI@Z 0000000180047130     libucrt:write.obj
 0004:0000213c       $pdata$?write_text_ansi_nolock@@YA?AUwrite_result@?A0x17268360@@HQEBDI@Z 000000018004713c     libucrt:write.obj
 0004:00002148       $pdata$?write_text_utf16le_nolock@@YA?AUwrite_result@?A0x17268360@@HQEBDI@Z 0000000180047148     libucrt:write.obj
 0004:00002154       $pdata$?write_text_utf8_nolock@@YA?AUwrite_result@?A0x17268360@@HQEBDI@Z 0000000180047154     libucrt:write.obj
 0004:00002160       $pdata$_write              0000000180047160     libucrt:write.obj
 0004:0000216c       $pdata$_write_nolock       000000018004716c     libucrt:write.obj
 0004:00002178       $pdata$_isleadbyte_l       0000000180047178     libucrt:_wctype.obj
 0004:00002184       $pdata$?__acrt_LCMapStringA_stat@@YAHPEAU__crt_locale_pointers@@PEB_WKPEBDHPEADHHH@Z 0000000180047184     libucrt:lcmapstringa.obj
 0004:00002190       $pdata$__acrt_LCMapStringA 0000000180047190     libucrt:lcmapstringa.obj
 0004:0000219c       $pdata$__acrt_free_locale  000000018004719c     libucrt:locale_refcounting.obj
 0004:000021a8       $pdata$__acrt_locale_free_lc_time_if_unreferenced 00000001800471a8     libucrt:locale_refcounting.obj
 0004:000021b4       $pdata$__acrt_release_locale_ref 00000001800471b4     libucrt:locale_refcounting.obj
 0004:000021c0       $pdata$__acrt_update_thread_locale_data 00000001800471c0     libucrt:locale_refcounting.obj
 0004:000021cc       $pdata$_updatetlocinfoEx_nolock 00000001800471cc     libucrt:locale_refcounting.obj
 0004:000021d8       $pdata$__acrt_locale_free_monetary 00000001800471d8     libucrt:initmon.obj
 0004:000021e4       $pdata$__acrt_locale_free_numeric 00000001800471e4     libucrt:initnum.obj
 0004:000021f0       $pdata$?free_crt_array_internal@@YAXQEAPEBX_K@Z 00000001800471f0     libucrt:inittime.obj
 0004:000021fc       $pdata$__acrt_locale_free_time 00000001800471fc     libucrt:inittime.obj
 0004:00002208       $pdata$__acrt_GetStringTypeA 0000000180047208     libucrt:getstringtypea.obj
 0004:00002214       $pdata$?GetTableIndexFromLocaleName@@YAHPEB_W@Z 0000000180047214     libucrt:lcidtoname_downlevel.obj
 0004:00002220       $pdata$__acrt_DownlevelLocaleNameToLCID 0000000180047220     libucrt:lcidtoname_downlevel.obj
 0004:0000222c       $pdata$_fclose_nolock      000000018004722c     libucrt:fclose.obj
 0004:00002238       $pdata$fclose              0000000180047238     libucrt:fclose.obj
 0004:00002244       $pdata$__acrt_lowio_create_handle_array 0000000180047244     libucrt:osfinfo.obj
 0004:00002250       $pdata$__acrt_lowio_destroy_handle_array 0000000180047250     libucrt:osfinfo.obj
 0004:0000225c       $pdata$__acrt_lowio_ensure_fh_exists 000000018004725c     libucrt:osfinfo.obj
 0004:00002268       $pdata$_free_osfhnd        0000000180047268     libucrt:osfinfo.obj
 0004:00002274       $pdata$_get_osfhandle      0000000180047274     libucrt:osfinfo.obj
 0004:00002280       $pdata$?__mbrtowc_utf8@__crt_mbstring@@YA_KPEA_WPEBD_KPEAU_Mbstatet@@@Z 0000000180047280     libucrt:mbrtowc.obj
 0004:0000228c       $pdata$?__mbsrtowcs_utf8@__crt_mbstring@@YA_KPEA_WPEAPEBD_KPEAU_Mbstatet@@@Z 000000018004728c     libucrt:mbrtowc.obj
 0004:00002298       $pdata$?__c32rtomb_utf8@__crt_mbstring@@YA_KPEAD_UPEAU_Mbstatet@@@Z 0000000180047298     libucrt:c32rtomb.obj
 0004:000022a4       $pdata$__acrt_fp_strflt_to_string 00000001800472a4     libucrt:_fptostr.obj
 0004:000022b0       $pdata$?divide@__crt_strtox@@YA_KAEAUbig_integer@1@AEBU21@@Z 00000001800472b0     libucrt:cfout.obj
 0004:000022bc       $pdata$0$?divide@__crt_strtox@@YA_KAEAUbig_integer@1@AEBU21@@Z 00000001800472bc     libucrt:cfout.obj
 0004:000022c8       $pdata$1$?divide@__crt_strtox@@YA_KAEAUbig_integer@1@AEBU21@@Z 00000001800472c8     libucrt:cfout.obj
 0004:000022d4       $pdata$__acrt_fltout       00000001800472d4     libucrt:cfout.obj
 0004:000022e0       $pdata$memcpy_s            00000001800472e0     libucrt:cfout.obj
 0004:000022ec       $pdata$??$write_buffer_nolock@D@@YA_NDV__crt_stdio_stream@@@Z 00000001800472ec     libucrt:_flsbuf.obj
 0004:000022f8       $pdata$??$write_buffer_nolock@_W@@YA_N_WV__crt_stdio_stream@@@Z 00000001800472f8     libucrt:_flsbuf.obj
 0004:00002304       $pdata$?stream_is_at_end_of_file_nolock@@YA_NV__crt_stdio_stream@@@Z 0000000180047304     libucrt:_flsbuf.obj
 0004:00002310       $pdata$__acrt_stdio_flush_and_write_narrow_nolock 0000000180047310     libucrt:_flsbuf.obj
 0004:0000231c       $pdata$__acrt_stdio_flush_and_write_wide_nolock 000000018004731c     libucrt:_flsbuf.obj
 0004:00002328       $pdata$_isatty             0000000180047328     libucrt:isatty.obj
 0004:00002334       $pdata$__ascii_strnicmp    0000000180047334     libucrt:strnicmp.obj
 0004:00002340       $pdata$_strnicmp           0000000180047340     libucrt:strnicmp.obj
 0004:0000234c       $pdata$_strnicmp_l         000000018004734c     libucrt:strnicmp.obj
 0004:00002358       $pdata$?InternalCompareStringA@@YAHPEAU__crt_locale_pointers@@PEB_WKPEBDH2HH@Z 0000000180047358     libucrt:comparestringa.obj
 0004:00002364       $pdata$__acrt_CompareStringA 0000000180047364     libucrt:comparestringa.obj
 0004:00002370       $pdata$qsort               0000000180047370     libucrt:qsort.obj
 0004:0000237c       $pdata$4$qsort             000000018004737c     libucrt:qsort.obj
 0004:00002388       $pdata$5$qsort             0000000180047388     libucrt:qsort.obj
 0004:00002394       $pdata$strncpy_s           0000000180047394     libucrt:strncpy_s.obj
 0004:000023a0       $pdata$fallbackMethod      00000001800473a0     libucrt:strpbrk.obj
 0004:000023ac       $pdata$strpbrk             00000001800473ac     libucrt:strpbrk.obj
 0004:000023b8       $pdata$_mbsdec_l           00000001800473b8     libucrt:mbsdec.obj
 0004:000023c4       $pdata$?initialize_multibyte@@YAHXZ 00000001800473c4     libucrt:multibyte_initializer.obj
 0004:000023d0       $pdata$__acrt_SetEnvironmentVariableA 00000001800473d0     libucrt:setenvironmentvariablea.obj
 0004:000023dc       $pdata$_msize_base         00000001800473dc     libucrt:msize.obj
 0004:000023e8       $pdata$??$common_lseek@_J@@YA_JH_JH@Z 00000001800473e8     libucrt:lseek.obj
 0004:000023f4       $pdata$??$common_lseek_nolock@_J@@YA_JH_JH@Z 00000001800473f4     libucrt:lseek.obj
 0004:00002400       $pdata$_putwch_nolock      0000000180047400     libucrt:putwch.obj
 0004:0000240c       $pdata$??$?RV<lambda_751a882b2c74d4b022dec766aa51a29a>@@AEAV<lambda_628dfdc04ba53c8bfc02c9951375f3f5>@@V<lambda_f6c7be5f7998530c34de24c7437d6b54>@@@?$__crt_seh_guarded_call@H@@QEAAH$$QEAV<lambda_751a882b2c74d4b022dec766aa51a29a>@@AEAV<lambda_628dfdc04ba53c8bfc02c9951375f3f5>@@$$QEAV<lambda_f6c7be5f7998530c34de24c7437d6b54>@@@Z 000000018004740c     libucrt:close.obj
 0004:00002418       $pdata$_close              0000000180047418     libucrt:close.obj
 0004:00002424       $pdata$_close_nolock       0000000180047424     libucrt:close.obj
 0004:00002430       $pdata$?__mbrtoc32_utf8@__crt_mbstring@@YA_KPEA_UPEBD_KPEAU_Mbstatet@@@Z 0000000180047430     libucrt:mbrtoc32.obj
 0004:0000243c       $pdata$fegetenv            000000018004743c     libucrt:fegetenv.obj
 0004:00002448       $pdata$fesetenv            0000000180047448     libucrt:fesetenv.obj
 0004:00002454       $pdata$feholdexcept        0000000180047454     libucrt:feholdexcept.obj
 0004:0000246c       $pdata$__acrt_stdio_allocate_buffer_nolock 000000018004746c     libucrt:_getbuf.obj
 0004:00002478       $pdata$__dcrt_lowio_ensure_console_output_initialized 0000000180047478     libucrt:initcon.obj
 0004:00002484       $pdata$__dcrt_terminate_console_output 0000000180047484     libucrt:initcon.obj
 0004:00002490       $pdata$__dcrt_write_console 0000000180047490     libucrt:initcon.obj
 0004:0000249c       $pdata$__acrt_fenv_set_control 000000018004749c     libucrt:_fenvutils.obj
 0004:000024a8       $pdata$_clearfp            00000001800474a8     libucrt:ieee.obj
 0004:000024b4       $pdata$_call_matherr       00000001800474b4     libucrt:libm_error.obj
 0004:000024c0       $pdata$_exception_enabled  00000001800474c0     libucrt:libm_error.obj
 0004:000024cc       $pdata$_handle_error       00000001800474cc     libucrt:libm_error.obj
 0004:000024d8       $pdata$__acrt_initialize_fma3 00000001800474d8     libucrt:fma3_available.obj
 0004:000024e4       $pdata$_log10_special      00000001800474e4     libucrt:log_special.obj
 0004:000024f0       $pdata$_log_special_common 00000001800474f0     libucrt:log_special.obj
 0004:00002508       $pdata$_raise_exc          0000000180047508     libucrt:fpexcept.obj
 0004:00002514       $pdata$_raise_exc_ex       0000000180047514     libucrt:fpexcept.obj
 0004:00002520       $pdata$_set_errno_from_matherr 0000000180047520     libucrt:fpexcept.obj
 0004:0000252c       $pdata$_clrfp              000000018004752c     libucrt:fpctrl.obj
 0004:00002538       $pdata$_ctrlfp             0000000180047538     libucrt:fpctrl.obj
 0004:00002544       $pdata$_set_statfp         0000000180047544     libucrt:fpctrl.obj
 0004:00002550       $pdata$_statfp             0000000180047550     libucrt:fpctrl.obj
 0004:0000255c       $pdata$?DloadAcquireSectionWriteAccess@@YAXXZ 000000018004755c     DelayImp:delayhlp.obj
 0004:00002568       $pdata$?DloadGetSRWLockFunctionPointers@@YAEXZ 0000000180047568     DelayImp:delayhlp.obj
 0004:00002574       $pdata$?DloadMakePermanentImageCommit@@YAXPEAX_K@Z 0000000180047574     DelayImp:delayhlp.obj
 0004:00002580       $pdata$?DloadObtainSection@@YAPEAXPEAK0@Z 0000000180047580     DelayImp:delayhlp.obj
 0004:0000258c       $pdata$?DloadProtectSection@@YAXKPEAK@Z 000000018004758c     DelayImp:delayhlp.obj
 0004:00002598       $pdata$?DloadReleaseSectionWriteAccess@@YAXXZ 0000000180047598     DelayImp:delayhlp.obj
 0004:000025a4       $pdata$__delayLoadHelper2  00000001800475a4     DelayImp:delayhlp.obj
 0004:000025b0       $pdata$_IsNonwritableInCurrentImage 00000001800475b0     LIBCMT:pesect.obj
 0004:000025bc       $pdata$__GSHandlerCheck    00000001800475bc     LIBCMT:gshandler.obj
 0004:000025c8       $pdata$__GSHandlerCheckCommon 00000001800475c8     LIBCMT:gshandler.obj
 0004:000025ec       $pdata$strrchr             00000001800475ec     libvcruntime:strrchr.obj
 0004:000025f8       $pdata$strchr              00000001800475f8     libvcruntime:strchr.obj
 0004:00002610       $pdata$?fin$0@?0??dllmain_crt_process_attach@@YAHQEAUHINSTANCE__@@QEAX@Z@4HA 0000000180047610     LIBCMT:dll_dllmain.obj
 0004:0000261c       $pdata$?fin$0@?0??dllmain_crt_process_detach@@YAH_N@Z@4HA 000000018004761c     LIBCMT:dll_dllmain.obj
 0004:00002628       $pdata$?filt$0@?0??dllmain_dispatch@@YAHQEAUHINSTANCE__@@KQEAX@Z@4HA 0000000180047628     LIBCMT:dll_dllmain.obj
 0004:00002634       $pdata$__scrt_is_nonwritable_in_current_image$filt$0 0000000180047634     LIBCMT:utility.obj
 0004:00002640       $pdata$__DestructExceptionObject$filt$0 0000000180047640     libvcruntime:ehhelpers.obj
 0004:0000264c       $pdata$?fin$0@?0???$?RV<lambda_0d412022a4b28cc8a401ea49574e8ae6>@@AEAV<lambda_a775ed57af18ba8e4d5dc780aa9068fe>@@V<lambda_975a71a6baa488a08f4e15f6b0339b9e>@@@?$__crt_seh_guarded_call@H@@QEAAH$$QEAV<lambda_0d412022a4b28cc8a401ea49574e8ae6>@@AEAV<lambda_a775ed57af18ba8e4d5dc780aa9068fe>@@$$QEAV<lambda_975a71a6baa488a08f4e15f6b0339b9e>@@@Z@4HA 000000018004764c     libucrt:output.obj
 0004:0000264c       $pdata$?fin$0@?0???$?RV<lambda_842d9ff0dc9ef11c61343bbaebe7f885>@@AEAV<lambda_c5860995281e5c4ce005b3de8f5874ee>@@V<lambda_d90129c13df834fdcbf8d2b88dafcf2d>@@@?$__crt_seh_guarded_call@X@@QEAAX$$QEAV<lambda_842d9ff0dc9ef11c61343bbaebe7f885>@@AEAV<lambda_c5860995281e5c4ce005b3de8f5874ee>@@$$QEAV<lambda_d90129c13df834fdcbf8d2b88dafcf2d>@@@Z@4HA 000000018004764c     libucrt:fflush.obj
 0004:0000264c       $pdata$?fin$0@?0???$?RV<lambda_a62c933ada0517137acf5807a1eeac1f>@@AEAV<lambda_a31071773b9a94e445cbd5d04ef99106>@@V<lambda_56065050dbf3ada7e59a83db45153de3>@@@?$__crt_seh_guarded_call@H@@QEAAH$$QEAV<lambda_a62c933ada0517137acf5807a1eeac1f>@@AEAV<lambda_a31071773b9a94e445cbd5d04ef99106>@@$$QEAV<lambda_56065050dbf3ada7e59a83db45153de3>@@@Z@4HA 000000018004764c     libucrt:output.obj
 0004:0000264c       $pdata$?fin$0@?0???$?RV<lambda_c376a267cfb53b6959b3b692ec76b120>@@AEAV<lambda_9a32fed5bf61b6b509b2d3f6003082a1>@@V<lambda_572fbb9fa0ab338edf41edfd4b5fcc8d>@@@?$__crt_seh_guarded_call@H@@QEAAH$$QEAV<lambda_c376a267cfb53b6959b3b692ec76b120>@@AEAV<lambda_9a32fed5bf61b6b509b2d3f6003082a1>@@$$QEAV<lambda_572fbb9fa0ab338edf41edfd4b5fcc8d>@@@Z@4HA 000000018004764c     libucrt:fflush.obj
 0004:0000264c       $pdata$?fin$0@?0???$?RV<lambda_84ec643ea9557e2f7dc01bb0e9624395>@@AEAV<lambda_ca71763b3c0644891230e4f79ea54fa6>@@V<lambda_439a761618c59b0600e24586724d733b>@@@?$__crt_seh_guarded_call@H@@QEAAH$$QEAV<lambda_84ec643ea9557e2f7dc01bb0e9624395>@@AEAV<lambda_ca71763b3c0644891230e4f79ea54fa6>@@$$QEAV<lambda_439a761618c59b0600e24586724d733b>@@@Z@4HA 000000018004764c     libucrt:setvbuf.obj
 0004:00002658       $pdata$?fin$0@?0???$common_getenv@D@@YAPEADQEBD@Z@4HA 0000000180047658     libucrt:getenv.obj
 0004:00002664       $pdata$_query_new_handler$fin$0 0000000180047664     libucrt:new_handler.obj
 0004:00002670       $pdata$?fin$0@?0???$?RV<lambda_7777bce6b2f8c936911f934f8298dc43>@@AEAV<lambda_f03950bc5685219e0bcd2087efbe011e>@@V<lambda_3883c3dff614d5e0c5f61bb1ac94921c>@@@?$__crt_seh_guarded_call@H@@QEAAH$$QEAV<lambda_7777bce6b2f8c936911f934f8298dc43>@@AEAV<lambda_f03950bc5685219e0bcd2087efbe011e>@@$$QEAV<lambda_3883c3dff614d5e0c5f61bb1ac94921c>@@@Z@4HA 0000000180047670     libucrt:onexit.obj
 0004:00002670       $pdata$?fin$0@?0???$?RV<lambda_f2e299630e499de9f9a165e60fcd3db5>@@AEAV<lambda_2ae9d31cdba2644fcbeaf08da7c24588>@@V<lambda_40d01ff24d0e7b3814fdbdcee8eab3c7>@@@?$__crt_seh_guarded_call@X@@QEAAX$$QEAV<lambda_f2e299630e499de9f9a165e60fcd3db5>@@AEAV<lambda_2ae9d31cdba2644fcbeaf08da7c24588>@@$$QEAV<lambda_40d01ff24d0e7b3814fdbdcee8eab3c7>@@@Z@4HA 0000000180047670     libucrt:per_thread_data.obj
 0004:00002670       $pdata$?fin$0@?0???$?RV<lambda_aa87e3671a710a21b5dc78c0bdf72e11>@@AEAV<lambda_92619d2358a28f41a33ba319515a20b9>@@V<lambda_6992ecaafeb10aed2b74cb1fae11a551>@@@?$__crt_seh_guarded_call@X@@QEAAX$$QEAV<lambda_aa87e3671a710a21b5dc78c0bdf72e11>@@AEAV<lambda_92619d2358a28f41a33ba319515a20b9>@@$$QEAV<lambda_6992ecaafeb10aed2b74cb1fae11a551>@@@Z@4HA 0000000180047670     libucrt:per_thread_data.obj
 0004:00002670       $pdata$?fin$0@?0???$?RV<lambda_0ae27a3a962d80f24befdcbee591983d>@@AEAV<lambda_8d0ee55de4b1038c4002e0adecdf1839>@@V<lambda_dc504788e8f1664fe9b84e20bfb512f2>@@@?$__crt_seh_guarded_call@X@@QEAAX$$QEAV<lambda_0ae27a3a962d80f24befdcbee591983d>@@AEAV<lambda_8d0ee55de4b1038c4002e0adecdf1839>@@$$QEAV<lambda_dc504788e8f1664fe9b84e20bfb512f2>@@@Z@4HA 0000000180047670     libucrt:per_thread_data.obj
 0004:00002670       $pdata$?fin$0@?0???$?RV<lambda_450d765d439847d4c735a33c368b5fc0>@@AEAV<lambda_44731a7d0e6d81c3e6aa82d741081786>@@V<lambda_601a2a7da3b7a96e9554ac7215c4b07c>@@@?$__crt_seh_guarded_call@P6AXH@Z@@QEAAP6AXH@Z$$QEAV<lambda_450d765d439847d4c735a33c368b5fc0>@@AEAV<lambda_44731a7d0e6d81c3e6aa82d741081786>@@$$QEAV<lambda_601a2a7da3b7a96e9554ac7215c4b07c>@@@Z@4HA 0000000180047670     libucrt:signal.obj
 0004:00002670       $pdata$?fin$0@?0???$?RV<lambda_efdfa57d1f175319df784efa44bb7b81>@@AEAV<lambda_5f0a4c1567f8adc6734073e5d1e1b35c>@@V<lambda_2e8a7d3640ea6ccb4c2413664c2db6fd>@@@?$__crt_seh_guarded_call@X@@QEAAX$$QEAV<lambda_efdfa57d1f175319df784efa44bb7b81>@@AEAV<lambda_5f0a4c1567f8adc6734073e5d1e1b35c>@@$$QEAV<lambda_2e8a7d3640ea6ccb4c2413664c2db6fd>@@@Z@4HA 0000000180047670     libucrt:mbctype.obj
 0004:00002670       $pdata$?fin$0@?0???$?RV<lambda_d80eeec6fff315bfe5c115232f3240e3>@@AEAV<lambda_6e4b09c48022b2350581041d5f6b0c4c>@@V<lambda_2358e3775559c9db80273638284d5e45>@@@?$__crt_seh_guarded_call@X@@QEAAX$$QEAV<lambda_d80eeec6fff315bfe5c115232f3240e3>@@AEAV<lambda_6e4b09c48022b2350581041d5f6b0c4c>@@$$QEAV<lambda_2358e3775559c9db80273638284d5e45>@@@Z@4HA 0000000180047670     libucrt:exit.obj
 0004:00002670       $pdata$?fin$0@?0???$?RV<lambda_2d41944a1d46af3157314b8a01080d33>@@AEAV<lambda_8f455de75cd7d7f24b4096f044d8b9e6>@@V<lambda_aa500f224e6afead328df44964fe2772>@@@?$__crt_seh_guarded_call@X@@QEAAX$$QEAV<lambda_2d41944a1d46af3157314b8a01080d33>@@AEAV<lambda_8f455de75cd7d7f24b4096f044d8b9e6>@@$$QEAV<lambda_aa500f224e6afead328df44964fe2772>@@@Z@4HA 0000000180047670     libucrt:per_thread_data.obj
 0004:0000267c       $pdata$?filt$0@?0???R<lambda_6e4b09c48022b2350581041d5f6b0c4c>@@QEBA@XZ@4HA 000000018004767c     libucrt:exit.obj
 0004:00002688       $pdata$?fin$0@?0???$?RV<lambda_886d6c58226a84441f68b9f2b8217b83>@@AEAV<lambda_ab61a845afdef5b7c387490eaf3616ee>@@V<lambda_f7f22ab5edc0698d5f6905b0d3f44752>@@@?$__crt_seh_guarded_call@X@@QEAAX$$QEAV<lambda_886d6c58226a84441f68b9f2b8217b83>@@AEAV<lambda_ab61a845afdef5b7c387490eaf3616ee>@@$$QEAV<lambda_f7f22ab5edc0698d5f6905b0d3f44752>@@@Z@4HA 0000000180047688     libucrt:fflush.obj
 0004:00002694       $pdata$raise$fin$0         0000000180047694     libucrt:signal.obj
 0004:000026a0       $pdata$?fin$0@?0???$?RV<lambda_410d79af7f07d98d83a3f525b3859a53>@@AEAV<lambda_3e16ef9562a7dcce91392c22ab16ea36>@@V<lambda_38119f0e861e05405d8a144b9b982f0a>@@@?$__crt_seh_guarded_call@X@@QEAAX$$QEAV<lambda_410d79af7f07d98d83a3f525b3859a53>@@AEAV<lambda_3e16ef9562a7dcce91392c22ab16ea36>@@$$QEAV<lambda_38119f0e861e05405d8a144b9b982f0a>@@@Z@4HA 00000001800476a0     libucrt:wsetlocale.obj
 0004:000026ac       $pdata$_fcloseall$fin$0    00000001800476ac     libucrt:closeall.obj
 0004:000026b8       $pdata$__acrt_initialize_lowio$fin$0 00000001800476b8     libucrt:ioinit.obj
 0004:000026b8       $pdata$__acrt_lowio_ensure_fh_exists$fin$0 00000001800476b8     libucrt:osfinfo.obj
 0004:000026c4       $pdata$?fin$0@?0??update_thread_multibyte_data_internal@@YAPEAU__crt_multibyte_data@@QEAU__acrt_ptd@@QEAPEAU1@@Z@4HA 00000001800476c4     libucrt:mbctype.obj
 0004:000026d0       $pdata$?fin$0@?0???$?RV<lambda_751a882b2c74d4b022dec766aa51a29a>@@AEAV<lambda_628dfdc04ba53c8bfc02c9951375f3f5>@@V<lambda_f6c7be5f7998530c34de24c7437d6b54>@@@?$__crt_seh_guarded_call@H@@QEAAH$$QEAV<lambda_751a882b2c74d4b022dec766aa51a29a>@@AEAV<lambda_628dfdc04ba53c8bfc02c9951375f3f5>@@$$QEAV<lambda_f6c7be5f7998530c34de24c7437d6b54>@@@Z@4HA 00000001800476d0     libucrt:close.obj
 0004:000026d0       $pdata$?fin$0@?0???$?RV<lambda_a37b2b86f63e897a80ea819b0eb08c01>@@AEAV<lambda_38ce7e780aa69e748d6df282ebc68efe>@@V<lambda_99fb1378e971ab6e7edea83e3a7a83a2>@@@?$__crt_seh_guarded_call@H@@QEAAH$$QEAV<lambda_a37b2b86f63e897a80ea819b0eb08c01>@@AEAV<lambda_38ce7e780aa69e748d6df282ebc68efe>@@$$QEAV<lambda_99fb1378e971ab6e7edea83e3a7a83a2>@@@Z@4HA 00000001800476d0     libucrt:commit.obj
 0004:000026dc       $pdata$?fin$0@?0???$common_lseek@_J@@YA_JH_JH@Z@4HA 00000001800476dc     libucrt:lseek.obj
 0004:000026dc       $pdata$_write$fin$0        00000001800476dc     libucrt:write.obj
 0004:000026e8       $pdata$__acrt_update_thread_locale_data$fin$0 00000001800476e8     libucrt:locale_refcounting.obj
 0004:000026f4       $pdata$fclose$fin$0        00000001800476f4     libucrt:fclose.obj
 0004:00002700       $pdata$_ctrlfp$filt$0      0000000180047700     libucrt:fpctrl.obj
 0004:0000270c       $pdata$_IsNonwritableInCurrentImage$filt$0 000000018004770c     LIBCMT:pesect.obj
 0005:00000060       $R000000                   0000000180048060     * linker generated manifest res *

 Exports

  ordinal    name

        1    _register_node_expat_
